	.text
	.file	"llvm-link"
	.globl	functie_voor_datastructuren     # -- Begin function functie_voor_datastructuren
	.p2align	4, 0x90
	.type	functie_voor_datastructuren,@function
functie_voor_datastructuren:            # @functie_voor_datastructuren
	.cfi_startproc
# %bb.0:
	pushl	%ebp
	.cfi_def_cfa_offset 8
	.cfi_offset %ebp, -8
	movl	%esp, %ebp
	.cfi_def_cfa_register %ebp
	subl	$8, %esp
	movl	8(%ebp), %eax
	movl	$.L.str, (%esp)
	calll	printf@PLT
	movl	8(%ebp), %eax
	movl	$0, (%eax)
	movl	8(%ebp), %eax
	movl	$0, 4(%eax)
	movl	8(%ebp), %eax
	movl	$0, 8(%eax)
	leal	.L.str.1, %eax
	movl	%eax, (%esp)
	calll	printf@PLT
	addl	$8, %esp
	popl	%ebp
	.cfi_def_cfa %esp, 4
	retl
.Lfunc_end0:
	.size	functie_voor_datastructuren, .Lfunc_end0-functie_voor_datastructuren
	.cfi_endproc
                                        # -- End function
	.globl	FF_function_300                 # -- Begin function FF_function_300
	.p2align	4, 0x90
	.type	FF_function_300,@function
FF_function_300:                        # @FF_function_300
	.cfi_startproc
# %bb.0:
	pushl	%ebp
	.cfi_def_cfa_offset 8
	.cfi_offset %ebp, -8
	movl	%esp, %ebp
	.cfi_def_cfa_register %ebp
	subl	$8, %esp
	flds	12(%ebp)
	fstp	%st(0)
	movw	8(%ebp), %ax
	leal	.L.str.2, %eax
	movl	%eax, (%esp)
	calll	printf@PLT
	leal	.L.str.1.3, %eax
	movl	%eax, (%esp)
	calll	printf@PLT
	xorl	%eax, %eax
	movsbl	%al, %eax
	addl	$8, %esp
	popl	%ebp
	.cfi_def_cfa %esp, 4
	retl
.Lfunc_end1:
	.size	FF_function_300, .Lfunc_end1-FF_function_300
	.cfi_endproc
                                        # -- End function
	.globl	FF_function_301                 # -- Begin function FF_function_301
	.p2align	4, 0x90
	.type	FF_function_301,@function
FF_function_301:                        # @FF_function_301
	.cfi_startproc
# %bb.0:
	pushl	%ebp
	.cfi_def_cfa_offset 8
	.cfi_offset %ebp, -8
	movl	%esp, %ebp
	.cfi_def_cfa_register %ebp
	subl	$8, %esp
	movb	8(%ebp), %al
	leal	.L.str.2.4, %eax
	movl	%eax, (%esp)
	calll	printf@PLT
	leal	.L.str.3, %eax
	movl	%eax, (%esp)
	calll	printf@PLT
	xorl	%eax, %eax
	movsbl	%al, %eax
	addl	$8, %esp
	popl	%ebp
	.cfi_def_cfa %esp, 4
	retl
.Lfunc_end2:
	.size	FF_function_301, .Lfunc_end2-FF_function_301
	.cfi_endproc
                                        # -- End function
	.globl	FF_function_302                 # -- Begin function FF_function_302
	.p2align	4, 0x90
	.type	FF_function_302,@function
FF_function_302:                        # @FF_function_302
	.cfi_startproc
# %bb.0:
	pushl	%ebp
	.cfi_def_cfa_offset 8
	.cfi_offset %ebp, -8
	movl	%esp, %ebp
	.cfi_def_cfa_register %ebp
	pushl	%ebx
	pushl	%edi
	pushl	%esi
	subl	$44, %esp
	.cfi_offset %esi, -20
	.cfi_offset %edi, -16
	.cfi_offset %ebx, -12
	movl	44(%ebp), %eax
	movl	48(%ebp), %ecx
	movl	36(%ebp), %edx
	movl	40(%ebp), %esi
	flds	32(%ebp)
	fstp	%st(0)
	movb	28(%ebp), %bl
	fldl	20(%ebp)
	movw	16(%ebp), %di
	movw	12(%ebp), %di
	movl	8(%ebp), %edi
	fstpl	-40(%ebp)
	movl	%esi, -28(%ebp)
	movl	%edx, -32(%ebp)
	movl	%ecx, -20(%ebp)
	movl	%eax, -24(%ebp)
	leal	.L.str.4, %eax
	movl	%eax, (%esp)
	calll	printf@PLT
	leal	.L.str.5, %eax
	movl	%eax, (%esp)
	calll	printf@PLT
	xorl	%eax, %eax
	movsbl	%al, %eax
	addl	$44, %esp
	popl	%esi
	popl	%edi
	popl	%ebx
	popl	%ebp
	.cfi_def_cfa %esp, 4
	retl
.Lfunc_end3:
	.size	FF_function_302, .Lfunc_end3-FF_function_302
	.cfi_endproc
                                        # -- End function
	.globl	FF_function_303                 # -- Begin function FF_function_303
	.p2align	4, 0x90
	.type	FF_function_303,@function
FF_function_303:                        # @FF_function_303
	.cfi_startproc
# %bb.0:
	pushl	%ebp
	.cfi_def_cfa_offset 8
	.cfi_offset %ebp, -8
	movl	%esp, %ebp
	.cfi_def_cfa_register %ebp
	subl	$8, %esp
	movw	12(%ebp), %ax
	movb	8(%ebp), %al
	leal	.L.str.6, %eax
	movl	%eax, (%esp)
	calll	printf@PLT
	leal	.L.str.7, %eax
	movl	%eax, (%esp)
	calll	printf@PLT
	xorl	%eax, %eax
	movsbl	%al, %eax
	addl	$8, %esp
	popl	%ebp
	.cfi_def_cfa %esp, 4
	retl
.Lfunc_end4:
	.size	FF_function_303, .Lfunc_end4-FF_function_303
	.cfi_endproc
                                        # -- End function
	.globl	FF_function_304                 # -- Begin function FF_function_304
	.p2align	4, 0x90
	.type	FF_function_304,@function
FF_function_304:                        # @FF_function_304
	.cfi_startproc
# %bb.0:
	pushl	%ebp
	.cfi_def_cfa_offset 8
	.cfi_offset %ebp, -8
	movl	%esp, %ebp
	.cfi_def_cfa_register %ebp
	subl	$8, %esp
	fldl	8(%ebp)
	fstp	%st(0)
	leal	.L.str.8, %eax
	movl	%eax, (%esp)
	calll	printf@PLT
	leal	.L.str.9, %eax
	movl	%eax, (%esp)
	calll	printf@PLT
	xorl	%eax, %eax
	movsbl	%al, %eax
	addl	$8, %esp
	popl	%ebp
	.cfi_def_cfa %esp, 4
	retl
.Lfunc_end5:
	.size	FF_function_304, .Lfunc_end5-FF_function_304
	.cfi_endproc
                                        # -- End function
	.globl	FF_function_305                 # -- Begin function FF_function_305
	.p2align	4, 0x90
	.type	FF_function_305,@function
FF_function_305:                        # @FF_function_305
	.cfi_startproc
# %bb.0:
	pushl	%ebp
	.cfi_def_cfa_offset 8
	.cfi_offset %ebp, -8
	movl	%esp, %ebp
	.cfi_def_cfa_register %ebp
	subl	$8, %esp
	movl	8(%ebp), %eax
	movl	12(%ebp), %eax
	movw	24(%ebp), %ax
	movl	20(%ebp), %eax
	movl	16(%ebp), %eax
	leal	.L.str.10, %eax
	movl	%eax, (%esp)
	calll	printf@PLT
	leal	.L.str.11, %eax
	movl	%eax, (%esp)
	calll	printf@PLT
	xorl	%eax, %eax
	movsbl	%al, %eax
	addl	$8, %esp
	popl	%ebp
	.cfi_def_cfa %esp, 4
	retl
.Lfunc_end6:
	.size	FF_function_305, .Lfunc_end6-FF_function_305
	.cfi_endproc
                                        # -- End function
	.globl	FF_function_306                 # -- Begin function FF_function_306
	.p2align	4, 0x90
	.type	FF_function_306,@function
FF_function_306:                        # @FF_function_306
	.cfi_startproc
# %bb.0:
	pushl	%ebp
	.cfi_def_cfa_offset 8
	.cfi_offset %ebp, -8
	movl	%esp, %ebp
	.cfi_def_cfa_register %ebp
	subl	$8, %esp
	flds	28(%ebp)
	fstp	%st(0)
	movw	24(%ebp), %ax
	fldl	16(%ebp)
	fstp	%st(0)
	movl	12(%ebp), %eax
	movb	8(%ebp), %al
	leal	.L.str.12, %eax
	movl	%eax, (%esp)
	calll	printf@PLT
	leal	.L.str.13, %eax
	movl	%eax, (%esp)
	calll	printf@PLT
	xorl	%eax, %eax
	movsbl	%al, %eax
	addl	$8, %esp
	popl	%ebp
	.cfi_def_cfa %esp, 4
	retl
.Lfunc_end7:
	.size	FF_function_306, .Lfunc_end7-FF_function_306
	.cfi_endproc
                                        # -- End function
	.globl	FF_function_307                 # -- Begin function FF_function_307
	.p2align	4, 0x90
	.type	FF_function_307,@function
FF_function_307:                        # @FF_function_307
	.cfi_startproc
# %bb.0:
	pushl	%ebp
	.cfi_def_cfa_offset 8
	.cfi_offset %ebp, -8
	movl	%esp, %ebp
	.cfi_def_cfa_register %ebp
	subl	$8, %esp
	movb	12(%ebp), %al
	movl	8(%ebp), %eax
	leal	.L.str.14, %eax
	movl	%eax, (%esp)
	calll	printf@PLT
	leal	.L.str.15, %eax
	movl	%eax, (%esp)
	calll	printf@PLT
	xorl	%eax, %eax
	movsbl	%al, %eax
	addl	$8, %esp
	popl	%ebp
	.cfi_def_cfa %esp, 4
	retl
.Lfunc_end8:
	.size	FF_function_307, .Lfunc_end8-FF_function_307
	.cfi_endproc
                                        # -- End function
	.globl	FF_function_308                 # -- Begin function FF_function_308
	.p2align	4, 0x90
	.type	FF_function_308,@function
FF_function_308:                        # @FF_function_308
	.cfi_startproc
# %bb.0:
	pushl	%ebp
	.cfi_def_cfa_offset 8
	.cfi_offset %ebp, -8
	movl	%esp, %ebp
	.cfi_def_cfa_register %ebp
	subl	$24, %esp
	movl	12(%ebp), %eax
	movl	16(%ebp), %ecx
	movw	20(%ebp), %dx
	movw	8(%ebp), %dx
	movl	%eax, -8(%ebp)
	movl	%ecx, -4(%ebp)
	leal	.L.str.16, %eax
	movl	%eax, (%esp)
	calll	printf@PLT
	leal	.L.str.17, %eax
	movl	%eax, (%esp)
	calll	printf@PLT
	xorl	%eax, %eax
	movsbl	%al, %eax
	addl	$24, %esp
	popl	%ebp
	.cfi_def_cfa %esp, 4
	retl
.Lfunc_end9:
	.size	FF_function_308, .Lfunc_end9-FF_function_308
	.cfi_endproc
                                        # -- End function
	.globl	FF_function_309                 # -- Begin function FF_function_309
	.p2align	4, 0x90
	.type	FF_function_309,@function
FF_function_309:                        # @FF_function_309
	.cfi_startproc
# %bb.0:
	pushl	%ebp
	.cfi_def_cfa_offset 8
	.cfi_offset %ebp, -8
	movl	%esp, %ebp
	.cfi_def_cfa_register %ebp
	subl	$8, %esp
	movl	24(%ebp), %eax
	movl	28(%ebp), %eax
	movl	16(%ebp), %eax
	movl	20(%ebp), %eax
	movl	8(%ebp), %eax
	movl	12(%ebp), %eax
	movl	32(%ebp), %eax
	leal	.L.str.18, %eax
	movl	%eax, (%esp)
	calll	printf@PLT
	leal	.L.str.19, %eax
	movl	%eax, (%esp)
	calll	printf@PLT
	xorl	%eax, %eax
	movsbl	%al, %eax
	addl	$8, %esp
	popl	%ebp
	.cfi_def_cfa %esp, 4
	retl
.Lfunc_end10:
	.size	FF_function_309, .Lfunc_end10-FF_function_309
	.cfi_endproc
                                        # -- End function
	.globl	FF_function_311                 # -- Begin function FF_function_311
	.p2align	4, 0x90
	.type	FF_function_311,@function
FF_function_311:                        # @FF_function_311
	.cfi_startproc
# %bb.0:
	pushl	%ebp
	.cfi_def_cfa_offset 8
	.cfi_offset %ebp, -8
	movl	%esp, %ebp
	.cfi_def_cfa_register %ebp
	subl	$40, %esp
	movl	8(%ebp), %eax
	movl	12(%ebp), %eax
	movl	$.L.str.20, (%esp)
	calll	printf@PLT
	leal	16(%ebp), %eax
	movl	%eax, -8(%ebp)
	movl	-8(%ebp), %eax
	movl	%eax, %ecx
	addl	$4, %ecx
	movl	%ecx, -8(%ebp)
	movb	(%eax), %al
	movb	%al, -1(%ebp)
	movl	$1, 8(%esp)
	movl	$0, 4(%esp)
	movl	$0, (%esp)
	calll	FF_function_311
	movl	$3, 16(%esp)
	movl	$2, 12(%esp)
	movl	$1, 8(%esp)
	movl	$0, 4(%esp)
	movl	$0, (%esp)
	calll	FF_function_311
	movl	$.L.str.21, (%esp)
	calll	printf@PLT
	movb	-1(%ebp), %al
	addl	$40, %esp
	popl	%ebp
	.cfi_def_cfa %esp, 4
	retl
.Lfunc_end11:
	.size	FF_function_311, .Lfunc_end11-FF_function_311
	.cfi_endproc
                                        # -- End function
	.globl	FF_function_313                 # -- Begin function FF_function_313
	.p2align	4, 0x90
	.type	FF_function_313,@function
FF_function_313:                        # @FF_function_313
	.cfi_startproc
# %bb.0:
	pushl	%ebp
	.cfi_def_cfa_offset 8
	.cfi_offset %ebp, -8
	movl	%esp, %ebp
	.cfi_def_cfa_register %ebp
	subl	$88, %esp
	movl	16(%ebp), %eax
	flds	12(%ebp)
	movl	8(%ebp), %ecx
	movl	%ecx, -56(%ebp)
	fstps	-52(%ebp)
	movl	%eax, -48(%ebp)
	movl	$.L.str.22, (%esp)
	calll	printf@PLT
	leal	20(%ebp), %eax
	movl	%eax, -4(%ebp)
	movl	-4(%ebp), %eax
	movl	%eax, %ecx
	addl	$8, %ecx
	movl	%ecx, -4(%ebp)
	movl	(%eax), %ecx
	movl	4(%eax), %eax
	movl	%eax, -36(%ebp)
	movl	%ecx, -40(%ebp)
	movl	$0, -32(%ebp)
	movl	$1056964608, -28(%ebp)          # imm = 0x3F000000
	movl	$0, -24(%ebp)
	movl	-32(%ebp), %eax
	flds	-28(%ebp)
	movl	-24(%ebp), %ecx
	movl	%ecx, 8(%esp)
	fstps	4(%esp)
	movl	%eax, (%esp)
	movl	$1, 12(%esp)
	calll	FF_function_313
	movl	$0, -16(%ebp)
	movl	$1056964608, -12(%ebp)          # imm = 0x3F000000
	movl	$0, -8(%ebp)
	movl	-16(%ebp), %eax
	flds	-12(%ebp)
	movl	-8(%ebp), %ecx
	movl	%ecx, 8(%esp)
	fstps	4(%esp)
	movl	%eax, (%esp)
	movl	$3, 20(%esp)
	movl	$2, 16(%esp)
	movl	$1, 12(%esp)
	calll	FF_function_313
	movl	$.L.str.23, (%esp)
	calll	printf@PLT
	movl	-40(%ebp), %eax
	movl	-36(%ebp), %edx
	addl	$88, %esp
	popl	%ebp
	.cfi_def_cfa %esp, 4
	retl
.Lfunc_end12:
	.size	FF_function_313, .Lfunc_end12-FF_function_313
	.cfi_endproc
                                        # -- End function
	.globl	FF_function_315                 # -- Begin function FF_function_315
	.p2align	4, 0x90
	.type	FF_function_315,@function
FF_function_315:                        # @FF_function_315
	.cfi_startproc
# %bb.0:
	pushl	%ebp
	.cfi_def_cfa_offset 8
	.cfi_offset %ebp, -8
	movl	%esp, %ebp
	.cfi_def_cfa_register %ebp
	pushl	%esi
	subl	$68, %esp
	.cfi_offset %esi, -12
	movl	8(%ebp), %esi
	movb	12(%ebp), %al
	movl	$.L.str.24, (%esp)
	calll	printf@PLT
	leal	16(%ebp), %eax
	movl	%eax, -8(%ebp)
	movl	-8(%ebp), %eax
	movl	%eax, %ecx
	addl	$12, %ecx
	movl	%ecx, -8(%ebp)
	movl	8(%eax), %ecx
	movl	%ecx, 8(%esi)
	movl	(%eax), %ecx
	movl	4(%eax), %eax
	movl	%eax, 4(%esi)
	movl	%ecx, (%esi)
	leal	-40(%ebp), %eax
	movl	%eax, (%esp)
	movl	$1, 8(%esp)
	movl	$0, 4(%esp)
	calll	FF_function_315
	subl	$4, %esp
	leal	-24(%ebp), %eax
	movl	%eax, (%esp)
	movl	$3, 16(%esp)
	movl	$2, 12(%esp)
	movl	$1, 8(%esp)
	movl	$0, 4(%esp)
	calll	FF_function_315
	subl	$4, %esp
	movl	$.L.str.25, (%esp)
	calll	printf@PLT
	movl	%esi, %eax
	addl	$68, %esp
	popl	%esi
	popl	%ebp
	.cfi_def_cfa %esp, 4
	retl	$4
.Lfunc_end13:
	.size	FF_function_315, .Lfunc_end13-FF_function_315
	.cfi_endproc
                                        # -- End function
	.globl	FF_function_319                 # -- Begin function FF_function_319
	.p2align	4, 0x90
	.type	FF_function_319,@function
FF_function_319:                        # @FF_function_319
	.cfi_startproc
# %bb.0:
	pushl	%ebp
	.cfi_def_cfa_offset 8
	.cfi_offset %ebp, -8
	movl	%esp, %ebp
	.cfi_def_cfa_register %ebp
	pushl	%esi
	subl	$116, %esp
	.cfi_offset %esi, -12
	movl	8(%ebp), %esi
	movl	20(%ebp), %eax
	flds	16(%ebp)
	movl	12(%ebp), %ecx
	movl	%ecx, -56(%ebp)
	fstps	-52(%ebp)
	movl	%eax, -48(%ebp)
	movl	$.L.str.26, (%esp)
	calll	printf@PLT
	leal	24(%ebp), %eax
	movl	%eax, -8(%ebp)
	movl	-8(%ebp), %eax
	movl	%eax, %ecx
	addl	$12, %ecx
	movl	%ecx, -8(%ebp)
	movl	8(%eax), %ecx
	movl	%ecx, 8(%esi)
	movl	(%eax), %ecx
	movl	4(%eax), %eax
	movl	%eax, 4(%esi)
	movl	%ecx, (%esi)
	movl	$0, -40(%ebp)
	movl	$1056964608, -36(%ebp)          # imm = 0x3F000000
	movl	$0, -32(%ebp)
	movl	-40(%ebp), %eax
	flds	-36(%ebp)
	movl	-32(%ebp), %ecx
	movl	%ecx, 12(%esp)
	fstps	8(%esp)
	movl	%eax, 4(%esp)
	leal	-88(%ebp), %eax
	movl	%eax, (%esp)
	movl	$1, 16(%esp)
	calll	FF_function_319
	subl	$4, %esp
	movl	$0, -24(%ebp)
	movl	$1056964608, -20(%ebp)          # imm = 0x3F000000
	movl	$0, -16(%ebp)
	movl	-24(%ebp), %eax
	flds	-20(%ebp)
	movl	-16(%ebp), %ecx
	movl	%ecx, 12(%esp)
	fstps	8(%esp)
	movl	%eax, 4(%esp)
	leal	-72(%ebp), %eax
	movl	%eax, (%esp)
	movl	$3, 24(%esp)
	movl	$2, 20(%esp)
	movl	$1, 16(%esp)
	calll	FF_function_319
	subl	$4, %esp
	movl	$.L.str.27, (%esp)
	calll	printf@PLT
	movl	%esi, %eax
	addl	$116, %esp
	popl	%esi
	popl	%ebp
	.cfi_def_cfa %esp, 4
	retl	$4
.Lfunc_end14:
	.size	FF_function_319, .Lfunc_end14-FF_function_319
	.cfi_endproc
                                        # -- End function
	.globl	FF_function_322                 # -- Begin function FF_function_322
	.p2align	4, 0x90
	.type	FF_function_322,@function
FF_function_322:                        # @FF_function_322
	.cfi_startproc
# %bb.0:
	pushl	%ebp
	.cfi_def_cfa_offset 8
	.cfi_offset %ebp, -8
	movl	%esp, %ebp
	.cfi_def_cfa_register %ebp
	pushl	%esi
	subl	$116, %esp
	.cfi_offset %esi, -12
	movl	8(%ebp), %esi
	movl	20(%ebp), %eax
	flds	16(%ebp)
	movl	12(%ebp), %ecx
	movl	%ecx, -56(%ebp)
	fstps	-52(%ebp)
	movl	%eax, -48(%ebp)
	movl	$.L.str.28, (%esp)
	calll	printf@PLT
	leal	24(%ebp), %eax
	movl	%eax, -8(%ebp)
	movl	-8(%ebp), %eax
	movl	%eax, %ecx
	addl	$12, %ecx
	movl	%ecx, -8(%ebp)
	movl	8(%eax), %ecx
	movl	%ecx, 8(%esi)
	movl	(%eax), %ecx
	movl	4(%eax), %eax
	movl	%eax, 4(%esi)
	movl	%ecx, (%esi)
	movl	$0, -40(%ebp)
	movl	$1056964608, -36(%ebp)          # imm = 0x3F000000
	movl	$0, -32(%ebp)
	movl	-40(%ebp), %eax
	flds	-36(%ebp)
	movl	-32(%ebp), %ecx
	movl	%ecx, 12(%esp)
	fstps	8(%esp)
	movl	%eax, 4(%esp)
	leal	-88(%ebp), %eax
	movl	%eax, (%esp)
	movl	$1, 16(%esp)
	calll	FF_function_322
	subl	$4, %esp
	movl	$0, -24(%ebp)
	movl	$1056964608, -20(%ebp)          # imm = 0x3F000000
	movl	$0, -16(%ebp)
	movl	-24(%ebp), %eax
	flds	-20(%ebp)
	movl	-16(%ebp), %ecx
	movl	%ecx, 12(%esp)
	fstps	8(%esp)
	movl	%eax, 4(%esp)
	leal	-72(%ebp), %eax
	movl	%eax, (%esp)
	movl	$3, 24(%esp)
	movl	$2, 20(%esp)
	movl	$1, 16(%esp)
	calll	FF_function_322
	subl	$4, %esp
	movl	$.L.str.29, (%esp)
	calll	printf@PLT
	movl	%esi, %eax
	addl	$116, %esp
	popl	%esi
	popl	%ebp
	.cfi_def_cfa %esp, 4
	retl	$4
.Lfunc_end15:
	.size	FF_function_322, .Lfunc_end15-FF_function_322
	.cfi_endproc
                                        # -- End function
	.globl	FF_function_330                 # -- Begin function FF_function_330
	.p2align	4, 0x90
	.type	FF_function_330,@function
FF_function_330:                        # @FF_function_330
	.cfi_startproc
# %bb.0:
	pushl	%ebp
	.cfi_def_cfa_offset 8
	.cfi_offset %ebp, -8
	movl	%esp, %ebp
	.cfi_def_cfa_register %ebp
	pushl	%esi
	subl	$68, %esp
	.cfi_offset %esi, -12
	movl	8(%ebp), %esi
	movw	12(%ebp), %ax
	movl	$.L.str.30, (%esp)
	calll	printf@PLT
	leal	16(%ebp), %eax
	movl	%eax, -8(%ebp)
	movl	-8(%ebp), %eax
	movl	%eax, %ecx
	addl	$12, %ecx
	movl	%ecx, -8(%ebp)
	movl	8(%eax), %ecx
	movl	%ecx, 8(%esi)
	movl	(%eax), %ecx
	movl	4(%eax), %eax
	movl	%eax, 4(%esi)
	movl	%ecx, (%esi)
	leal	-40(%ebp), %eax
	movl	%eax, (%esp)
	movl	$1, 8(%esp)
	movl	$0, 4(%esp)
	calll	FF_function_330
	subl	$4, %esp
	leal	-24(%ebp), %eax
	movl	%eax, (%esp)
	movl	$3, 16(%esp)
	movl	$2, 12(%esp)
	movl	$1, 8(%esp)
	movl	$0, 4(%esp)
	calll	FF_function_330
	subl	$4, %esp
	movl	$.L.str.31, (%esp)
	calll	printf@PLT
	movl	%esi, %eax
	addl	$68, %esp
	popl	%esi
	popl	%ebp
	.cfi_def_cfa %esp, 4
	retl	$4
.Lfunc_end16:
	.size	FF_function_330, .Lfunc_end16-FF_function_330
	.cfi_endproc
                                        # -- End function
	.globl	FF_function_333                 # -- Begin function FF_function_333
	.p2align	4, 0x90
	.type	FF_function_333,@function
FF_function_333:                        # @FF_function_333
	.cfi_startproc
# %bb.0:
	pushl	%ebp
	.cfi_def_cfa_offset 8
	.cfi_offset %ebp, -8
	movl	%esp, %ebp
	.cfi_def_cfa_register %ebp
	subl	$40, %esp
	movl	8(%ebp), %eax
	movl	12(%ebp), %eax
	movl	$.L.str.32, (%esp)
	calll	printf@PLT
	leal	16(%ebp), %eax
	movl	%eax, -4(%ebp)
	movl	-4(%ebp), %eax
	movl	%eax, %ecx
	addl	$4, %ecx
	movl	%ecx, -4(%ebp)
	movl	(%eax), %eax
	movl	%eax, -8(%ebp)
	movl	$1, 8(%esp)
	movl	$0, 4(%esp)
	movl	$0, (%esp)
	calll	FF_function_333
	movl	$3, 16(%esp)
	movl	$2, 12(%esp)
	movl	$1, 8(%esp)
	movl	$0, 4(%esp)
	movl	$0, (%esp)
	calll	FF_function_333
	movl	$.L.str.33, (%esp)
	calll	printf@PLT
	movl	-8(%ebp), %eax
	addl	$40, %esp
	popl	%ebp
	.cfi_def_cfa %esp, 4
	retl
.Lfunc_end17:
	.size	FF_function_333, .Lfunc_end17-FF_function_333
	.cfi_endproc
                                        # -- End function
	.globl	FF_function_337                 # -- Begin function FF_function_337
	.p2align	4, 0x90
	.type	FF_function_337,@function
FF_function_337:                        # @FF_function_337
	.cfi_startproc
# %bb.0:
	pushl	%ebp
	.cfi_def_cfa_offset 8
	.cfi_offset %ebp, -8
	movl	%esp, %ebp
	.cfi_def_cfa_register %ebp
	subl	$40, %esp
	movl	8(%ebp), %eax
	movl	$.L.str.34, (%esp)
	calll	printf@PLT
	leal	12(%ebp), %eax
	movl	%eax, -4(%ebp)
	movl	-4(%ebp), %eax
	movl	%eax, %ecx
	addl	$8, %ecx
	movl	%ecx, -4(%ebp)
	movl	(%eax), %ecx
	movl	4(%eax), %eax
	movl	%eax, -12(%ebp)
	movl	%ecx, -16(%ebp)
	movl	$1, 4(%esp)
	movl	$0, (%esp)
	calll	FF_function_337
	movl	$3, 12(%esp)
	movl	$2, 8(%esp)
	movl	$1, 4(%esp)
	movl	$0, (%esp)
	calll	FF_function_337
	movl	$.L.str.35, (%esp)
	calll	printf@PLT
	movl	-16(%ebp), %eax
	movl	-12(%ebp), %edx
	addl	$40, %esp
	popl	%ebp
	.cfi_def_cfa %esp, 4
	retl
.Lfunc_end18:
	.size	FF_function_337, .Lfunc_end18-FF_function_337
	.cfi_endproc
                                        # -- End function
	.globl	FF_function_341                 # -- Begin function FF_function_341
	.p2align	4, 0x90
	.type	FF_function_341,@function
FF_function_341:                        # @FF_function_341
	.cfi_startproc
# %bb.0:
	pushl	%ebp
	.cfi_def_cfa_offset 8
	.cfi_offset %ebp, -8
	movl	%esp, %ebp
	.cfi_def_cfa_register %ebp
	subl	$88, %esp
	movl	16(%ebp), %eax
	flds	12(%ebp)
	movl	8(%ebp), %ecx
	movl	%ecx, -56(%ebp)
	fstps	-52(%ebp)
	movl	%eax, -48(%ebp)
	movl	$.L.str.36, (%esp)
	calll	printf@PLT
	leal	20(%ebp), %eax
	movl	%eax, -8(%ebp)
	movl	-8(%ebp), %eax
	movl	%eax, %ecx
	addl	$4, %ecx
	movl	%ecx, -8(%ebp)
	movb	(%eax), %al
	movb	%al, -1(%ebp)
	movl	$0, -40(%ebp)
	movl	$1056964608, -36(%ebp)          # imm = 0x3F000000
	movl	$0, -32(%ebp)
	movl	-40(%ebp), %eax
	flds	-36(%ebp)
	movl	-32(%ebp), %ecx
	movl	%ecx, 8(%esp)
	fstps	4(%esp)
	movl	%eax, (%esp)
	movl	$1, 12(%esp)
	calll	FF_function_341
	movl	$0, -24(%ebp)
	movl	$1056964608, -20(%ebp)          # imm = 0x3F000000
	movl	$0, -16(%ebp)
	movl	-24(%ebp), %eax
	flds	-20(%ebp)
	movl	-16(%ebp), %ecx
	movl	%ecx, 8(%esp)
	fstps	4(%esp)
	movl	%eax, (%esp)
	movl	$3, 20(%esp)
	movl	$2, 16(%esp)
	movl	$1, 12(%esp)
	calll	FF_function_341
	movl	$.L.str.37, (%esp)
	calll	printf@PLT
	movb	-1(%ebp), %al
	addl	$88, %esp
	popl	%ebp
	.cfi_def_cfa %esp, 4
	retl
.Lfunc_end19:
	.size	FF_function_341, .Lfunc_end19-FF_function_341
	.cfi_endproc
                                        # -- End function
	.globl	FF_function_346                 # -- Begin function FF_function_346
	.p2align	4, 0x90
	.type	FF_function_346,@function
FF_function_346:                        # @FF_function_346
	.cfi_startproc
# %bb.0:
	pushl	%ebp
	.cfi_def_cfa_offset 8
	.cfi_offset %ebp, -8
	movl	%esp, %ebp
	.cfi_def_cfa_register %ebp
	subl	$72, %esp
	movl	16(%ebp), %eax
	flds	12(%ebp)
	movl	8(%ebp), %ecx
	movl	%ecx, -48(%ebp)
	fstps	-44(%ebp)
	movl	%eax, -40(%ebp)
	movl	$.L.str.38, (%esp)
	calll	printf@PLT
	leal	20(%ebp), %eax
	movl	%eax, -4(%ebp)
	movl	-4(%ebp), %eax
	movl	%eax, %ecx
	addl	$4, %ecx
	movl	%ecx, -4(%ebp)
	movl	(%eax), %eax
	movl	%eax, -36(%ebp)
	movl	$0, -32(%ebp)
	movl	$1056964608, -28(%ebp)          # imm = 0x3F000000
	movl	$0, -24(%ebp)
	movl	-32(%ebp), %eax
	flds	-28(%ebp)
	movl	-24(%ebp), %ecx
	movl	%ecx, 8(%esp)
	fstps	4(%esp)
	movl	%eax, (%esp)
	movl	$1, 12(%esp)
	calll	FF_function_346
	movl	$0, -16(%ebp)
	movl	$1056964608, -12(%ebp)          # imm = 0x3F000000
	movl	$0, -8(%ebp)
	movl	-16(%ebp), %eax
	flds	-12(%ebp)
	movl	-8(%ebp), %ecx
	movl	%ecx, 8(%esp)
	fstps	4(%esp)
	movl	%eax, (%esp)
	movl	$3, 20(%esp)
	movl	$2, 16(%esp)
	movl	$1, 12(%esp)
	calll	FF_function_346
	movl	$.L.str.39, (%esp)
	calll	printf@PLT
	movl	-36(%ebp), %eax
	addl	$72, %esp
	popl	%ebp
	.cfi_def_cfa %esp, 4
	retl
.Lfunc_end20:
	.size	FF_function_346, .Lfunc_end20-FF_function_346
	.cfi_endproc
                                        # -- End function
	.globl	FF_function_349                 # -- Begin function FF_function_349
	.p2align	4, 0x90
	.type	FF_function_349,@function
FF_function_349:                        # @FF_function_349
	.cfi_startproc
# %bb.0:
	pushl	%ebp
	.cfi_def_cfa_offset 8
	.cfi_offset %ebp, -8
	movl	%esp, %ebp
	.cfi_def_cfa_register %ebp
	subl	$72, %esp
	movl	16(%ebp), %eax
	flds	12(%ebp)
	movl	8(%ebp), %ecx
	movl	%ecx, -48(%ebp)
	fstps	-44(%ebp)
	movl	%eax, -40(%ebp)
	movl	$.L.str.40, (%esp)
	calll	printf@PLT
	leal	20(%ebp), %eax
	movl	%eax, -4(%ebp)
	movl	-4(%ebp), %eax
	movl	%eax, %ecx
	addl	$4, %ecx
	movl	%ecx, -4(%ebp)
	movl	(%eax), %eax
	movl	%eax, -36(%ebp)
	movl	$0, -32(%ebp)
	movl	$1056964608, -28(%ebp)          # imm = 0x3F000000
	movl	$0, -24(%ebp)
	movl	-32(%ebp), %eax
	flds	-28(%ebp)
	movl	-24(%ebp), %ecx
	movl	%ecx, 8(%esp)
	fstps	4(%esp)
	movl	%eax, (%esp)
	movl	$1, 12(%esp)
	calll	FF_function_349
	movl	$0, -16(%ebp)
	movl	$1056964608, -12(%ebp)          # imm = 0x3F000000
	movl	$0, -8(%ebp)
	movl	-16(%ebp), %eax
	flds	-12(%ebp)
	movl	-8(%ebp), %ecx
	movl	%ecx, 8(%esp)
	fstps	4(%esp)
	movl	%eax, (%esp)
	movl	$3, 20(%esp)
	movl	$2, 16(%esp)
	movl	$1, 12(%esp)
	calll	FF_function_349
	movl	$.L.str.41, (%esp)
	calll	printf@PLT
	movl	-36(%ebp), %eax
	addl	$72, %esp
	popl	%ebp
	.cfi_def_cfa %esp, 4
	retl
.Lfunc_end21:
	.size	FF_function_349, .Lfunc_end21-FF_function_349
	.cfi_endproc
                                        # -- End function
	.globl	FF_function_354                 # -- Begin function FF_function_354
	.p2align	4, 0x90
	.type	FF_function_354,@function
FF_function_354:                        # @FF_function_354
	.cfi_startproc
# %bb.0:
	pushl	%ebp
	.cfi_def_cfa_offset 8
	.cfi_offset %ebp, -8
	movl	%esp, %ebp
	.cfi_def_cfa_register %ebp
	pushl	%esi
	subl	$68, %esp
	.cfi_offset %esi, -12
	movl	8(%ebp), %esi
	movl	12(%ebp), %eax
	movl	16(%ebp), %ecx
	movl	%eax, -16(%ebp)
	movl	%ecx, -12(%ebp)
	movl	$.L.str.42, (%esp)
	calll	printf@PLT
	leal	20(%ebp), %eax
	movl	%eax, -8(%ebp)
	movl	-8(%ebp), %eax
	movl	%eax, %ecx
	addl	$12, %ecx
	movl	%ecx, -8(%ebp)
	movl	8(%eax), %ecx
	movl	%ecx, 8(%esi)
	movl	(%eax), %ecx
	movl	4(%eax), %eax
	movl	%eax, 4(%esi)
	movl	%ecx, (%esi)
	leal	-48(%ebp), %eax
	movl	%eax, (%esp)
	movl	$1, 12(%esp)
	movl	$0, 8(%esp)
	movl	$0, 4(%esp)
	calll	FF_function_354
	subl	$4, %esp
	leal	-32(%ebp), %eax
	movl	%eax, (%esp)
	movl	$3, 20(%esp)
	movl	$2, 16(%esp)
	movl	$1, 12(%esp)
	movl	$0, 8(%esp)
	movl	$0, 4(%esp)
	calll	FF_function_354
	subl	$4, %esp
	movl	$.L.str.43, (%esp)
	calll	printf@PLT
	movl	%esi, %eax
	addl	$68, %esp
	popl	%esi
	popl	%ebp
	.cfi_def_cfa %esp, 4
	retl	$4
.Lfunc_end22:
	.size	FF_function_354, .Lfunc_end22-FF_function_354
	.cfi_endproc
                                        # -- End function
	.globl	FF_function_359                 # -- Begin function FF_function_359
	.p2align	4, 0x90
	.type	FF_function_359,@function
FF_function_359:                        # @FF_function_359
	.cfi_startproc
# %bb.0:
	pushl	%ebp
	.cfi_def_cfa_offset 8
	.cfi_offset %ebp, -8
	movl	%esp, %ebp
	.cfi_def_cfa_register %ebp
	subl	$88, %esp
	movl	16(%ebp), %eax
	flds	12(%ebp)
	movl	8(%ebp), %ecx
	movl	%ecx, -56(%ebp)
	fstps	-52(%ebp)
	movl	%eax, -48(%ebp)
	movl	$.L.str.44, (%esp)
	calll	printf@PLT
	leal	20(%ebp), %eax
	movl	%eax, -8(%ebp)
	movl	-8(%ebp), %eax
	movl	%eax, %ecx
	addl	$4, %ecx
	movl	%ecx, -8(%ebp)
	movw	(%eax), %ax
	movw	%ax, -2(%ebp)
	movl	$0, -40(%ebp)
	movl	$1056964608, -36(%ebp)          # imm = 0x3F000000
	movl	$0, -32(%ebp)
	movl	-40(%ebp), %eax
	flds	-36(%ebp)
	movl	-32(%ebp), %ecx
	movl	%ecx, 8(%esp)
	fstps	4(%esp)
	movl	%eax, (%esp)
	movl	$1, 12(%esp)
	calll	FF_function_359
	movl	$0, -24(%ebp)
	movl	$1056964608, -20(%ebp)          # imm = 0x3F000000
	movl	$0, -16(%ebp)
	movl	-24(%ebp), %eax
	flds	-20(%ebp)
	movl	-16(%ebp), %ecx
	movl	%ecx, 8(%esp)
	fstps	4(%esp)
	movl	%eax, (%esp)
	movl	$3, 20(%esp)
	movl	$2, 16(%esp)
	movl	$1, 12(%esp)
	calll	FF_function_359
	movl	$.L.str.45, (%esp)
	calll	printf@PLT
	movw	-2(%ebp), %ax
	addl	$88, %esp
	popl	%ebp
	.cfi_def_cfa %esp, 4
	retl
.Lfunc_end23:
	.size	FF_function_359, .Lfunc_end23-FF_function_359
	.cfi_endproc
                                        # -- End function
	.globl	FF_function_360                 # -- Begin function FF_function_360
	.p2align	4, 0x90
	.type	FF_function_360,@function
FF_function_360:                        # @FF_function_360
	.cfi_startproc
# %bb.0:
	pushl	%ebp
	.cfi_def_cfa_offset 8
	.cfi_offset %ebp, -8
	movl	%esp, %ebp
	.cfi_def_cfa_register %ebp
	pushl	%esi
	subl	$68, %esp
	.cfi_offset %esi, -12
	movl	8(%ebp), %esi
	movl	16(%ebp), %eax
	movl	20(%ebp), %eax
	movw	12(%ebp), %ax
	movl	$.L.str.46, (%esp)
	calll	printf@PLT
	movl	$0, -56(%ebp)
	calll	rand@PLT
	cmpl	$1, %eax
	jge	.LBB24_2
# %bb.1:
	movl	$0, (%esi)
	jmp	.LBB24_11
.LBB24_2:
	movl	$0, -48(%ebp)
	movl	$1056964608, -44(%ebp)          # imm = 0x3F000000
	movl	$0, -40(%ebp)
	calll	rand@PLT
	cmpl	$1, %eax
	jge	.LBB24_4
# %bb.3:
	movl	$0, (%esi)
	jmp	.LBB24_11
.LBB24_4:
	movl	$0, -32(%ebp)
	calll	rand@PLT
	cmpl	$1, %eax
	jge	.LBB24_6
# %bb.5:
	movl	$0, (%esi)
	jmp	.LBB24_11
.LBB24_6:
	calll	rand@PLT
	cmpl	$1, %eax
	jge	.LBB24_8
# %bb.7:
	movl	$0, (%esi)
	jmp	.LBB24_11
.LBB24_8:
	movl	$0, -24(%ebp)
	movl	$1056964608, -20(%ebp)          # imm = 0x3F000000
	movl	$0, -16(%ebp)
	calll	rand@PLT
	cmpl	$1, %eax
	jge	.LBB24_10
# %bb.9:
	movl	$0, (%esi)
	jmp	.LBB24_11
.LBB24_10:
	leal	-8(%ebp), %eax
	xorl	%ecx, %ecx
	movl	%eax, (%esp)
	movl	$0, 4(%esp)
	movl	$4, 8(%esp)
	calll	memset@PLT
	leal	.L.str.47, %eax
	movl	%eax, (%esp)
	calll	printf@PLT
	movl	-8(%ebp), %eax
	movl	%eax, (%esi)
.LBB24_11:
	movl	%esi, %eax
	addl	$68, %esp
	popl	%esi
	popl	%ebp
	.cfi_def_cfa %esp, 4
	retl	$4
.Lfunc_end24:
	.size	FF_function_360, .Lfunc_end24-FF_function_360
	.cfi_endproc
                                        # -- End function
	.globl	FF_function_361                 # -- Begin function FF_function_361
	.p2align	4, 0x90
	.type	FF_function_361,@function
FF_function_361:                        # @FF_function_361
	.cfi_startproc
# %bb.0:
	pushl	%ebp
	.cfi_def_cfa_offset 8
	.cfi_offset %ebp, -8
	movl	%esp, %ebp
	.cfi_def_cfa_register %ebp
	subl	$8, %esp
	movl	8(%ebp), %eax
	leal	.L.str.48, %eax
	movl	%eax, (%esp)
	calll	printf@PLT
	xorl	%eax, %eax
	movzwl	%ax, %eax
	addl	$8, %esp
	popl	%ebp
	.cfi_def_cfa %esp, 4
	retl
.Lfunc_end25:
	.size	FF_function_361, .Lfunc_end25-FF_function_361
	.cfi_endproc
                                        # -- End function
	.globl	FF_function_362                 # -- Begin function FF_function_362
	.p2align	4, 0x90
	.type	FF_function_362,@function
FF_function_362:                        # @FF_function_362
	.cfi_startproc
# %bb.0:
	pushl	%ebp
	.cfi_def_cfa_offset 8
	.cfi_offset %ebp, -8
	movl	%esp, %ebp
	.cfi_def_cfa_register %ebp
	pushl	%esi
	subl	$36, %esp
	.cfi_offset %esi, -12
	movl	8(%ebp), %esi
	movl	$.L.str.49, (%esp)
	calll	printf@PLT
	movl	$0, -16(%ebp)
	movl	$1056964608, -12(%ebp)          # imm = 0x3F000000
	movl	$0, -8(%ebp)
	movw	$0, (%esi)
	movl	%esi, %eax
	addl	$36, %esp
	popl	%esi
	popl	%ebp
	.cfi_def_cfa %esp, 4
	retl	$4
.Lfunc_end26:
	.size	FF_function_362, .Lfunc_end26-FF_function_362
	.cfi_endproc
                                        # -- End function
	.globl	FF_function_364                 # -- Begin function FF_function_364
	.p2align	4, 0x90
	.type	FF_function_364,@function
FF_function_364:                        # @FF_function_364
	.cfi_startproc
# %bb.0:
	pushl	%ebp
	.cfi_def_cfa_offset 8
	.cfi_offset %ebp, -8
	movl	%esp, %ebp
	.cfi_def_cfa_register %ebp
	subl	$8, %esp
	leal	.L.str.50, %eax
	movl	%eax, (%esp)
	calll	printf@PLT
	movw	$0, -2(%ebp)
	leal	.L.str.51, %eax
	movl	%eax, (%esp)
	calll	printf@PLT
	movzwl	-2(%ebp), %eax
	addl	$8, %esp
	popl	%ebp
	.cfi_def_cfa %esp, 4
	retl
.Lfunc_end27:
	.size	FF_function_364, .Lfunc_end27-FF_function_364
	.cfi_endproc
                                        # -- End function
	.globl	FF_function_363                 # -- Begin function FF_function_363
	.p2align	4, 0x90
	.type	FF_function_363,@function
FF_function_363:                        # @FF_function_363
	.cfi_startproc
# %bb.0:
	pushl	%ebp
	.cfi_def_cfa_offset 8
	.cfi_offset %ebp, -8
	movl	%esp, %ebp
	.cfi_def_cfa_register %ebp
	subl	$8, %esp
	leal	.L.str.52, %eax
	movl	%eax, (%esp)
	calll	printf@PLT
	calll	FF_function_364
	movw	%ax, -2(%ebp)
	leal	.L.str.53, %eax
	movl	%eax, (%esp)
	calll	printf@PLT
	movzwl	-2(%ebp), %eax
	addl	$8, %esp
	popl	%ebp
	.cfi_def_cfa %esp, 4
	retl
.Lfunc_end28:
	.size	FF_function_363, .Lfunc_end28-FF_function_363
	.cfi_endproc
                                        # -- End function
	.globl	FF_function_357                 # -- Begin function FF_function_357
	.p2align	4, 0x90
	.type	FF_function_357,@function
FF_function_357:                        # @FF_function_357
	.cfi_startproc
# %bb.0:
	pushl	%ebp
	.cfi_def_cfa_offset 8
	.cfi_offset %ebp, -8
	movl	%esp, %ebp
	.cfi_def_cfa_register %ebp
	subl	$56, %esp
	movb	8(%ebp), %al
	movl	$.L.str.54, (%esp)
	calll	printf@PLT
	movl	$0, -16(%ebp)
	movl	$1056964608, -12(%ebp)          # imm = 0x3F000000
	movl	$0, -8(%ebp)
	movl	-16(%ebp), %eax
	flds	-12(%ebp)
	movl	-8(%ebp), %ecx
	movl	%ecx, 8(%esp)
	fstps	4(%esp)
	movl	%eax, (%esp)
	movl	$0, 20(%esp)
	movl	$0, 16(%esp)
	movl	$0, 12(%esp)
	calll	FF_function_359
	calll	rand@PLT
	cmpl	$1, %eax
	jge	.LBB29_2
# %bb.1:
	movw	$0, -2(%ebp)
	jmp	.LBB29_3
.LBB29_2:
	xorl	%eax, %eax
	leal	-24(%ebp), %eax
	movl	%eax, (%esp)
	movl	$0, 12(%esp)
	movl	$0, 8(%esp)
	movl	$0, 4(%esp)
	calll	FF_function_360
	subl	$4, %esp
	movw	$0, -2(%ebp)
.LBB29_3:
	movzwl	-2(%ebp), %eax
	addl	$56, %esp
	popl	%ebp
	.cfi_def_cfa %esp, 4
	retl
.Lfunc_end29:
	.size	FF_function_357, .Lfunc_end29-FF_function_357
	.cfi_endproc
                                        # -- End function
	.globl	FF_function_366                 # -- Begin function FF_function_366
	.p2align	4, 0x90
	.type	FF_function_366,@function
FF_function_366:                        # @FF_function_366
	.cfi_startproc
# %bb.0:
	pushl	%ebp
	.cfi_def_cfa_offset 8
	.cfi_offset %ebp, -8
	movl	%esp, %ebp
	.cfi_def_cfa_register %ebp
	subl	$24, %esp
	movl	$.L.str.55, (%esp)
	calll	printf@PLT
	movl	$0, -8(%ebp)
	movb	$0, -1(%ebp)
	leal	.L.str.56, %eax
	movl	%eax, (%esp)
	calll	printf@PLT
	movzbl	-1(%ebp), %eax
	addl	$24, %esp
	popl	%ebp
	.cfi_def_cfa %esp, 4
	retl
.Lfunc_end30:
	.size	FF_function_366, .Lfunc_end30-FF_function_366
	.cfi_endproc
                                        # -- End function
	.globl	FF_function_365                 # -- Begin function FF_function_365
	.p2align	4, 0x90
	.type	FF_function_365,@function
FF_function_365:                        # @FF_function_365
	.cfi_startproc
# %bb.0:
	pushl	%ebp
	.cfi_def_cfa_offset 8
	.cfi_offset %ebp, -8
	movl	%esp, %ebp
	.cfi_def_cfa_register %ebp
	subl	$8, %esp
	leal	.L.str.57, %eax
	movl	%eax, (%esp)
	calll	printf@PLT
	calll	FF_function_366
	movb	%al, -1(%ebp)
	leal	.L.str.58, %eax
	movl	%eax, (%esp)
	calll	printf@PLT
	movzbl	-1(%ebp), %eax
	addl	$8, %esp
	popl	%ebp
	.cfi_def_cfa %esp, 4
	retl
.Lfunc_end31:
	.size	FF_function_365, .Lfunc_end31-FF_function_365
	.cfi_endproc
                                        # -- End function
	.globl	FF_function_369                 # -- Begin function FF_function_369
	.p2align	4, 0x90
	.type	FF_function_369,@function
FF_function_369:                        # @FF_function_369
	.cfi_startproc
# %bb.0:
	pushl	%ebp
	.cfi_def_cfa_offset 8
	.cfi_offset %ebp, -8
	movl	%esp, %ebp
	.cfi_def_cfa_register %ebp
	pushl	%esi
	subl	$36, %esp
	.cfi_offset %esi, -12
	movl	8(%ebp), %esi
	movl	$.L.str.59, (%esp)
	calll	printf@PLT
	movl	$0, -16(%ebp)
	movl	$1056964608, -12(%ebp)          # imm = 0x3F000000
	movl	$0, -8(%ebp)
	movl	$0, (%esi)
	movl	%esi, %eax
	addl	$36, %esp
	popl	%esi
	popl	%ebp
	.cfi_def_cfa %esp, 4
	retl	$4
.Lfunc_end32:
	.size	FF_function_369, .Lfunc_end32-FF_function_369
	.cfi_endproc
                                        # -- End function
	.globl	FF_function_368                 # -- Begin function FF_function_368
	.p2align	4, 0x90
	.type	FF_function_368,@function
FF_function_368:                        # @FF_function_368
	.cfi_startproc
# %bb.0:
	pushl	%ebp
	.cfi_def_cfa_offset 8
	.cfi_offset %ebp, -8
	movl	%esp, %ebp
	.cfi_def_cfa_register %ebp
	pushl	%esi
	pushl	%eax
	.cfi_offset %esi, -12
	movl	8(%ebp), %esi
	leal	.L.str.60, %eax
	movl	%eax, (%esp)
	calll	printf@PLT
	movl	%esi, (%esp)
	calll	FF_function_369
	subl	$4, %esp
	leal	.L.str.61, %eax
	movl	%eax, (%esp)
	calll	printf@PLT
	movl	%esi, %eax
	addl	$4, %esp
	popl	%esi
	popl	%ebp
	.cfi_def_cfa %esp, 4
	retl	$4
.Lfunc_end33:
	.size	FF_function_368, .Lfunc_end33-FF_function_368
	.cfi_endproc
                                        # -- End function
	.globl	FF_function_371                 # -- Begin function FF_function_371
	.p2align	4, 0x90
	.type	FF_function_371,@function
FF_function_371:                        # @FF_function_371
	.cfi_startproc
# %bb.0:
	pushl	%ebp
	.cfi_def_cfa_offset 8
	.cfi_offset %ebp, -8
	movl	%esp, %ebp
	.cfi_def_cfa_register %ebp
	subl	$8, %esp
	leal	.L.str.62, %eax
	movl	%eax, (%esp)
	calll	printf@PLT
	movb	$0, -1(%ebp)
	leal	.L.str.63, %eax
	movl	%eax, (%esp)
	calll	printf@PLT
	movsbl	-1(%ebp), %eax
	addl	$8, %esp
	popl	%ebp
	.cfi_def_cfa %esp, 4
	retl
.Lfunc_end34:
	.size	FF_function_371, .Lfunc_end34-FF_function_371
	.cfi_endproc
                                        # -- End function
	.globl	FF_function_372                 # -- Begin function FF_function_372
	.p2align	4, 0x90
	.type	FF_function_372,@function
FF_function_372:                        # @FF_function_372
	.cfi_startproc
# %bb.0:
	pushl	%ebp
	.cfi_def_cfa_offset 8
	.cfi_offset %ebp, -8
	movl	%esp, %ebp
	.cfi_def_cfa_register %ebp
	pushl	%esi
	subl	$20, %esp
	.cfi_offset %esi, -12
	movl	8(%ebp), %esi
	movl	$.L.str.64, (%esp)
	calll	printf@PLT
	movl	$0, (%esi)
	movl	%esi, %eax
	addl	$20, %esp
	popl	%esi
	popl	%ebp
	.cfi_def_cfa %esp, 4
	retl	$4
.Lfunc_end35:
	.size	FF_function_372, .Lfunc_end35-FF_function_372
	.cfi_endproc
                                        # -- End function
	.globl	FF_function_370                 # -- Begin function FF_function_370
	.p2align	4, 0x90
	.type	FF_function_370,@function
FF_function_370:                        # @FF_function_370
	.cfi_startproc
# %bb.0:
	pushl	%ebp
	.cfi_def_cfa_offset 8
	.cfi_offset %ebp, -8
	movl	%esp, %ebp
	.cfi_def_cfa_register %ebp
	pushl	%esi
	pushl	%eax
	.cfi_offset %esi, -12
	movl	8(%ebp), %esi
	leal	.L.str.65, %eax
	movl	%eax, (%esp)
	calll	printf@PLT
	calll	FF_function_371
	movl	%esi, (%esp)
	calll	FF_function_372
	subl	$4, %esp
	leal	.L.str.66, %eax
	movl	%eax, (%esp)
	calll	printf@PLT
	movl	%esi, %eax
	addl	$4, %esp
	popl	%esi
	popl	%ebp
	.cfi_def_cfa %esp, 4
	retl	$4
.Lfunc_end36:
	.size	FF_function_370, .Lfunc_end36-FF_function_370
	.cfi_endproc
                                        # -- End function
	.globl	FF_function_367                 # -- Begin function FF_function_367
	.p2align	4, 0x90
	.type	FF_function_367,@function
FF_function_367:                        # @FF_function_367
	.cfi_startproc
# %bb.0:
	pushl	%ebp
	.cfi_def_cfa_offset 8
	.cfi_offset %ebp, -8
	movl	%esp, %ebp
	.cfi_def_cfa_register %ebp
	pushl	%esi
	subl	$20, %esp
	.cfi_offset %esi, -12
	movl	8(%ebp), %esi
	leal	.L.str.67, %eax
	movl	%eax, (%esp)
	calll	printf@PLT
	leal	-8(%ebp), %eax
	movl	%eax, (%esp)
	calll	FF_function_368
	subl	$4, %esp
	movl	%esi, (%esp)
	calll	FF_function_370
	subl	$4, %esp
	leal	.L.str.68, %eax
	movl	%eax, (%esp)
	calll	printf@PLT
	movl	%esi, %eax
	addl	$20, %esp
	popl	%esi
	popl	%ebp
	.cfi_def_cfa %esp, 4
	retl	$4
.Lfunc_end37:
	.size	FF_function_367, .Lfunc_end37-FF_function_367
	.cfi_endproc
                                        # -- End function
	.globl	FF_function_356                 # -- Begin function FF_function_356
	.p2align	4, 0x90
	.type	FF_function_356,@function
FF_function_356:                        # @FF_function_356
	.cfi_startproc
# %bb.0:
	pushl	%ebp
	.cfi_def_cfa_offset 8
	.cfi_offset %ebp, -8
	movl	%esp, %ebp
	.cfi_def_cfa_register %ebp
	pushl	%esi
	subl	$20, %esp
	.cfi_offset %esi, -12
	movl	8(%ebp), %esi
	movl	28(%ebp), %eax
	movl	32(%ebp), %ecx
	movw	52(%ebp), %dx
	movl	48(%ebp), %edx
	movw	44(%ebp), %dx
	movb	40(%ebp), %dl
	movl	36(%ebp), %edx
	movb	24(%ebp), %dl
	movb	20(%ebp), %dl
	flds	16(%ebp)
	fstp	%st(0)
	movw	12(%ebp), %dx
	movl	%eax, -16(%ebp)
	movl	%ecx, -12(%ebp)
	leal	.L.str.69, %eax
	movl	%eax, (%esp)
	calll	printf@PLT
	calll	FF_function_365
	movzbl	%al, %eax
	movl	%eax, (%esp)
	calll	FF_function_357
	movl	%esi, (%esp)
	calll	FF_function_367
	subl	$4, %esp
	leal	.L.str.70, %eax
	movl	%eax, (%esp)
	calll	printf@PLT
	movl	%esi, %eax
	addl	$20, %esp
	popl	%esi
	popl	%ebp
	.cfi_def_cfa %esp, 4
	retl	$4
.Lfunc_end38:
	.size	FF_function_356, .Lfunc_end38-FF_function_356
	.cfi_endproc
                                        # -- End function
	.globl	FF_function_375                 # -- Begin function FF_function_375
	.p2align	4, 0x90
	.type	FF_function_375,@function
FF_function_375:                        # @FF_function_375
	.cfi_startproc
# %bb.0:
	pushl	%ebp
	.cfi_def_cfa_offset 8
	.cfi_offset %ebp, -8
	movl	%esp, %ebp
	.cfi_def_cfa_register %ebp
	subl	$24, %esp
	movl	$.L.str.71, (%esp)
	calll	printf@PLT
	movl	$0, -16(%ebp)
	movl	$0, -4(%ebp)
	movl	$0, -8(%ebp)
	movl	$.L.str.72, (%esp)
	calll	printf@PLT
	movl	-8(%ebp), %eax
	movl	-4(%ebp), %edx
	addl	$24, %esp
	popl	%ebp
	.cfi_def_cfa %esp, 4
	retl
.Lfunc_end39:
	.size	FF_function_375, .Lfunc_end39-FF_function_375
	.cfi_endproc
                                        # -- End function
	.globl	FF_function_374                 # -- Begin function FF_function_374
	.p2align	4, 0x90
	.type	FF_function_374,@function
FF_function_374:                        # @FF_function_374
	.cfi_startproc
# %bb.0:
	pushl	%ebp
	.cfi_def_cfa_offset 8
	.cfi_offset %ebp, -8
	movl	%esp, %ebp
	.cfi_def_cfa_register %ebp
	subl	$40, %esp
	movl	$.L.str.73, (%esp)
	calll	printf@PLT
	movl	$0, -24(%ebp)
	movl	$1056964608, -20(%ebp)          # imm = 0x3F000000
	movl	$0, -16(%ebp)
	calll	FF_function_375
	movl	%edx, -4(%ebp)
	movl	%eax, -8(%ebp)
	movl	$.L.str.74, (%esp)
	calll	printf@PLT
	movl	-8(%ebp), %eax
	movl	-4(%ebp), %edx
	addl	$40, %esp
	popl	%ebp
	.cfi_def_cfa %esp, 4
	retl
.Lfunc_end40:
	.size	FF_function_374, .Lfunc_end40-FF_function_374
	.cfi_endproc
                                        # -- End function
	.globl	FF_function_377                 # -- Begin function FF_function_377
	.p2align	4, 0x90
	.type	FF_function_377,@function
FF_function_377:                        # @FF_function_377
	.cfi_startproc
# %bb.0:
	pushl	%ebp
	.cfi_def_cfa_offset 8
	.cfi_offset %ebp, -8
	movl	%esp, %ebp
	.cfi_def_cfa_register %ebp
	pushl	%esi
	subl	$20, %esp
	.cfi_offset %esi, -12
	movl	8(%ebp), %esi
	leal	.L.str.75, %eax
	movl	%eax, (%esp)
	calll	printf@PLT
	xorl	%eax, %eax
	movl	%esi, (%esp)
	movl	$0, 4(%esp)
	movl	$2, 8(%esp)
	calll	memset@PLT
	leal	.L.str.76, %eax
	movl	%eax, (%esp)
	calll	printf@PLT
	movl	%esi, %eax
	addl	$20, %esp
	popl	%esi
	popl	%ebp
	.cfi_def_cfa %esp, 4
	retl	$4
.Lfunc_end41:
	.size	FF_function_377, .Lfunc_end41-FF_function_377
	.cfi_endproc
                                        # -- End function
	.globl	FF_function_378                 # -- Begin function FF_function_378
	.p2align	4, 0x90
	.type	FF_function_378,@function
FF_function_378:                        # @FF_function_378
	.cfi_startproc
# %bb.0:
	pushl	%ebp
	.cfi_def_cfa_offset 8
	.cfi_offset %ebp, -8
	movl	%esp, %ebp
	.cfi_def_cfa_register %ebp
	subl	$24, %esp
	movl	$.L.str.77, (%esp)
	calll	printf@PLT
	movl	$0, -16(%ebp)
	movl	$1056964608, -12(%ebp)          # imm = 0x3F000000
	movl	$0, -8(%ebp)
	movw	$0, -2(%ebp)
	leal	.L.str.78, %eax
	movl	%eax, (%esp)
	calll	printf@PLT
	movswl	-2(%ebp), %eax
	addl	$24, %esp
	popl	%ebp
	.cfi_def_cfa %esp, 4
	retl
.Lfunc_end42:
	.size	FF_function_378, .Lfunc_end42-FF_function_378
	.cfi_endproc
                                        # -- End function
	.globl	FF_function_376                 # -- Begin function FF_function_376
	.p2align	4, 0x90
	.type	FF_function_376,@function
FF_function_376:                        # @FF_function_376
	.cfi_startproc
# %bb.0:
	pushl	%ebp
	.cfi_def_cfa_offset 8
	.cfi_offset %ebp, -8
	movl	%esp, %ebp
	.cfi_def_cfa_register %ebp
	subl	$24, %esp
	leal	.L.str.79, %eax
	movl	%eax, (%esp)
	calll	printf@PLT
	leal	-8(%ebp), %eax
	movl	%eax, (%esp)
	calll	FF_function_377
	subl	$4, %esp
	calll	FF_function_378
	movw	%ax, -2(%ebp)
	leal	.L.str.80, %eax
	movl	%eax, (%esp)
	calll	printf@PLT
	movswl	-2(%ebp), %eax
	addl	$24, %esp
	popl	%ebp
	.cfi_def_cfa %esp, 4
	retl
.Lfunc_end43:
	.size	FF_function_376, .Lfunc_end43-FF_function_376
	.cfi_endproc
                                        # -- End function
	.globl	FF_function_373                 # -- Begin function FF_function_373
	.p2align	4, 0x90
	.type	FF_function_373,@function
FF_function_373:                        # @FF_function_373
	.cfi_startproc
# %bb.0:
	pushl	%ebp
	.cfi_def_cfa_offset 8
	.cfi_offset %ebp, -8
	movl	%esp, %ebp
	.cfi_def_cfa_register %ebp
	subl	$8, %esp
	leal	.L.str.81, %eax
	movl	%eax, (%esp)
	calll	printf@PLT
	calll	FF_function_374
	calll	FF_function_376
	movw	%ax, -2(%ebp)
	leal	.L.str.82, %eax
	movl	%eax, (%esp)
	calll	printf@PLT
	movswl	-2(%ebp), %eax
	addl	$8, %esp
	popl	%ebp
	.cfi_def_cfa %esp, 4
	retl
.Lfunc_end44:
	.size	FF_function_373, .Lfunc_end44-FF_function_373
	.cfi_endproc
                                        # -- End function
	.globl	FF_function_381                 # -- Begin function FF_function_381
	.p2align	4, 0x90
	.type	FF_function_381,@function
FF_function_381:                        # @FF_function_381
	.cfi_startproc
# %bb.0:
	pushl	%ebp
	.cfi_def_cfa_offset 8
	.cfi_offset %ebp, -8
	movl	%esp, %ebp
	.cfi_def_cfa_register %ebp
	subl	$24, %esp
	leal	.L.str.83, %eax
	movl	%eax, (%esp)
	calll	printf@PLT
	calll	rand@PLT
	cmpl	$1, %eax
	jge	.LBB45_2
# %bb.1:
	movl	$0, -12(%ebp)
	jmp	.LBB45_3
.LBB45_2:
	movb	$0, -8(%ebp)
	movl	$0, -16(%ebp)
	movl	$.L.str.84, (%esp)
	calll	printf@PLT
	flds	-16(%ebp)
	fstps	-12(%ebp)
.LBB45_3:
	flds	-12(%ebp)
	addl	$24, %esp
	popl	%ebp
	.cfi_def_cfa %esp, 4
	retl
.Lfunc_end45:
	.size	FF_function_381, .Lfunc_end45-FF_function_381
	.cfi_endproc
                                        # -- End function
	.globl	FF_function_380                 # -- Begin function FF_function_380
	.p2align	4, 0x90
	.type	FF_function_380,@function
FF_function_380:                        # @FF_function_380
	.cfi_startproc
# %bb.0:
	pushl	%ebp
	.cfi_def_cfa_offset 8
	.cfi_offset %ebp, -8
	movl	%esp, %ebp
	.cfi_def_cfa_register %ebp
	subl	$24, %esp
	movl	44(%ebp), %eax
	movl	48(%ebp), %ecx
	movl	32(%ebp), %edx
	movl	36(%ebp), %edx
	fldl	56(%ebp)
	fstp	%st(0)
	movb	52(%ebp), %dl
	movb	40(%ebp), %dl
	movl	28(%ebp), %edx
	flds	24(%ebp)
	fstp	%st(0)
	movb	20(%ebp), %dl
	movb	16(%ebp), %dl
	flds	12(%ebp)
	fstp	%st(0)
	movb	8(%ebp), %dl
	movl	%eax, -16(%ebp)
	movl	%ecx, -12(%ebp)
	movl	$.L.str.85, (%esp)
	calll	printf@PLT
	calll	FF_function_381
	fstps	-4(%ebp)
	movl	$.L.str.86, (%esp)
	calll	printf@PLT
	flds	-4(%ebp)
	addl	$24, %esp
	popl	%ebp
	.cfi_def_cfa %esp, 4
	retl
.Lfunc_end46:
	.size	FF_function_380, .Lfunc_end46-FF_function_380
	.cfi_endproc
                                        # -- End function
	.globl	FF_function_382                 # -- Begin function FF_function_382
	.p2align	4, 0x90
	.type	FF_function_382,@function
FF_function_382:                        # @FF_function_382
	.cfi_startproc
# %bb.0:
	pushl	%ebp
	.cfi_def_cfa_offset 8
	.cfi_offset %ebp, -8
	movl	%esp, %ebp
	.cfi_def_cfa_register %ebp
	subl	$24, %esp
	movl	8(%ebp), %eax
	movl	12(%ebp), %eax
	movb	16(%ebp), %al
	movl	$.L.str.87, (%esp)
	calll	printf@PLT
	movl	$0, -16(%ebp)
	movl	$1056964608, -12(%ebp)          # imm = 0x3F000000
	movl	$0, -8(%ebp)
	xorl	%eax, %eax
	movzbl	%al, %eax
	addl	$24, %esp
	popl	%ebp
	.cfi_def_cfa %esp, 4
	retl
.Lfunc_end47:
	.size	FF_function_382, .Lfunc_end47-FF_function_382
	.cfi_endproc
                                        # -- End function
	.globl	FF_function_383                 # -- Begin function FF_function_383
	.p2align	4, 0x90
	.type	FF_function_383,@function
FF_function_383:                        # @FF_function_383
	.cfi_startproc
# %bb.0:
	pushl	%ebp
	.cfi_def_cfa_offset 8
	.cfi_offset %ebp, -8
	movl	%esp, %ebp
	.cfi_def_cfa_register %ebp
	subl	$24, %esp
	movb	8(%ebp), %al
	movl	$.L.str.88, (%esp)
	calll	printf@PLT
	movl	$0, -12(%ebp)
	movl	$0, -16(%ebp)
	movl	$0, -4(%ebp)
	movl	$.L.str.89, (%esp)
	calll	printf@PLT
	flds	-4(%ebp)
	addl	$24, %esp
	popl	%ebp
	.cfi_def_cfa %esp, 4
	retl
.Lfunc_end48:
	.size	FF_function_383, .Lfunc_end48-FF_function_383
	.cfi_endproc
                                        # -- End function
	.globl	FF_function_385                 # -- Begin function FF_function_385
	.p2align	4, 0x90
	.type	FF_function_385,@function
FF_function_385:                        # @FF_function_385
	.cfi_startproc
# %bb.0:
	pushl	%ebp
	.cfi_def_cfa_offset 8
	.cfi_offset %ebp, -8
	movl	%esp, %ebp
	.cfi_def_cfa_register %ebp
	subl	$88, %esp
	movl	16(%ebp), %eax
	flds	12(%ebp)
	movl	8(%ebp), %ecx
	movl	%ecx, -56(%ebp)
	fstps	-52(%ebp)
	movl	%eax, -48(%ebp)
	movl	$.L.str.90, (%esp)
	calll	printf@PLT
	leal	20(%ebp), %eax
	movl	%eax, -8(%ebp)
	movl	-8(%ebp), %eax
	movl	%eax, %ecx
	addl	$4, %ecx
	movl	%ecx, -8(%ebp)
	movb	(%eax), %al
	movb	%al, -1(%ebp)
	movl	$0, -40(%ebp)
	movl	$1056964608, -36(%ebp)          # imm = 0x3F000000
	movl	$0, -32(%ebp)
	movl	-40(%ebp), %eax
	flds	-36(%ebp)
	movl	-32(%ebp), %ecx
	movl	%ecx, 8(%esp)
	fstps	4(%esp)
	movl	%eax, (%esp)
	movl	$1, 12(%esp)
	calll	FF_function_385
	movl	$0, -24(%ebp)
	movl	$1056964608, -20(%ebp)          # imm = 0x3F000000
	movl	$0, -16(%ebp)
	movl	-24(%ebp), %eax
	flds	-20(%ebp)
	movl	-16(%ebp), %ecx
	movl	%ecx, 8(%esp)
	fstps	4(%esp)
	movl	%eax, (%esp)
	movl	$3, 20(%esp)
	movl	$2, 16(%esp)
	movl	$1, 12(%esp)
	calll	FF_function_385
	movl	$.L.str.91, (%esp)
	calll	printf@PLT
	movb	-1(%ebp), %al
	addl	$88, %esp
	popl	%ebp
	.cfi_def_cfa %esp, 4
	retl
.Lfunc_end49:
	.size	FF_function_385, .Lfunc_end49-FF_function_385
	.cfi_endproc
                                        # -- End function
	.globl	FF_function_379                 # -- Begin function FF_function_379
	.p2align	4, 0x90
	.type	FF_function_379,@function
FF_function_379:                        # @FF_function_379
	.cfi_startproc
# %bb.0:
	pushl	%ebp
	.cfi_def_cfa_offset 8
	.cfi_offset %ebp, -8
	movl	%esp, %ebp
	.cfi_def_cfa_register %ebp
	pushl	%ebx
	subl	$84, %esp
	.cfi_offset %ebx, -12
	movl	16(%ebp), %eax
	movl	20(%ebp), %eax
	movl	12(%ebp), %eax
	movw	8(%ebp), %ax
	movl	$.L.str.92, (%esp)
	calll	printf@PLT
	movl	$0, 8(%esp)
	movl	$0, 4(%esp)
	movl	$0, (%esp)
	calll	FF_function_382
	movb	%al, %bl
	movl	$0, (%esp)
	calll	FF_function_383
	fstps	-20(%ebp)                       # 4-byte Folded Spill
	movl	$0, -16(%ebp)
	movl	$1056964608, -12(%ebp)          # imm = 0x3F000000
	movl	$0, -8(%ebp)
	movl	-16(%ebp), %eax
	flds	-12(%ebp)
	movl	-8(%ebp), %ecx
	movl	%ecx, 8(%esp)
	fstps	4(%esp)
	movl	%eax, (%esp)
	movl	$0, 16(%esp)
	movl	$0, 12(%esp)
	movl	$0, 20(%esp)
	calll	FF_function_385
	movzbl	%al, %eax
	movl	%eax, 8(%esp)
	flds	-20(%ebp)                       # 4-byte Folded Reload
	fstps	4(%esp)
	movzbl	%bl, %eax
	movl	%eax, (%esp)
	movl	$0, 52(%esp)
	movl	$0, 48(%esp)
	movl	$0, 44(%esp)
	movl	$0, 40(%esp)
	movl	$0, 36(%esp)
	movl	$0, 32(%esp)
	movl	$0, 28(%esp)
	movl	$0, 24(%esp)
	movl	$0, 20(%esp)
	movl	$0, 16(%esp)
	movl	$0, 12(%esp)
	calll	FF_function_380
	fstp	%st(0)
	movl	$0, -24(%ebp)
	movl	$.L.str.93, (%esp)
	calll	printf@PLT
	flds	-24(%ebp)
	addl	$84, %esp
	popl	%ebx
	popl	%ebp
	.cfi_def_cfa %esp, 4
	retl
.Lfunc_end50:
	.size	FF_function_379, .Lfunc_end50-FF_function_379
	.cfi_endproc
                                        # -- End function
	.globl	FF_function_355                 # -- Begin function FF_function_355
	.p2align	4, 0x90
	.type	FF_function_355,@function
FF_function_355:                        # @FF_function_355
	.cfi_startproc
# %bb.0:
	pushl	%ebp
	.cfi_def_cfa_offset 8
	.cfi_offset %ebp, -8
	movl	%esp, %ebp
	.cfi_def_cfa_register %ebp
	pushl	%esi
	subl	$84, %esp
	.cfi_offset %esi, -12
	fldl	12(%ebp)
	movb	8(%ebp), %al
	fstpl	-32(%ebp)
	movl	$.L.str.94, (%esp)
	calll	printf@PLT
	calll	FF_function_373
	movw	%ax, %si
	movl	$0, 12(%esp)
	movl	$0, 8(%esp)
	movl	$0, 4(%esp)
	movl	$0, (%esp)
	calll	FF_function_379
	fstps	8(%esp)
	movswl	%si, %eax
	movl	%eax, 4(%esp)
	leal	-24(%ebp), %eax
	movl	%eax, (%esp)
	movl	$0, 44(%esp)
	movl	$0, 40(%esp)
	movl	$0, 36(%esp)
	movl	$0, 32(%esp)
	movl	$0, 28(%esp)
	movl	$0, 24(%esp)
	movl	$0, 20(%esp)
	movl	$0, 16(%esp)
	movl	$0, 12(%esp)
	calll	FF_function_356
	subl	$4, %esp
	movl	$0, -12(%ebp)
	movl	$0, -16(%ebp)
	movl	$.L.str.95, (%esp)
	calll	printf@PLT
	movl	-16(%ebp), %eax
	movl	-12(%ebp), %edx
	addl	$84, %esp
	popl	%esi
	popl	%ebp
	.cfi_def_cfa %esp, 4
	retl
.Lfunc_end51:
	.size	FF_function_355, .Lfunc_end51-FF_function_355
	.cfi_endproc
                                        # -- End function
	.globl	FF_function_352                 # -- Begin function FF_function_352
	.p2align	4, 0x90
	.type	FF_function_352,@function
FF_function_352:                        # @FF_function_352
	.cfi_startproc
# %bb.0:
	pushl	%ebp
	.cfi_def_cfa_offset 8
	.cfi_offset %ebp, -8
	movl	%esp, %ebp
	.cfi_def_cfa_register %ebp
	pushl	%esi
	subl	$36, %esp
	.cfi_offset %esi, -12
	movl	8(%ebp), %esi
	movl	12(%ebp), %eax
	leal	.L.str.96, %eax
	movl	%eax, (%esp)
	calll	printf@PLT
	xorl	%eax, %eax
	movl	$0, 8(%esp)
	movl	$0, 4(%esp)
	movl	$0, (%esp)
	calll	FF_function_355
	movl	%edx, 8(%esp)
	movl	%eax, 4(%esp)
	leal	-16(%ebp), %eax
	movl	%eax, (%esp)
	movl	$0, 20(%esp)
	movl	$0, 16(%esp)
	movl	$0, 12(%esp)
	calll	FF_function_354
	subl	$4, %esp
	movl	.L__const.FF_function_352.FF_x, %eax
	movl	%eax, (%esi)
	movl	.L__const.FF_function_352.FF_x+4, %eax
	movl	%eax, 4(%esi)
	movl	.L__const.FF_function_352.FF_x+8, %eax
	movl	%eax, 8(%esi)
	leal	.L.str.97, %eax
	movl	%eax, (%esp)
	calll	printf@PLT
	movl	%esi, %eax
	addl	$36, %esp
	popl	%esi
	popl	%ebp
	.cfi_def_cfa %esp, 4
	retl	$4
.Lfunc_end52:
	.size	FF_function_352, .Lfunc_end52-FF_function_352
	.cfi_endproc
                                        # -- End function
	.globl	FF_function_351                 # -- Begin function FF_function_351
	.p2align	4, 0x90
	.type	FF_function_351,@function
FF_function_351:                        # @FF_function_351
	.cfi_startproc
# %bb.0:
	pushl	%ebp
	.cfi_def_cfa_offset 8
	.cfi_offset %ebp, -8
	movl	%esp, %ebp
	.cfi_def_cfa_register %ebp
	subl	$24, %esp
	flds	8(%ebp)
	fstp	%st(0)
	leal	.L.str.98, %eax
	movl	%eax, (%esp)
	calll	printf@PLT
	leal	-16(%ebp), %eax
	xorl	%ecx, %ecx
	movl	%eax, (%esp)
	movl	$0, 4(%esp)
	calll	FF_function_352
	subl	$4, %esp
	movb	$0, -1(%ebp)
	leal	.L.str.99, %eax
	movl	%eax, (%esp)
	calll	printf@PLT
	movsbl	-1(%ebp), %eax
	addl	$24, %esp
	popl	%ebp
	.cfi_def_cfa %esp, 4
	retl
.Lfunc_end53:
	.size	FF_function_351, .Lfunc_end53-FF_function_351
	.cfi_endproc
                                        # -- End function
	.globl	FF_function_350                 # -- Begin function FF_function_350
	.p2align	4, 0x90
	.type	FF_function_350,@function
FF_function_350:                        # @FF_function_350
	.cfi_startproc
# %bb.0:
	pushl	%ebp
	.cfi_def_cfa_offset 8
	.cfi_offset %ebp, -8
	movl	%esp, %ebp
	.cfi_def_cfa_register %ebp
	pushl	%esi
	subl	$36, %esp
	.cfi_offset %esi, -12
	movl	8(%ebp), %esi
	movl	36(%ebp), %eax
	movl	40(%ebp), %ecx
	movl	48(%ebp), %edx
	movb	44(%ebp), %dl
	flds	32(%ebp)
	fstp	%st(0)
	movl	28(%ebp), %edx
	movb	24(%ebp), %dl
	movb	20(%ebp), %dl
	fldl	12(%ebp)
	fstpl	-24(%ebp)
	movl	%ecx, -12(%ebp)
	movl	%eax, -16(%ebp)
	leal	.L.str.100, %eax
	movl	%eax, (%esp)
	calll	printf@PLT
	movl	$0, (%esp)
	calll	FF_function_351
	movl	.L__const.FF_function_350.FF_x, %eax
	movl	%eax, (%esi)
	movl	.L__const.FF_function_350.FF_x+4, %eax
	movl	%eax, 4(%esi)
	movl	.L__const.FF_function_350.FF_x+8, %eax
	movl	%eax, 8(%esi)
	leal	.L.str.101, %eax
	movl	%eax, (%esp)
	calll	printf@PLT
	movl	%esi, %eax
	addl	$36, %esp
	popl	%esi
	popl	%ebp
	.cfi_def_cfa %esp, 4
	retl	$4
.Lfunc_end54:
	.size	FF_function_350, .Lfunc_end54-FF_function_350
	.cfi_endproc
                                        # -- End function
	.globl	FF_function_347                 # -- Begin function FF_function_347
	.p2align	4, 0x90
	.type	FF_function_347,@function
FF_function_347:                        # @FF_function_347
	.cfi_startproc
# %bb.0:
	pushl	%ebp
	.cfi_def_cfa_offset 8
	.cfi_offset %ebp, -8
	movl	%esp, %ebp
	.cfi_def_cfa_register %ebp
	pushl	%esi
	subl	$68, %esp
	.cfi_offset %esi, -12
	movl	8(%ebp), %esi
	movw	20(%ebp), %ax
	fldl	12(%ebp)
	fstpl	-24(%ebp)
	movl	$.L.str.102, (%esp)
	calll	printf@PLT
	leal	-16(%ebp), %eax
	movl	%eax, (%esp)
	movl	$0, 8(%esp)
	movl	$0, 4(%esp)
	movl	$0, 40(%esp)
	movl	$0, 36(%esp)
	movl	$0, 32(%esp)
	movl	$0, 28(%esp)
	movl	$0, 24(%esp)
	movl	$0, 20(%esp)
	movl	$0, 16(%esp)
	movl	$0, 12(%esp)
	calll	FF_function_350
	subl	$4, %esp
	movl	-16(%ebp), %eax
	flds	-12(%ebp)
	movl	-8(%ebp), %ecx
	movl	%ecx, 8(%esp)
	fstps	4(%esp)
	movl	%eax, (%esp)
	movl	$0, 16(%esp)
	movl	$0, 12(%esp)
	calll	FF_function_349
	movl	.L__const.FF_function_347.FF_x, %eax
	movl	%eax, (%esi)
	movl	.L__const.FF_function_347.FF_x+4, %eax
	movl	%eax, 4(%esi)
	movl	.L__const.FF_function_347.FF_x+8, %eax
	movl	%eax, 8(%esi)
	leal	.L.str.103, %eax
	movl	%eax, (%esp)
	calll	printf@PLT
	movl	%esi, %eax
	addl	$68, %esp
	popl	%esi
	popl	%ebp
	.cfi_def_cfa %esp, 4
	retl	$4
.Lfunc_end55:
	.size	FF_function_347, .Lfunc_end55-FF_function_347
	.cfi_endproc
                                        # -- End function
	.globl	FF_function_344                 # -- Begin function FF_function_344
	.p2align	4, 0x90
	.type	FF_function_344,@function
FF_function_344:                        # @FF_function_344
	.cfi_startproc
# %bb.0:
	pushl	%ebp
	.cfi_def_cfa_offset 8
	.cfi_offset %ebp, -8
	movl	%esp, %ebp
	.cfi_def_cfa_register %ebp
	pushl	%esi
	subl	$68, %esp
	.cfi_offset %esi, -12
	movl	8(%ebp), %esi
	movl	20(%ebp), %eax
	movl	24(%ebp), %ecx
	movw	28(%ebp), %dx
	movw	16(%ebp), %dx
	movl	12(%ebp), %edx
	movl	%eax, -24(%ebp)
	movl	%ecx, -20(%ebp)
	movl	$.L.str.104, (%esp)
	calll	printf@PLT
	leal	-16(%ebp), %eax
	movl	%eax, (%esp)
	movl	$0, 8(%esp)
	movl	$0, 4(%esp)
	movl	$0, 12(%esp)
	calll	FF_function_347
	subl	$4, %esp
	movl	-16(%ebp), %eax
	flds	-12(%ebp)
	movl	-8(%ebp), %ecx
	movl	%ecx, 8(%esp)
	fstps	4(%esp)
	movl	%eax, (%esp)
	movl	$0, 16(%esp)
	movl	$0, 12(%esp)
	movl	$0, 20(%esp)
	calll	FF_function_346
	movl	$0, (%esi)
	movl	$1056964608, 4(%esi)            # imm = 0x3F000000
	movl	$0, 8(%esi)
	movl	%esi, %eax
	addl	$68, %esp
	popl	%esi
	popl	%ebp
	.cfi_def_cfa %esp, 4
	retl	$4
.Lfunc_end56:
	.size	FF_function_344, .Lfunc_end56-FF_function_344
	.cfi_endproc
                                        # -- End function
	.globl	FF_function_343                 # -- Begin function FF_function_343
	.p2align	4, 0x90
	.type	FF_function_343,@function
FF_function_343:                        # @FF_function_343
	.cfi_startproc
# %bb.0:
	pushl	%ebp
	.cfi_def_cfa_offset 8
	.cfi_offset %ebp, -8
	movl	%esp, %ebp
	.cfi_def_cfa_register %ebp
	subl	$72, %esp
	movl	20(%ebp), %eax
	movl	24(%ebp), %ecx
	movw	28(%ebp), %dx
	fldl	12(%ebp)
	flds	8(%ebp)
	fstp	%st(0)
	fstpl	-24(%ebp)
	movl	%ecx, -12(%ebp)
	movl	%eax, -16(%ebp)
	movl	$.L.str.105, (%esp)
	calll	printf@PLT
	leal	-40(%ebp), %eax
	movl	%eax, (%esp)
	movl	$0, 20(%esp)
	movl	$0, 16(%esp)
	movl	$0, 12(%esp)
	movl	$0, 8(%esp)
	movl	$0, 4(%esp)
	calll	FF_function_344
	subl	$4, %esp
	movl	$0, -4(%ebp)
	movl	$0, -8(%ebp)
	movl	$.L.str.106, (%esp)
	calll	printf@PLT
	fldl	-8(%ebp)
	addl	$72, %esp
	popl	%ebp
	.cfi_def_cfa %esp, 4
	retl
.Lfunc_end57:
	.size	FF_function_343, .Lfunc_end57-FF_function_343
	.cfi_endproc
                                        # -- End function
	.globl	FF_function_342                 # -- Begin function FF_function_342
	.p2align	4, 0x90
	.type	FF_function_342,@function
FF_function_342:                        # @FF_function_342
	.cfi_startproc
# %bb.0:
	pushl	%ebp
	.cfi_def_cfa_offset 8
	.cfi_offset %ebp, -8
	movl	%esp, %ebp
	.cfi_def_cfa_register %ebp
	pushl	%esi
	subl	$36, %esp
	.cfi_offset %esi, -12
	movl	8(%ebp), %esi
	movb	12(%ebp), %al
	leal	.L.str.107, %eax
	movl	%eax, (%esp)
	calll	printf@PLT
	movl	$0, 8(%esp)
	movl	$0, 4(%esp)
	movl	$0, 20(%esp)
	movl	$0, 16(%esp)
	movl	$0, 12(%esp)
	movl	$0, (%esp)
	calll	FF_function_343
	fstp	%st(0)
	movl	.L__const.FF_function_342.FF_x, %eax
	movl	%eax, (%esi)
	movl	.L__const.FF_function_342.FF_x+4, %eax
	movl	%eax, 4(%esi)
	movl	.L__const.FF_function_342.FF_x+8, %eax
	movl	%eax, 8(%esi)
	leal	.L.str.108, %eax
	movl	%eax, (%esp)
	calll	printf@PLT
	movl	%esi, %eax
	addl	$36, %esp
	popl	%esi
	popl	%ebp
	.cfi_def_cfa %esp, 4
	retl	$4
.Lfunc_end58:
	.size	FF_function_342, .Lfunc_end58-FF_function_342
	.cfi_endproc
                                        # -- End function
	.globl	FF_function_339                 # -- Begin function FF_function_339
	.p2align	4, 0x90
	.type	FF_function_339,@function
FF_function_339:                        # @FF_function_339
	.cfi_startproc
# %bb.0:
	pushl	%ebp
	.cfi_def_cfa_offset 8
	.cfi_offset %ebp, -8
	movl	%esp, %ebp
	.cfi_def_cfa_register %ebp
	pushl	%esi
	subl	$52, %esp
	.cfi_offset %esi, -12
	movl	8(%ebp), %esi
	movl	12(%ebp), %eax
	movl	16(%ebp), %ecx
	movl	%eax, -24(%ebp)
	movl	%ecx, -20(%ebp)
	movl	$.L.str.109, (%esp)
	calll	printf@PLT
	leal	-16(%ebp), %eax
	movl	%eax, (%esp)
	movl	$0, 4(%esp)
	calll	FF_function_342
	subl	$4, %esp
	movl	-16(%ebp), %eax
	flds	-12(%ebp)
	movl	-8(%ebp), %ecx
	movl	%ecx, 8(%esp)
	fstps	4(%esp)
	movl	%eax, (%esp)
	movl	$0, 16(%esp)
	movl	$0, 12(%esp)
	calll	FF_function_341
	movl	.L__const.FF_function_339.FF_x, %eax
	movl	%eax, (%esi)
	movl	.L__const.FF_function_339.FF_x+4, %eax
	movl	%eax, 4(%esi)
	movl	.L__const.FF_function_339.FF_x+8, %eax
	movl	%eax, 8(%esi)
	leal	.L.str.110, %eax
	movl	%eax, (%esp)
	calll	printf@PLT
	movl	%esi, %eax
	addl	$52, %esp
	popl	%esi
	popl	%ebp
	.cfi_def_cfa %esp, 4
	retl	$4
.Lfunc_end59:
	.size	FF_function_339, .Lfunc_end59-FF_function_339
	.cfi_endproc
                                        # -- End function
	.globl	FF_function_338                 # -- Begin function FF_function_338
	.p2align	4, 0x90
	.type	FF_function_338,@function
FF_function_338:                        # @FF_function_338
	.cfi_startproc
# %bb.0:
	pushl	%ebp
	.cfi_def_cfa_offset 8
	.cfi_offset %ebp, -8
	movl	%esp, %ebp
	.cfi_def_cfa_register %ebp
	subl	$56, %esp
	movl	12(%ebp), %eax
	movl	16(%ebp), %ecx
	movl	20(%ebp), %edx
	flds	8(%ebp)
	fstp	%st(0)
	movl	%eax, -16(%ebp)
	movl	%ecx, -12(%ebp)
	leal	.L.str.111, %eax
	movl	%eax, (%esp)
	calll	printf@PLT
	leal	-32(%ebp), %eax
	movl	%eax, (%esp)
	movl	$0, 8(%esp)
	movl	$0, 4(%esp)
	calll	FF_function_339
	subl	$4, %esp
	movl	$0, -4(%ebp)
	leal	.L.str.112, %eax
	movl	%eax, (%esp)
	calll	printf@PLT
	movl	-4(%ebp), %eax
	addl	$56, %esp
	popl	%ebp
	.cfi_def_cfa %esp, 4
	retl
.Lfunc_end60:
	.size	FF_function_338, .Lfunc_end60-FF_function_338
	.cfi_endproc
                                        # -- End function
	.globl	FF_function_335                 # -- Begin function FF_function_335
	.p2align	4, 0x90
	.type	FF_function_335,@function
FF_function_335:                        # @FF_function_335
	.cfi_startproc
# %bb.0:
	pushl	%ebp
	.cfi_def_cfa_offset 8
	.cfi_offset %ebp, -8
	movl	%esp, %ebp
	.cfi_def_cfa_register %ebp
	pushl	%ebx
	pushl	%edi
	pushl	%esi
	subl	$44, %esp
	.cfi_offset %esi, -20
	.cfi_offset %edi, -16
	.cfi_offset %ebx, -12
	movl	8(%ebp), %esi
	movl	36(%ebp), %eax
	movl	40(%ebp), %ecx
	movl	28(%ebp), %edx
	movl	32(%ebp), %edi
	movl	44(%ebp), %ebx
	movw	24(%ebp), %bx
	movw	20(%ebp), %bx
	flds	16(%ebp)
	fstp	%st(0)
	movb	12(%ebp), %bl
	movl	%edx, -32(%ebp)
	movl	%edi, -28(%ebp)
	movl	%ecx, -20(%ebp)
	movl	%eax, -24(%ebp)
	leal	.L.str.113, %eax
	movl	%eax, (%esp)
	calll	printf@PLT
	movl	$0, 12(%esp)
	movl	$0, 8(%esp)
	movl	$0, 4(%esp)
	movl	$0, (%esp)
	calll	FF_function_338
	xorl	%ecx, %ecx
	movl	%eax, (%esp)
	movl	$0, 4(%esp)
	movl	$0, 8(%esp)
	calll	FF_function_337
	movl	.L__const.FF_function_335.FF_x, %eax
	movl	%eax, (%esi)
	movl	.L__const.FF_function_335.FF_x+4, %eax
	movl	%eax, 4(%esi)
	movl	.L__const.FF_function_335.FF_x+8, %eax
	movl	%eax, 8(%esi)
	leal	.L.str.114, %eax
	movl	%eax, (%esp)
	calll	printf@PLT
	movl	%esi, %eax
	addl	$44, %esp
	popl	%esi
	popl	%edi
	popl	%ebx
	popl	%ebp
	.cfi_def_cfa %esp, 4
	retl	$4
.Lfunc_end61:
	.size	FF_function_335, .Lfunc_end61-FF_function_335
	.cfi_endproc
                                        # -- End function
	.globl	FF_function_334                 # -- Begin function FF_function_334
	.p2align	4, 0x90
	.type	FF_function_334,@function
FF_function_334:                        # @FF_function_334
	.cfi_startproc
# %bb.0:
	pushl	%ebp
	.cfi_def_cfa_offset 8
	.cfi_offset %ebp, -8
	movl	%esp, %ebp
	.cfi_def_cfa_register %ebp
	subl	$72, %esp
	movl	8(%ebp), %eax
	movl	12(%ebp), %eax
	movl	$.L.str.115, (%esp)
	calll	printf@PLT
	leal	-24(%ebp), %eax
	movl	%eax, (%esp)
	movl	$0, 36(%esp)
	movl	$0, 32(%esp)
	movl	$0, 28(%esp)
	movl	$0, 24(%esp)
	movl	$0, 20(%esp)
	movl	$0, 16(%esp)
	movl	$0, 12(%esp)
	movl	$0, 8(%esp)
	movl	$0, 4(%esp)
	calll	FF_function_335
	subl	$4, %esp
	movl	$0, -4(%ebp)
	movl	$0, -8(%ebp)
	movl	$.L.str.116, (%esp)
	calll	printf@PLT
	movl	-8(%ebp), %eax
	movl	-4(%ebp), %edx
	addl	$72, %esp
	popl	%ebp
	.cfi_def_cfa %esp, 4
	retl
.Lfunc_end62:
	.size	FF_function_334, .Lfunc_end62-FF_function_334
	.cfi_endproc
                                        # -- End function
	.globl	FF_function_331                 # -- Begin function FF_function_331
	.p2align	4, 0x90
	.type	FF_function_331,@function
FF_function_331:                        # @FF_function_331
	.cfi_startproc
# %bb.0:
	pushl	%ebp
	.cfi_def_cfa_offset 8
	.cfi_offset %ebp, -8
	movl	%esp, %ebp
	.cfi_def_cfa_register %ebp
	subl	$24, %esp
	movb	8(%ebp), %al
	leal	.L.str.117, %eax
	movl	%eax, (%esp)
	calll	printf@PLT
	movl	$0, 4(%esp)
	movl	$0, (%esp)
	calll	FF_function_334
	movl	%edx, 4(%esp)
	movl	%eax, (%esp)
	movl	$0, 16(%esp)
	movl	$0, 12(%esp)
	movl	$0, 8(%esp)
	calll	FF_function_333
	movw	$0, -2(%ebp)
	leal	.L.str.118, %eax
	movl	%eax, (%esp)
	calll	printf@PLT
	movswl	-2(%ebp), %eax
	addl	$24, %esp
	popl	%ebp
	.cfi_def_cfa %esp, 4
	retl
.Lfunc_end63:
	.size	FF_function_331, .Lfunc_end63-FF_function_331
	.cfi_endproc
                                        # -- End function
	.globl	FF_function_328                 # -- Begin function FF_function_328
	.p2align	4, 0x90
	.type	FF_function_328,@function
FF_function_328:                        # @FF_function_328
	.cfi_startproc
# %bb.0:
	pushl	%ebp
	.cfi_def_cfa_offset 8
	.cfi_offset %ebp, -8
	movl	%esp, %ebp
	.cfi_def_cfa_register %ebp
	pushl	%esi
	subl	$52, %esp
	.cfi_offset %esi, -12
	movl	8(%ebp), %esi
	flds	16(%ebp)
	fstp	%st(0)
	movl	12(%ebp), %eax
	movl	$.L.str.119, (%esp)
	calll	printf@PLT
	movl	$0, (%esp)
	calll	FF_function_331
	cwtl
	movl	%eax, 4(%esp)
	leal	-16(%ebp), %eax
	movl	%eax, (%esp)
	movl	$0, 12(%esp)
	movl	$0, 8(%esp)
	calll	FF_function_330
	subl	$4, %esp
	movl	$0, (%esi)
	movl	$1056964608, 4(%esi)            # imm = 0x3F000000
	movl	$0, 8(%esi)
	movl	%esi, %eax
	addl	$52, %esp
	popl	%esi
	popl	%ebp
	.cfi_def_cfa %esp, 4
	retl	$4
.Lfunc_end64:
	.size	FF_function_328, .Lfunc_end64-FF_function_328
	.cfi_endproc
                                        # -- End function
	.globl	FF_function_327                 # -- Begin function FF_function_327
	.p2align	4, 0x90
	.type	FF_function_327,@function
FF_function_327:                        # @FF_function_327
	.cfi_startproc
# %bb.0:
	pushl	%ebp
	.cfi_def_cfa_offset 8
	.cfi_offset %ebp, -8
	movl	%esp, %ebp
	.cfi_def_cfa_register %ebp
	pushl	%ebx
	pushl	%edi
	pushl	%esi
	subl	$60, %esp
	.cfi_offset %esi, -20
	.cfi_offset %edi, -16
	.cfi_offset %ebx, -12
	movl	8(%ebp), %esi
	movl	56(%ebp), %eax
	movl	60(%ebp), %eax
	movl	20(%ebp), %eax
	movl	24(%ebp), %ecx
	movl	12(%ebp), %edx
	movl	16(%ebp), %edi
	movl	68(%ebp), %ebx
	movb	64(%ebp), %bl
	movl	52(%ebp), %ebx
	flds	48(%ebp)
	fstp	%st(0)
	movl	44(%ebp), %ebx
	flds	40(%ebp)
	fstp	%st(0)
	movl	36(%ebp), %ebx
	movw	32(%ebp), %bx
	movb	28(%ebp), %bl
	movl	%edx, -32(%ebp)
	movl	%edi, -28(%ebp)
	movl	%ecx, -20(%ebp)
	movl	%eax, -24(%ebp)
	leal	.L.str.120, %eax
	movl	%eax, (%esp)
	calll	printf@PLT
	xorl	%eax, %eax
	leal	-48(%ebp), %eax
	movl	%eax, (%esp)
	movl	$0, 8(%esp)
	movl	$0, 4(%esp)
	calll	FF_function_328
	subl	$4, %esp
	movl	.L__const.FF_function_327.FF_x, %eax
	movl	%eax, (%esi)
	movl	.L__const.FF_function_327.FF_x+4, %eax
	movl	%eax, 4(%esi)
	movl	.L__const.FF_function_327.FF_x+8, %eax
	movl	%eax, 8(%esi)
	leal	.L.str.121, %eax
	movl	%eax, (%esp)
	calll	printf@PLT
	movl	%esi, %eax
	addl	$60, %esp
	popl	%esi
	popl	%edi
	popl	%ebx
	popl	%ebp
	.cfi_def_cfa %esp, 4
	retl	$4
.Lfunc_end65:
	.size	FF_function_327, .Lfunc_end65-FF_function_327
	.cfi_endproc
                                        # -- End function
	.globl	FF_function_326                 # -- Begin function FF_function_326
	.p2align	4, 0x90
	.type	FF_function_326,@function
FF_function_326:                        # @FF_function_326
	.cfi_startproc
# %bb.0:
	pushl	%ebp
	.cfi_def_cfa_offset 8
	.cfi_offset %ebp, -8
	movl	%esp, %ebp
	.cfi_def_cfa_register %ebp
	subl	$88, %esp
	movl	16(%ebp), %eax
	movb	12(%ebp), %al
	flds	8(%ebp)
	fstp	%st(0)
	leal	.L.str.122, %eax
	movl	%eax, (%esp)
	calll	printf@PLT
	leal	-16(%ebp), %eax
	movl	%eax, (%esp)
	movl	$0, 60(%esp)
	movl	$0, 56(%esp)
	movl	$0, 52(%esp)
	movl	$0, 48(%esp)
	movl	$0, 44(%esp)
	movl	$0, 40(%esp)
	movl	$0, 36(%esp)
	movl	$0, 32(%esp)
	movl	$0, 28(%esp)
	movl	$0, 24(%esp)
	movl	$0, 20(%esp)
	movl	$0, 16(%esp)
	movl	$0, 12(%esp)
	movl	$0, 8(%esp)
	movl	$0, 4(%esp)
	calll	FF_function_327
	subl	$4, %esp
	movl	$0, -4(%ebp)
	leal	.L.str.123, %eax
	movl	%eax, (%esp)
	calll	printf@PLT
	movl	-4(%ebp), %eax
	addl	$88, %esp
	popl	%ebp
	.cfi_def_cfa %esp, 4
	retl
.Lfunc_end66:
	.size	FF_function_326, .Lfunc_end66-FF_function_326
	.cfi_endproc
                                        # -- End function
	.globl	FF_function_325                 # -- Begin function FF_function_325
	.p2align	4, 0x90
	.type	FF_function_325,@function
FF_function_325:                        # @FF_function_325
	.cfi_startproc
# %bb.0:
	pushl	%ebp
	.cfi_def_cfa_offset 8
	.cfi_offset %ebp, -8
	movl	%esp, %ebp
	.cfi_def_cfa_register %ebp
	subl	$24, %esp
	flds	8(%ebp)
	fstp	%st(0)
	leal	.L.str.124, %eax
	movl	%eax, (%esp)
	calll	printf@PLT
	movl	$0, 8(%esp)
	movl	$0, 4(%esp)
	movl	$0, (%esp)
	calll	FF_function_326
	movw	$0, -2(%ebp)
	leal	.L.str.125, %eax
	movl	%eax, (%esp)
	calll	printf@PLT
	movswl	-2(%ebp), %eax
	addl	$24, %esp
	popl	%ebp
	.cfi_def_cfa %esp, 4
	retl
.Lfunc_end67:
	.size	FF_function_325, .Lfunc_end67-FF_function_325
	.cfi_endproc
                                        # -- End function
	.globl	FF_function_324                 # -- Begin function FF_function_324
	.p2align	4, 0x90
	.type	FF_function_324,@function
FF_function_324:                        # @FF_function_324
	.cfi_startproc
# %bb.0:
	pushl	%ebp
	.cfi_def_cfa_offset 8
	.cfi_offset %ebp, -8
	movl	%esp, %ebp
	.cfi_def_cfa_register %ebp
	pushl	%esi
	subl	$20, %esp
	.cfi_offset %esi, -12
	movl	8(%ebp), %esi
	movl	12(%ebp), %eax
	movl	$.L.str.126, (%esp)
	calll	printf@PLT
	movl	$0, (%esp)
	calll	FF_function_325
	movl	$0, (%esi)
	movl	$1056964608, 4(%esi)            # imm = 0x3F000000
	movl	$0, 8(%esi)
	movl	%esi, %eax
	addl	$20, %esp
	popl	%esi
	popl	%ebp
	.cfi_def_cfa %esp, 4
	retl	$4
.Lfunc_end68:
	.size	FF_function_324, .Lfunc_end68-FF_function_324
	.cfi_endproc
                                        # -- End function
	.globl	FF_function_323                 # -- Begin function FF_function_323
	.p2align	4, 0x90
	.type	FF_function_323,@function
FF_function_323:                        # @FF_function_323
	.cfi_startproc
# %bb.0:
	pushl	%ebp
	.cfi_def_cfa_offset 8
	.cfi_offset %ebp, -8
	movl	%esp, %ebp
	.cfi_def_cfa_register %ebp
	pushl	%esi
	subl	$20, %esp
	.cfi_offset %esi, -12
	movl	8(%ebp), %esi
	movb	12(%ebp), %al
	leal	.L.str.127, %eax
	movl	%eax, (%esp)
	calll	printf@PLT
	leal	-16(%ebp), %eax
	xorl	%ecx, %ecx
	movl	%eax, (%esp)
	movl	$0, 4(%esp)
	calll	FF_function_324
	subl	$4, %esp
	movl	.L__const.FF_function_323.FF_x, %eax
	movl	%eax, (%esi)
	movl	.L__const.FF_function_323.FF_x+4, %eax
	movl	%eax, 4(%esi)
	movl	.L__const.FF_function_323.FF_x+8, %eax
	movl	%eax, 8(%esi)
	leal	.L.str.128, %eax
	movl	%eax, (%esp)
	calll	printf@PLT
	movl	%esi, %eax
	addl	$20, %esp
	popl	%esi
	popl	%ebp
	.cfi_def_cfa %esp, 4
	retl	$4
.Lfunc_end69:
	.size	FF_function_323, .Lfunc_end69-FF_function_323
	.cfi_endproc
                                        # -- End function
	.globl	FF_function_320                 # -- Begin function FF_function_320
	.p2align	4, 0x90
	.type	FF_function_320,@function
FF_function_320:                        # @FF_function_320
	.cfi_startproc
# %bb.0:
	pushl	%ebp
	.cfi_def_cfa_offset 8
	.cfi_offset %ebp, -8
	movl	%esp, %ebp
	.cfi_def_cfa_register %ebp
	pushl	%esi
	subl	$68, %esp
	.cfi_offset %esi, -12
	movl	8(%ebp), %esi
	movl	12(%ebp), %eax
	movl	16(%ebp), %ecx
	movw	20(%ebp), %dx
	movl	%eax, -24(%ebp)
	movl	%ecx, -20(%ebp)
	movl	$.L.str.129, (%esp)
	calll	printf@PLT
	leal	-16(%ebp), %eax
	movl	%eax, (%esp)
	movl	$0, 4(%esp)
	calll	FF_function_323
	subl	$4, %esp
	movl	-16(%ebp), %eax
	flds	-12(%ebp)
	movl	-8(%ebp), %ecx
	movl	%ecx, 12(%esp)
	fstps	8(%esp)
	movl	%eax, 4(%esp)
	leal	-40(%ebp), %eax
	movl	%eax, (%esp)
	movl	$0, 24(%esp)
	movl	$0, 20(%esp)
	movl	$0, 16(%esp)
	calll	FF_function_322
	subl	$4, %esp
	movl	.L__const.FF_function_320.FF_x, %eax
	movl	%eax, (%esi)
	movl	.L__const.FF_function_320.FF_x+4, %eax
	movl	%eax, 4(%esi)
	movl	.L__const.FF_function_320.FF_x+8, %eax
	movl	%eax, 8(%esi)
	leal	.L.str.130, %eax
	movl	%eax, (%esp)
	calll	printf@PLT
	movl	%esi, %eax
	addl	$68, %esp
	popl	%esi
	popl	%ebp
	.cfi_def_cfa %esp, 4
	retl	$4
.Lfunc_end70:
	.size	FF_function_320, .Lfunc_end70-FF_function_320
	.cfi_endproc
                                        # -- End function
	.globl	FF_function_317                 # -- Begin function FF_function_317
	.p2align	4, 0x90
	.type	FF_function_317,@function
FF_function_317:                        # @FF_function_317
	.cfi_startproc
# %bb.0:
	pushl	%ebp
	.cfi_def_cfa_offset 8
	.cfi_offset %ebp, -8
	movl	%esp, %ebp
	.cfi_def_cfa_register %ebp
	pushl	%esi
	subl	$84, %esp
	.cfi_offset %esi, -12
	movl	8(%ebp), %esi
	movw	16(%ebp), %ax
	movw	12(%ebp), %ax
	leal	.L.str.131, %eax
	movl	%eax, (%esp)
	calll	printf@PLT
	movl	-36(%ebp), %eax
	movl	%eax, (%esp)
	calll	functie_voor_datastructuren
	calll	rand@PLT
	cmpl	$1, %eax
	jge	.LBB71_2
# %bb.1:
	movl	$0, (%esi)
	movl	$1056964608, 4(%esi)            # imm = 0x3F000000
	movl	$0, 8(%esi)
	jmp	.LBB71_3
.LBB71_2:
	leal	-32(%ebp), %eax
	movl	%eax, (%esp)
	movl	$0, 12(%esp)
	movl	$0, 8(%esp)
	movl	$0, 4(%esp)
	calll	FF_function_320
	subl	$4, %esp
	movl	-32(%ebp), %eax
	flds	-28(%ebp)
	movl	-24(%ebp), %ecx
	movl	%ecx, 12(%esp)
	fstps	8(%esp)
	movl	%eax, 4(%esp)
	leal	-48(%ebp), %eax
	movl	%eax, (%esp)
	movl	$0, 20(%esp)
	movl	$0, 16(%esp)
	movl	$0, 24(%esp)
	calll	FF_function_319
	subl	$4, %esp
	movl	.L__const.FF_function_317.FF_x, %eax
	movl	%eax, -16(%ebp)
	movl	.L__const.FF_function_317.FF_x+4, %eax
	movl	%eax, -12(%ebp)
	movl	.L__const.FF_function_317.FF_x+8, %eax
	movl	%eax, -8(%ebp)
	leal	.L.str.132, %eax
	movl	%eax, (%esp)
	calll	printf@PLT
	movl	-16(%ebp), %eax
	movl	%eax, (%esi)
	movl	-12(%ebp), %eax
	movl	%eax, 4(%esi)
	movl	-8(%ebp), %eax
	movl	%eax, 8(%esi)
.LBB71_3:
	movl	%esi, %eax
	addl	$84, %esp
	popl	%esi
	popl	%ebp
	.cfi_def_cfa %esp, 4
	retl	$4
.Lfunc_end71:
	.size	FF_function_317, .Lfunc_end71-FF_function_317
	.cfi_endproc
                                        # -- End function
	.globl	FF_function_316                 # -- Begin function FF_function_316
	.p2align	4, 0x90
	.type	FF_function_316,@function
FF_function_316:                        # @FF_function_316
	.cfi_startproc
# %bb.0:
	pushl	%ebp
	.cfi_def_cfa_offset 8
	.cfi_offset %ebp, -8
	movl	%esp, %ebp
	.cfi_def_cfa_register %ebp
	subl	$40, %esp
	movl	8(%ebp), %eax
	movl	12(%ebp), %eax
	movb	24(%ebp), %al
	movb	20(%ebp), %al
	movl	16(%ebp), %eax
	leal	.L.str.133, %eax
	movl	%eax, (%esp)
	calll	printf@PLT
	leal	-16(%ebp), %eax
	xorl	%ecx, %ecx
	movl	%eax, (%esp)
	movl	$0, 4(%esp)
	movl	$0, 8(%esp)
	calll	FF_function_317
	subl	$4, %esp
	movb	$0, -1(%ebp)
	leal	.L.str.134, %eax
	movl	%eax, (%esp)
	calll	printf@PLT
	movzbl	-1(%ebp), %eax
	addl	$40, %esp
	popl	%ebp
	.cfi_def_cfa %esp, 4
	retl
.Lfunc_end72:
	.size	FF_function_316, .Lfunc_end72-FF_function_316
	.cfi_endproc
                                        # -- End function
	.globl	CF_function_386                 # -- Begin function CF_function_386
	.p2align	4, 0x90
	.type	CF_function_386,@function
CF_function_386:                        # @CF_function_386
	.cfi_startproc
# %bb.0:
	pushl	%ebp
	.cfi_def_cfa_offset 8
	.cfi_offset %ebp, -8
	movl	%esp, %ebp
	.cfi_def_cfa_register %ebp
	subl	$8, %esp
	movb	8(%ebp), %al
	leal	.L.str.135, %eax
	movl	%eax, (%esp)
	calll	printf@PLT
	leal	.L.str.136, %eax
	movl	%eax, (%esp)
	calll	printf@PLT
.LBB73_1:                               # =>This Inner Loop Header: Depth=1
	leal	.L.str.137, %eax
	movl	%eax, (%esp)
	calll	printf@PLT
	leal	.L.str.138, %eax
	movl	%eax, (%esp)
	calll	printf@PLT
	calll	getchar@PLT
	cmpl	$23, %eax
	jne	.LBB73_3
# %bb.2:
	jmp	.LBB73_11
.LBB73_3:                               #   in Loop: Header=BB73_1 Depth=1
	calll	getchar@PLT
	cmpl	$19, %eax
	jne	.LBB73_5
# %bb.4:
	jmp	.LBB73_12
.LBB73_5:                               #   in Loop: Header=BB73_1 Depth=1
	calll	getchar@PLT
	cmpl	$83, %eax
	jne	.LBB73_7
# %bb.6:
	leal	.L.str.139, %eax
	movl	%eax, (%esp)
	calll	printf@PLT
	jmp	.LBB73_13
.LBB73_7:                               #   in Loop: Header=BB73_1 Depth=1
	leal	.L.str.140, %eax
	movl	%eax, (%esp)
	calll	printf@PLT
	calll	getchar@PLT
	cmpl	$17, %eax
	jne	.LBB73_9
# %bb.8:                                #   in Loop: Header=BB73_1 Depth=1
	jmp	.LBB73_10
.LBB73_9:                               #   in Loop: Header=BB73_1 Depth=1
	leal	.L.str.141, %eax
	movl	%eax, (%esp)
	calll	printf@PLT
.LBB73_10:                              #   in Loop: Header=BB73_1 Depth=1
	jmp	.LBB73_1
.LBB73_11:
	jmp	.LBB73_12
.LBB73_12:
	leal	.L.str.142, %eax
	movl	%eax, (%esp)
	calll	printf@PLT
	leal	.L.str.143, %eax
	movl	%eax, (%esp)
	calll	printf@PLT
.LBB73_13:
	movl	$.L.str.144, (%esp)
	calll	printf@PLT
	xorl	%eax, %eax
	xorl	%edx, %edx
	addl	$8, %esp
	popl	%ebp
	.cfi_def_cfa %esp, 4
	retl
.Lfunc_end73:
	.size	CF_function_386, .Lfunc_end73-CF_function_386
	.cfi_endproc
                                        # -- End function
	.globl	CF_function_387                 # -- Begin function CF_function_387
	.p2align	4, 0x90
	.type	CF_function_387,@function
CF_function_387:                        # @CF_function_387
	.cfi_startproc
# %bb.0:
	pushl	%ebp
	.cfi_def_cfa_offset 8
	.cfi_offset %ebp, -8
	movl	%esp, %ebp
	.cfi_def_cfa_register %ebp
	pushl	%esi
	subl	$36, %esp
	.cfi_offset %esi, -12
	movl	8(%ebp), %esi
	movl	12(%ebp), %eax
	leal	.L.str.145, %eax
	movl	%eax, (%esp)
	calll	printf@PLT
	leal	.L.str.146, %eax
	movl	%eax, (%esp)
	calll	printf@PLT
.LBB74_1:                               # =>This Loop Header: Depth=1
                                        #     Child Loop BB74_8 Depth 2
	leal	.L.str.147, %eax
	movl	%eax, (%esp)
	calll	printf@PLT
	leal	.L.str.148, %eax
	movl	%eax, (%esp)
	calll	printf@PLT
	calll	getchar@PLT
	cmpl	$97, %eax
	jne	.LBB74_3
# %bb.2:
	movl	$1923, (%esp)                   # imm = 0x783
	calll	exit@PLT
.LBB74_3:                               #   in Loop: Header=BB74_1 Depth=1
	calll	getchar@PLT
	cmpl	$19, %eax
	jne	.LBB74_5
# %bb.4:
	jmp	.LBB74_29
.LBB74_5:                               #   in Loop: Header=BB74_1 Depth=1
	calll	getchar@PLT
	cmpl	$83, %eax
	jne	.LBB74_7
# %bb.6:
	leal	.L.str.149, %eax
	movl	%eax, (%esp)
	calll	printf@PLT
	jmp	.LBB74_30
.LBB74_7:                               #   in Loop: Header=BB74_1 Depth=1
	leal	.L.str.150, %eax
	movl	%eax, (%esp)
	calll	printf@PLT
	leal	.L.str.151, %eax
	movl	%eax, (%esp)
	calll	printf@PLT
.LBB74_8:                               #   Parent Loop BB74_1 Depth=1
                                        # =>  This Inner Loop Header: Depth=2
	leal	.L.str.152, %eax
	movl	%eax, (%esp)
	calll	printf@PLT
	leal	.L.str.153, %eax
	movl	%eax, (%esp)
	calll	printf@PLT
	calll	getchar@PLT
	cmpl	$23, %eax
	jne	.LBB74_10
# %bb.9:                                #   in Loop: Header=BB74_1 Depth=1
	jmp	.LBB74_25
.LBB74_10:                              #   in Loop: Header=BB74_8 Depth=2
	calll	getchar@PLT
	cmpl	$97, %eax
	jne	.LBB74_12
# %bb.11:
	movl	$1923, (%esp)                   # imm = 0x783
	calll	exit@PLT
.LBB74_12:                              #   in Loop: Header=BB74_8 Depth=2
	calll	getchar@PLT
	cmpl	$19, %eax
	jne	.LBB74_14
# %bb.13:                               #   in Loop: Header=BB74_1 Depth=1
	jmp	.LBB74_26
.LBB74_14:                              #   in Loop: Header=BB74_8 Depth=2
	calll	getchar@PLT
	cmpl	$83, %eax
	jne	.LBB74_16
# %bb.15:                               #   in Loop: Header=BB74_1 Depth=1
	leal	.L.str.154, %eax
	movl	%eax, (%esp)
	calll	printf@PLT
	jmp	.LBB74_27
.LBB74_16:                              #   in Loop: Header=BB74_8 Depth=2
	calll	getchar@PLT
	cmpl	$73, %eax
	jne	.LBB74_18
# %bb.17:
	leal	.L.str.155, %eax
	movl	%eax, (%esp)
	calll	printf@PLT
	jmp	.LBB74_29
.LBB74_18:                              #   in Loop: Header=BB74_8 Depth=2
	leal	.L.str.156, %eax
	movl	%eax, (%esp)
	calll	printf@PLT
	calll	getchar@PLT
	cmpl	$67, %eax
	jne	.LBB74_21
# %bb.19:                               #   in Loop: Header=BB74_8 Depth=2
	jmp	.LBB74_20
.LBB74_20:                              # %.backedge
                                        #   in Loop: Header=BB74_8 Depth=2
	jmp	.LBB74_8
.LBB74_21:                              #   in Loop: Header=BB74_8 Depth=2
	calll	getchar@PLT
	cmpl	$17, %eax
	jne	.LBB74_23
# %bb.22:                               #   in Loop: Header=BB74_8 Depth=2
	jmp	.LBB74_24
.LBB74_23:                              #   in Loop: Header=BB74_8 Depth=2
	movl	$0, -16(%ebp)
	movl	$1056964608, -12(%ebp)          # imm = 0x3F000000
	movl	$0, -8(%ebp)
	movl	-16(%ebp), %eax
	flds	-12(%ebp)
	movl	-8(%ebp), %ecx
	movl	%ecx, 8(%esp)
	fstps	4(%esp)
	movl	%eax, (%esp)
	calll	FF_function_313
.LBB74_24:                              #   in Loop: Header=BB74_8 Depth=2
	jmp	.LBB74_20
.LBB74_25:                              #   in Loop: Header=BB74_1 Depth=1
	jmp	.LBB74_26
.LBB74_26:                              #   in Loop: Header=BB74_1 Depth=1
	leal	.L.str.157, %eax
	movl	%eax, (%esp)
	calll	printf@PLT
	movl	$0, 8(%esp)
	movl	$0, 4(%esp)
	movl	$0, 20(%esp)
	movl	$0, 16(%esp)
	movl	$0, 12(%esp)
	movl	$0, (%esp)
	calll	FF_function_343
	fstp	%st(0)
.LBB74_27:                              #   in Loop: Header=BB74_1 Depth=1
	leal	.L.str.158, %eax
	movl	%eax, (%esp)
	calll	printf@PLT
# %bb.28:                               #   in Loop: Header=BB74_1 Depth=1
	jmp	.LBB74_1
.LBB74_29:
	leal	.L.str.159, %eax
	movl	%eax, (%esp)
	calll	printf@PLT
	leal	.L.str.160, %eax
	movl	%eax, (%esp)
	calll	printf@PLT
.LBB74_30:
	movl	$.L.str.161, (%esp)
	calll	printf@PLT
	movl	$0, (%esi)
	movl	$1056964608, 4(%esi)            # imm = 0x3F000000
	movl	$0, 8(%esi)
	movl	%esi, %eax
	addl	$36, %esp
	popl	%esi
	popl	%ebp
	.cfi_def_cfa %esp, 4
	retl	$4
.Lfunc_end74:
	.size	CF_function_387, .Lfunc_end74-CF_function_387
	.cfi_endproc
                                        # -- End function
	.globl	FF_function_388                 # -- Begin function FF_function_388
	.p2align	4, 0x90
	.type	FF_function_388,@function
FF_function_388:                        # @FF_function_388
	.cfi_startproc
# %bb.0:
	pushl	%ebp
	.cfi_def_cfa_offset 8
	.cfi_offset %ebp, -8
	movl	%esp, %ebp
	.cfi_def_cfa_register %ebp
	subl	$40, %esp
	movl	36(%ebp), %eax
	movl	40(%ebp), %ecx
	movw	32(%ebp), %dx
	fldl	24(%ebp)
	fstp	%st(0)
	movb	20(%ebp), %dl
	movw	16(%ebp), %dx
	flds	12(%ebp)
	fstp	%st(0)
	movw	8(%ebp), %dx
	movl	%eax, -32(%ebp)
	movl	%ecx, -28(%ebp)
	movl	$.L.str.162, (%esp)
	calll	printf@PLT
	movl	$0, -24(%ebp)
	movl	$1056964608, -20(%ebp)          # imm = 0x3F000000
	movl	$0, -16(%ebp)
	movl	$0, -4(%ebp)
	movl	$0, -8(%ebp)
	movl	$.L.str.163, (%esp)
	calll	printf@PLT
	movl	-8(%ebp), %eax
	movl	-4(%ebp), %edx
	addl	$40, %esp
	popl	%ebp
	.cfi_def_cfa %esp, 4
	retl
.Lfunc_end75:
	.size	FF_function_388, .Lfunc_end75-FF_function_388
	.cfi_endproc
                                        # -- End function
	.globl	FF_function_389                 # -- Begin function FF_function_389
	.p2align	4, 0x90
	.type	FF_function_389,@function
FF_function_389:                        # @FF_function_389
	.cfi_startproc
# %bb.0:
	pushl	%ebp
	.cfi_def_cfa_offset 8
	.cfi_offset %ebp, -8
	movl	%esp, %ebp
	.cfi_def_cfa_register %ebp
	subl	$40, %esp
	fldl	20(%ebp)
	fldl	12(%ebp)
	movw	8(%ebp), %ax
	fstpl	-24(%ebp)
	fstpl	-16(%ebp)
	movl	$.L.str.164, (%esp)
	calll	printf@PLT
	movl	$0, -4(%ebp)
	movl	$.L.str.165, (%esp)
	calll	printf@PLT
	flds	-4(%ebp)
	addl	$40, %esp
	popl	%ebp
	.cfi_def_cfa %esp, 4
	retl
.Lfunc_end76:
	.size	FF_function_389, .Lfunc_end76-FF_function_389
	.cfi_endproc
                                        # -- End function
	.globl	FF_function_391                 # -- Begin function FF_function_391
	.p2align	4, 0x90
	.type	FF_function_391,@function
FF_function_391:                        # @FF_function_391
	.cfi_startproc
# %bb.0:
	pushl	%ebp
	.cfi_def_cfa_offset 8
	.cfi_offset %ebp, -8
	movl	%esp, %ebp
	.cfi_def_cfa_register %ebp
	subl	$24, %esp
	movl	16(%ebp), %eax
	movb	12(%ebp), %al
	movw	8(%ebp), %ax
	movl	$.L.str.166, (%esp)
	calll	printf@PLT
	movl	$0, -8(%ebp)
	movl	$0, -4(%ebp)
	movl	$.L.str.167, (%esp)
	calll	printf@PLT
	flds	-4(%ebp)
	addl	$24, %esp
	popl	%ebp
	.cfi_def_cfa %esp, 4
	retl
.Lfunc_end77:
	.size	FF_function_391, .Lfunc_end77-FF_function_391
	.cfi_endproc
                                        # -- End function
	.globl	CF_function_390                 # -- Begin function CF_function_390
	.p2align	4, 0x90
	.type	CF_function_390,@function
CF_function_390:                        # @CF_function_390
	.cfi_startproc
# %bb.0:
	pushl	%ebp
	.cfi_def_cfa_offset 8
	.cfi_offset %ebp, -8
	movl	%esp, %ebp
	.cfi_def_cfa_register %ebp
	pushl	%esi
	subl	$68, %esp
	.cfi_offset %esi, -12
	movl	8(%ebp), %esi
	movw	12(%ebp), %ax
	leal	.L.str.168, %eax
	movl	%eax, (%esp)
	calll	printf@PLT
	leal	.L.str.169, %eax
	movl	%eax, (%esp)
	calll	printf@PLT
	movl	$3, -8(%ebp)
.LBB78_1:                               # =>This Loop Header: Depth=1
                                        #     Child Loop BB78_9 Depth 2
                                        #       Child Loop BB78_18 Depth 3
	cmpl	$8859, -8(%ebp)                 # imm = 0x229B
	je	.LBB78_61
# %bb.2:                                #   in Loop: Header=BB78_1 Depth=1
	movl	-8(%ebp), %eax
	leal	.L.str.170, %ecx
	movl	%ecx, (%esp)
	movl	%eax, 4(%esp)
	calll	printf@PLT
	leal	.L.str.171, %eax
	movl	%eax, (%esp)
	calll	printf@PLT
	calll	getchar@PLT
	cmpl	$97, %eax
	jne	.LBB78_4
# %bb.3:
	movl	$1923, (%esp)                   # imm = 0x783
	calll	exit@PLT
.LBB78_4:                               #   in Loop: Header=BB78_1 Depth=1
	calll	getchar@PLT
	cmpl	$31, %eax
	jne	.LBB78_6
# %bb.5:
	jmp	.LBB78_64
.LBB78_6:                               #   in Loop: Header=BB78_1 Depth=1
	calll	getchar@PLT
	cmpl	$19, %eax
	jne	.LBB78_8
# %bb.7:
	jmp	.LBB78_62
.LBB78_8:                               #   in Loop: Header=BB78_1 Depth=1
	movl	$0, -40(%ebp)
	movl	$1056964608, -36(%ebp)          # imm = 0x3F000000
	movl	$0, -32(%ebp)
	movl	-40(%ebp), %eax
	flds	-36(%ebp)
	movl	-32(%ebp), %ecx
	movl	%ecx, 8(%esp)
	fstps	4(%esp)
	movl	%eax, (%esp)
	calll	FF_function_359
	leal	.L.str.172, %eax
	movl	%eax, (%esp)
	calll	printf@PLT
.LBB78_9:                               #   Parent Loop BB78_1 Depth=1
                                        # =>  This Loop Header: Depth=2
                                        #       Child Loop BB78_18 Depth 3
	leal	.L.str.173, %eax
	movl	%eax, (%esp)
	calll	printf@PLT
	xorl	%eax, %eax
	movl	$0, (%esp)
	calll	FF_function_383
	fstp	%st(0)
	calll	getchar@PLT
	cmpl	$23, %eax
	jne	.LBB78_11
# %bb.10:                               #   in Loop: Header=BB78_1 Depth=1
	jmp	.LBB78_54
.LBB78_11:                              #   in Loop: Header=BB78_9 Depth=2
	calll	getchar@PLT
	cmpl	$97, %eax
	jne	.LBB78_13
# %bb.12:
	movl	$1923, (%esp)                   # imm = 0x783
	calll	exit@PLT
.LBB78_13:                              #   in Loop: Header=BB78_9 Depth=2
	calll	getchar@PLT
	cmpl	$31, %eax
	jne	.LBB78_15
# %bb.14:
	jmp	.LBB78_64
.LBB78_15:                              #   in Loop: Header=BB78_9 Depth=2
	calll	getchar@PLT
	cmpl	$73, %eax
	jne	.LBB78_17
# %bb.16:
	leal	.L.str.174, %eax
	movl	%eax, (%esp)
	calll	printf@PLT
	jmp	.LBB78_62
.LBB78_17:                              #   in Loop: Header=BB78_9 Depth=2
	movl	$0, -24(%ebp)
	movl	$1056964608, -20(%ebp)          # imm = 0x3F000000
	movl	$0, -16(%ebp)
	movl	-24(%ebp), %eax
	flds	-20(%ebp)
	movl	-16(%ebp), %ecx
	movl	%ecx, 8(%esp)
	fstps	4(%esp)
	movl	%eax, (%esp)
	calll	FF_function_349
	leal	.L.str.175, %eax
	movl	%eax, (%esp)
	calll	printf@PLT
.LBB78_18:                              #   Parent Loop BB78_1 Depth=1
                                        #     Parent Loop BB78_9 Depth=2
                                        # =>    This Inner Loop Header: Depth=3
	leal	.L.str.176, %eax
	movl	%eax, (%esp)
	calll	printf@PLT
	leal	.L.str.177, %eax
	movl	%eax, (%esp)
	calll	printf@PLT
	calll	getchar@PLT
	cmpl	$31, %eax
	jne	.LBB78_20
# %bb.19:
	jmp	.LBB78_64
.LBB78_20:                              #   in Loop: Header=BB78_18 Depth=3
	calll	getchar@PLT
	cmpl	$19, %eax
	jne	.LBB78_22
# %bb.21:                               #   in Loop: Header=BB78_9 Depth=2
	jmp	.LBB78_48
.LBB78_22:                              #   in Loop: Header=BB78_18 Depth=3
	calll	getchar@PLT
	cmpl	$83, %eax
	jne	.LBB78_24
# %bb.23:                               #   in Loop: Header=BB78_9 Depth=2
	leal	.L.str.178, %eax
	movl	%eax, (%esp)
	calll	printf@PLT
	jmp	.LBB78_49
.LBB78_24:                              #   in Loop: Header=BB78_18 Depth=3
	calll	getchar@PLT
	cmpl	$73, %eax
	jne	.LBB78_26
# %bb.25:
	leal	.L.str.179, %eax
	movl	%eax, (%esp)
	calll	printf@PLT
	jmp	.LBB78_62
.LBB78_26:                              #   in Loop: Header=BB78_18 Depth=3
	leal	.L.str.180, %eax
	movl	%eax, (%esp)
	calll	printf@PLT
	calll	getchar@PLT
	cmpl	$79, %eax
	jne	.LBB78_41
# %bb.27:
	leal	.L.str.181, %eax
	movl	%eax, (%esp)
	calll	printf@PLT
	movl	$8, -12(%ebp)
.LBB78_28:                              # =>This Inner Loop Header: Depth=1
	movl	-12(%ebp), %eax
	leal	.L.str.182, %ecx
	movl	%ecx, (%esp)
	movl	%eax, 4(%esp)
	calll	printf@PLT
	leal	.L.str.183, %eax
	movl	%eax, (%esp)
	calll	printf@PLT
	leal	.L.str.184, %eax
	movl	%eax, (%esp)
	calll	printf@PLT
	calll	getchar@PLT
	cmpl	$79, %eax
	jne	.LBB78_37
# %bb.29:
	leal	.L.str.185, %eax
	movl	%eax, (%esp)
	calll	printf@PLT
.LBB78_30:                              # =>This Inner Loop Header: Depth=1
	leal	.L.str.186, %eax
	movl	%eax, (%esp)
	calll	printf@PLT
	leal	.L.str.187, %eax
	movl	%eax, (%esp)
	calll	printf@PLT
	calll	getchar@PLT
	cmpl	$73, %eax
	jne	.LBB78_32
# %bb.31:
	leal	.L.str.188, %eax
	movl	%eax, (%esp)
	calll	printf@PLT
	jmp	.LBB78_62
.LBB78_32:                              #   in Loop: Header=BB78_30 Depth=1
	leal	.L.str.189, %eax
	movl	%eax, (%esp)
	calll	printf@PLT
	calll	getchar@PLT
	cmpl	$67, %eax
	jne	.LBB78_35
# %bb.33:                               #   in Loop: Header=BB78_30 Depth=1
	jmp	.LBB78_34
.LBB78_34:                              # %.backedge
                                        #   in Loop: Header=BB78_30 Depth=1
	jmp	.LBB78_30
.LBB78_35:                              #   in Loop: Header=BB78_30 Depth=1
	leal	.L.str.190, %eax
	movl	%eax, (%esp)
	calll	printf@PLT
# %bb.36:                               #   in Loop: Header=BB78_30 Depth=1
	jmp	.LBB78_34
.LBB78_37:                              #   in Loop: Header=BB78_28 Depth=1
	jmp	.LBB78_38
.LBB78_38:                              #   in Loop: Header=BB78_28 Depth=1
	leal	.L.str.191, %eax
	movl	%eax, (%esp)
	calll	printf@PLT
	leal	.L.str.192, %eax
	movl	%eax, (%esp)
	calll	printf@PLT
# %bb.39:                               #   in Loop: Header=BB78_28 Depth=1
	calll	FF_function_373
# %bb.40:                               #   in Loop: Header=BB78_28 Depth=1
	movl	-12(%ebp), %eax
	addl	$1, %eax
	movl	%eax, -12(%ebp)
	jmp	.LBB78_28
.LBB78_41:                              #   in Loop: Header=BB78_18 Depth=3
	jmp	.LBB78_42
.LBB78_42:                              #   in Loop: Header=BB78_18 Depth=3
	leal	.L.str.193, %eax
	movl	%eax, (%esp)
	calll	printf@PLT
	movl	$0, 8(%esp)
	movl	$0, 4(%esp)
	movl	$0, (%esp)
	calll	FF_function_326
# %bb.43:                               #   in Loop: Header=BB78_18 Depth=3
	calll	getchar@PLT
	cmpl	$67, %eax
	jne	.LBB78_46
# %bb.44:                               #   in Loop: Header=BB78_18 Depth=3
	jmp	.LBB78_45
.LBB78_45:                              # %.backedge1
                                        #   in Loop: Header=BB78_18 Depth=3
	jmp	.LBB78_18
.LBB78_46:                              #   in Loop: Header=BB78_18 Depth=3
	leal	.L.str.194, %eax
	movl	%eax, (%esp)
	calll	printf@PLT
# %bb.47:                               #   in Loop: Header=BB78_18 Depth=3
	jmp	.LBB78_45
.LBB78_48:                              #   in Loop: Header=BB78_9 Depth=2
	leal	.L.str.195, %eax
	movl	%eax, (%esp)
	calll	printf@PLT
	calll	FF_function_375
.LBB78_49:                              #   in Loop: Header=BB78_9 Depth=2
	calll	getchar@PLT
	cmpl	$67, %eax
	jne	.LBB78_52
# %bb.50:                               #   in Loop: Header=BB78_9 Depth=2
	jmp	.LBB78_51
.LBB78_51:                              # %.backedge2
                                        #   in Loop: Header=BB78_9 Depth=2
	jmp	.LBB78_9
.LBB78_52:                              #   in Loop: Header=BB78_9 Depth=2
	movl	$0, 8(%esp)
	movl	$0, 4(%esp)
	movl	$0, 20(%esp)
	movl	$0, 16(%esp)
	movl	$0, 12(%esp)
	movl	$0, (%esp)
	calll	FF_function_343
	fstp	%st(0)
# %bb.53:                               #   in Loop: Header=BB78_9 Depth=2
	jmp	.LBB78_51
.LBB78_54:                              #   in Loop: Header=BB78_1 Depth=1
	jmp	.LBB78_55
.LBB78_55:                              #   in Loop: Header=BB78_1 Depth=1
	leal	.L.str.196, %eax
	movl	%eax, (%esp)
	calll	printf@PLT
	leal	.L.str.197, %eax
	movl	%eax, (%esp)
	calll	printf@PLT
# %bb.56:                               #   in Loop: Header=BB78_1 Depth=1
	calll	getchar@PLT
	cmpl	$67, %eax
	jne	.LBB78_59
# %bb.57:                               #   in Loop: Header=BB78_1 Depth=1
	jmp	.LBB78_58
.LBB78_58:                              # %.backedge3
                                        #   in Loop: Header=BB78_1 Depth=1
	jmp	.LBB78_1
.LBB78_59:                              #   in Loop: Header=BB78_1 Depth=1
	xorl	%eax, %eax
	movl	$0, (%esp)
	movl	$0, 4(%esp)
	movl	$0, 8(%esp)
	calll	FF_function_391
	fstp	%st(0)
# %bb.60:                               #   in Loop: Header=BB78_1 Depth=1
	movl	-8(%ebp), %eax
	addl	$11, %eax
	movl	%eax, -8(%ebp)
	jmp	.LBB78_58
.LBB78_61:
	jmp	.LBB78_62
.LBB78_62:
	leal	.L.str.198, %eax
	movl	%eax, (%esp)
	calll	printf@PLT
	leal	.L.str.199, %eax
	movl	%eax, (%esp)
	calll	printf@PLT
# %bb.63:
	movl	$.L.str.200, (%esp)
	calll	printf@PLT
	movl	$0, 4(%esi)
	movl	$0, (%esi)
.LBB78_64:
	movl	%esi, %eax
	addl	$68, %esp
	popl	%esi
	popl	%ebp
	.cfi_def_cfa %esp, 4
	retl	$4
.Lfunc_end78:
	.size	CF_function_390, .Lfunc_end78-CF_function_390
	.cfi_endproc
                                        # -- End function
	.section	.rodata.cst8,"aM",@progbits,8
	.p2align	3                               # -- Begin function CF_function_392
.LCPI79_0:
	.quad	0x402247ae147ae148              # double 9.1400000000000005
.LCPI79_1:
	.quad	0x40a4ee851eb851ec              # double 2679.2600000000002
	.text
	.globl	CF_function_392
	.p2align	4, 0x90
	.type	CF_function_392,@function
CF_function_392:                        # @CF_function_392
	.cfi_startproc
# %bb.0:
	pushl	%ebp
	.cfi_def_cfa_offset 8
	.cfi_offset %ebp, -8
	movl	%esp, %ebp
	.cfi_def_cfa_register %ebp
	pushl	%esi
	subl	$52, %esp
	.cfi_offset %esi, -12
	movl	8(%ebp), %esi
	movw	12(%ebp), %ax
	leal	.L.str.201, %eax
	movl	%eax, (%esp)
	calll	printf@PLT
	leal	.L.str.202, %eax
	movl	%eax, (%esp)
	calll	printf@PLT
.LBB79_1:                               # =>This Loop Header: Depth=1
                                        #     Child Loop BB79_11 Depth 2
                                        #       Child Loop BB79_20 Depth 3
                                        #     Child Loop BB79_40 Depth 2
	movl	$.L.str.203, (%esp)
	calll	printf@PLT
	movl	$0, -40(%ebp)
	movl	$1056964608, -36(%ebp)          # imm = 0x3F000000
	movl	$0, -32(%ebp)
	movl	-40(%ebp), %eax
	flds	-36(%ebp)
	movl	-32(%ebp), %ecx
	movl	%ecx, 8(%esp)
	fstps	4(%esp)
	movl	%eax, (%esp)
	calll	FF_function_346
	calll	getchar@PLT
	cmpl	$97, %eax
	jne	.LBB79_3
# %bb.2:
	movl	$1923, (%esp)                   # imm = 0x783
	calll	exit@PLT
.LBB79_3:                               #   in Loop: Header=BB79_1 Depth=1
	calll	getchar@PLT
	cmpl	$31, %eax
	jne	.LBB79_5
# %bb.4:
	jmp	.LBB79_55
.LBB79_5:                               #   in Loop: Header=BB79_1 Depth=1
	calll	getchar@PLT
	cmpl	$19, %eax
	jne	.LBB79_7
# %bb.6:
	jmp	.LBB79_53
.LBB79_7:                               #   in Loop: Header=BB79_1 Depth=1
	calll	getchar@PLT
	cmpl	$83, %eax
	jne	.LBB79_9
# %bb.8:
	leal	.L.str.204, %eax
	movl	%eax, (%esp)
	calll	printf@PLT
	jmp	.LBB79_54
.LBB79_9:                               #   in Loop: Header=BB79_1 Depth=1
	leal	.L.str.205, %eax
	movl	%eax, (%esp)
	calll	printf@PLT
	calll	getchar@PLT
	cmpl	$79, %eax
	jne	.LBB79_37
# %bb.10:                               #   in Loop: Header=BB79_1 Depth=1
	leal	.L.str.206, %eax
	movl	%eax, (%esp)
	calll	printf@PLT
.LBB79_11:                              #   Parent Loop BB79_1 Depth=1
                                        # =>  This Loop Header: Depth=2
                                        #       Child Loop BB79_20 Depth 3
	leal	.L.str.207, %eax
	movl	%eax, (%esp)
	calll	printf@PLT
	leal	.L.str.208, %eax
	movl	%eax, (%esp)
	calll	printf@PLT
	calll	getchar@PLT
	cmpl	$97, %eax
	jne	.LBB79_13
# %bb.12:
	movl	$1923, (%esp)                   # imm = 0x783
	calll	exit@PLT
.LBB79_13:                              #   in Loop: Header=BB79_11 Depth=2
	calll	getchar@PLT
	cmpl	$31, %eax
	jne	.LBB79_15
# %bb.14:
	jmp	.LBB79_55
.LBB79_15:                              #   in Loop: Header=BB79_11 Depth=2
	calll	getchar@PLT
	cmpl	$83, %eax
	jne	.LBB79_17
# %bb.16:                               #   in Loop: Header=BB79_1 Depth=1
	leal	.L.str.209, %eax
	movl	%eax, (%esp)
	calll	printf@PLT
	jmp	.LBB79_39
.LBB79_17:                              #   in Loop: Header=BB79_11 Depth=2
	calll	getchar@PLT
	cmpl	$73, %eax
	jne	.LBB79_19
# %bb.18:
	leal	.L.str.210, %eax
	movl	%eax, (%esp)
	calll	printf@PLT
	jmp	.LBB79_53
.LBB79_19:                              #   in Loop: Header=BB79_11 Depth=2
	leal	.L.str.211, %eax
	movl	%eax, (%esp)
	calll	printf@PLT
	leal	.L.str.212, %eax
	movl	%eax, (%esp)
	calll	printf@PLT
.LBB79_20:                              #   Parent Loop BB79_1 Depth=1
                                        #     Parent Loop BB79_11 Depth=2
                                        # =>    This Inner Loop Header: Depth=3
	leal	.L.str.213, %eax
	movl	%eax, (%esp)
	calll	printf@PLT
	leal	.L.str.214, %eax
	movl	%eax, (%esp)
	calll	printf@PLT
	calll	getchar@PLT
	cmpl	$97, %eax
	jne	.LBB79_22
# %bb.21:
	movl	$1923, (%esp)                   # imm = 0x783
	calll	exit@PLT
.LBB79_22:                              #   in Loop: Header=BB79_20 Depth=3
	calll	getchar@PLT
	cmpl	$19, %eax
	jne	.LBB79_24
# %bb.23:                               #   in Loop: Header=BB79_11 Depth=2
	jmp	.LBB79_30
.LBB79_24:                              #   in Loop: Header=BB79_20 Depth=3
	calll	getchar@PLT
	cmpl	$73, %eax
	jne	.LBB79_26
# %bb.25:
	leal	.L.str.215, %eax
	movl	%eax, (%esp)
	calll	printf@PLT
	jmp	.LBB79_53
.LBB79_26:                              #   in Loop: Header=BB79_20 Depth=3
	leal	.L.str.216, %eax
	movl	%eax, (%esp)
	calll	printf@PLT
	calll	getchar@PLT
	cmpl	$17, %eax
	jne	.LBB79_28
# %bb.27:                               #   in Loop: Header=BB79_20 Depth=3
	jmp	.LBB79_29
.LBB79_28:                              #   in Loop: Header=BB79_20 Depth=3
	leal	.L.str.217, %eax
	movl	%eax, (%esp)
	calll	printf@PLT
.LBB79_29:                              #   in Loop: Header=BB79_20 Depth=3
	jmp	.LBB79_20
.LBB79_30:                              #   in Loop: Header=BB79_11 Depth=2
	leal	.L.str.218, %eax
	movl	%eax, (%esp)
	calll	printf@PLT
	leal	.L.str.219, %eax
	movl	%eax, (%esp)
	calll	printf@PLT
# %bb.31:                               #   in Loop: Header=BB79_11 Depth=2
	calll	getchar@PLT
	cmpl	$17, %eax
	jne	.LBB79_33
# %bb.32:                               #   in Loop: Header=BB79_11 Depth=2
	jmp	.LBB79_34
.LBB79_33:                              #   in Loop: Header=BB79_11 Depth=2
	movl	$0, -24(%ebp)
	movl	$1056964608, -20(%ebp)          # imm = 0x3F000000
	movl	$0, -16(%ebp)
	movl	-24(%ebp), %eax
	flds	-20(%ebp)
	movl	-16(%ebp), %ecx
	movl	%ecx, 8(%esp)
	fstps	4(%esp)
	movl	%eax, (%esp)
	calll	FF_function_359
.LBB79_34:                              #   in Loop: Header=BB79_11 Depth=2
	jmp	.LBB79_35
.LBB79_35:                              #   in Loop: Header=BB79_11 Depth=2
	movb	$1, %al
	testb	$1, %al
	jne	.LBB79_11
	jmp	.LBB79_36
.LBB79_36:                              #   in Loop: Header=BB79_1 Depth=1
	jmp	.LBB79_37
.LBB79_37:                              #   in Loop: Header=BB79_1 Depth=1
	jmp	.LBB79_38
.LBB79_38:                              #   in Loop: Header=BB79_1 Depth=1
	leal	.L.str.220, %eax
	movl	%eax, (%esp)
	calll	printf@PLT
	leal	.L.str.221, %eax
	movl	%eax, (%esp)
	calll	printf@PLT
.LBB79_39:                              #   in Loop: Header=BB79_1 Depth=1
	movl	$.L.str.222, (%esp)
	calll	printf@PLT
	movl	$1159879721, -8(%ebp)           # imm = 0x45225C29
.LBB79_40:                              #   Parent Loop BB79_1 Depth=1
                                        # =>  This Inner Loop Header: Depth=2
	leal	.L.str.223, %eax
	movl	%eax, (%esp)
	calll	printf@PLT
	calll	getchar@PLT
# %bb.41:                               #   in Loop: Header=BB79_40 Depth=2
	flds	-8(%ebp)
	fldl	.LCPI79_0
	faddp	%st, %st(1)
	fstps	-44(%ebp)
	flds	-44(%ebp)
	fstps	-8(%ebp)
# %bb.42:                               #   in Loop: Header=BB79_40 Depth=2
	flds	-8(%ebp)
	fldl	.LCPI79_1
	fucompi	%st(1), %st
	fstp	%st(0)
	jae	.LBB79_40
	jmp	.LBB79_43
.LBB79_43:                              #   in Loop: Header=BB79_1 Depth=1
	jmp	.LBB79_44
.LBB79_44:                              #   in Loop: Header=BB79_1 Depth=1
	leal	.L.str.224, %eax
	movl	%eax, (%esp)
	calll	printf@PLT
	leal	.L.str.225, %eax
	movl	%eax, (%esp)
	calll	printf@PLT
# %bb.45:                               #   in Loop: Header=BB79_1 Depth=1
	calll	getchar@PLT
	cmpl	$67, %eax
	jne	.LBB79_47
# %bb.46:                               #   in Loop: Header=BB79_1 Depth=1
	jmp	.LBB79_51
.LBB79_47:                              #   in Loop: Header=BB79_1 Depth=1
	calll	getchar@PLT
	cmpl	$17, %eax
	jne	.LBB79_49
# %bb.48:                               #   in Loop: Header=BB79_1 Depth=1
	jmp	.LBB79_50
.LBB79_49:                              #   in Loop: Header=BB79_1 Depth=1
	leal	.L.str.226, %eax
	movl	%eax, (%esp)
	calll	printf@PLT
.LBB79_50:                              #   in Loop: Header=BB79_1 Depth=1
	jmp	.LBB79_51
.LBB79_51:                              #   in Loop: Header=BB79_1 Depth=1
	movb	$1, %al
	testb	$1, %al
	jne	.LBB79_1
	jmp	.LBB79_52
.LBB79_52:
	jmp	.LBB79_53
.LBB79_53:
	leal	.L.str.227, %eax
	movl	%eax, (%esp)
	calll	printf@PLT
	leal	.L.str.228, %eax
	movl	%eax, (%esp)
	calll	printf@PLT
.LBB79_54:
	leal	.L.str.229, %eax
	movl	%eax, (%esp)
	calll	printf@PLT
	movb	$0, (%esi)
.LBB79_55:
	movl	%esi, %eax
	addl	$52, %esp
	popl	%esi
	popl	%ebp
	.cfi_def_cfa %esp, 4
	retl	$4
.Lfunc_end79:
	.size	CF_function_392, .Lfunc_end79-CF_function_392
	.cfi_endproc
                                        # -- End function
	.section	.rodata.cst4,"aM",@progbits,4
	.p2align	2                               # -- Begin function main
.LCPI80_0:
	.long	0x45302000                      # float 2818
.LCPI80_2:
	.long	0x452bd000                      # float 2749
.LCPI80_3:
	.long	0x4527d000                      # float 2685
.LCPI80_4:
	.long	0x450e6000                      # float 2278
.LCPI80_5:
	.long	0x45145000                      # float 2373
	.section	.rodata.cst8,"aM",@progbits,8
	.p2align	3
.LCPI80_1:
	.quad	0x40a57a0000000000              # double 2749
	.text
	.globl	main
	.p2align	4, 0x90
	.type	main,@function
main:                                   # @main
	.cfi_startproc
# %bb.0:
	pushl	%ebp
	.cfi_def_cfa_offset 8
	.cfi_offset %ebp, -8
	movl	%esp, %ebp
	.cfi_def_cfa_register %ebp
	pushl	%ebx
	pushl	%edi
	pushl	%esi
	subl	$956, %esp                      # imm = 0x3BC
	.cfi_offset %esi, -20
	.cfi_offset %edi, -16
	.cfi_offset %ebx, -12
	movl	$0, -40(%ebp)
	movl	$.L.str.230, (%esp)
	calll	printf@PLT
	movl	$.L.str.231, (%esp)
	calll	printf@PLT
	movl	$0, 16(%esp)
	movl	$0, 12(%esp)
	movl	$0, 8(%esp)
	movl	$0, 4(%esp)
	movl	$0, (%esp)
	calll	FF_function_316
	movzbl	%al, %eax
	movl	%eax, 4(%esp)
	leal	-520(%ebp), %eax
	movl	%eax, (%esp)
	movl	$0, 12(%esp)
	movl	$0, 8(%esp)
	calll	FF_function_315
	subl	$4, %esp
	movl	-520(%ebp), %eax
	flds	-516(%ebp)
	movl	-512(%ebp), %ecx
	movl	%ecx, 8(%esp)
	fstps	4(%esp)
	movl	%eax, (%esp)
	movl	$0, 16(%esp)
	movl	$0, 12(%esp)
	calll	FF_function_313
	movl	%edx, 4(%esp)
	movl	%eax, (%esp)
	movl	$0, 12(%esp)
	movl	$0, 8(%esp)
	calll	FF_function_311
	movl	$.L.str.232, (%esp)
	calll	printf@PLT
	movl	$0, -876(%ebp)
	movl	$0, -880(%ebp)
	movl	$.L.str.233, (%esp)
	calll	printf@PLT
	movl	$0, (%esp)
	calll	FF_function_325
	movl	$.L.str.234, (%esp)
	calll	printf@PLT
	calll	FF_function_373
	movl	$.L.str.235, (%esp)
	calll	printf@PLT
	movl	$.L.str.236, (%esp)
	calll	printf@PLT
	movl	$.L.str.237, (%esp)
	calll	printf@PLT
	movl	$0, -872(%ebp)
	movl	$0, -860(%ebp)
	movl	$0, -864(%ebp)
	movl	$0, -488(%ebp)
	movl	$1056964608, -484(%ebp)         # imm = 0x3F000000
	movl	$0, -480(%ebp)
	movl	-488(%ebp), %eax
	flds	-484(%ebp)
	movl	-480(%ebp), %ecx
	movl	%ecx, 8(%esp)
	fstps	4(%esp)
	movl	%eax, (%esp)
	calll	FF_function_346
	movl	$.L.str.238, (%esp)
	calll	printf@PLT
	movl	$0, -856(%ebp)
	movl	$1056964608, -852(%ebp)         # imm = 0x3F000000
	movl	$0, -848(%ebp)
	movl	$0, (%esp)
	calll	FF_function_357
	movl	$.L.str.239, (%esp)
	calll	printf@PLT
	movl	$0, 8(%esp)
	movl	$0, 4(%esp)
	movl	$0, (%esp)
	calll	FF_function_326
	movl	$.L.str.240, (%esp)
	calll	printf@PLT
	movl	$0, -840(%ebp)
	movl	$0, -828(%ebp)
	movl	$0, -832(%ebp)
	movl	$.L.str.241, (%esp)
	calll	printf@PLT
	movl	$.L.str.242, (%esp)
	calll	printf@PLT
	movl	$.L.str.243, (%esp)
	calll	printf@PLT
	movl	$0, 8(%esp)
	movl	$0, 4(%esp)
	movl	$0, 20(%esp)
	movl	$0, 16(%esp)
	movl	$0, 12(%esp)
	movl	$0, (%esp)
	calll	FF_function_343
	fstpl	4(%esp)
	movl	$0, 20(%esp)
	movl	$0, 16(%esp)
	movl	$0, 12(%esp)
	movl	$0, (%esp)
	calll	FF_function_343
	fstp	%st(0)
	movl	$.L.str.244, (%esp)
	calll	printf@PLT
	movl	$0, -820(%ebp)
	movl	$0, -824(%ebp)
	movl	$0, -472(%ebp)
	movl	$1056964608, -468(%ebp)         # imm = 0x3F000000
	movl	$0, -464(%ebp)
	movl	-472(%ebp), %eax
	flds	-468(%ebp)
	movl	-464(%ebp), %ecx
	movl	%ecx, 8(%esp)
	fstps	4(%esp)
	movl	%eax, (%esp)
	movl	$0, 16(%esp)
	movl	$0, 12(%esp)
	calll	FF_function_385
	movb	%al, %bl
	movl	$0, (%esp)
	calll	CF_function_386
	movl	%edx, 28(%esp)
	movl	%eax, 24(%esp)
	movzbl	%bl, %eax
	movl	%eax, 8(%esp)
	movl	$0, 52(%esp)
	movl	$0, 48(%esp)
	movl	$0, 44(%esp)
	movl	$0, 40(%esp)
	movl	$0, 36(%esp)
	movl	$0, 32(%esp)
	movl	$0, 20(%esp)
	movl	$0, 16(%esp)
	movl	$0, 12(%esp)
	movl	$0, 4(%esp)
	movl	$0, (%esp)
	calll	FF_function_380
	fstp	%st(0)
	calll	FF_function_376
	movl	$0, -812(%ebp)
	movl	$0, -816(%ebp)
	movl	$.L.str.245, (%esp)
	calll	printf@PLT
	movl	$0, -808(%ebp)
	movl	$0, -796(%ebp)
	movl	$0, -800(%ebp)
	leal	.L.str.246, %eax
	movl	%eax, (%esp)
	calll	printf@PLT
	calll	FF_function_363
	leal	-904(%ebp), %eax
	xorl	%ecx, %ecx
	movl	%eax, (%esp)
	movl	$0, 4(%esp)
	calll	CF_function_387
	subl	$4, %esp
	movl	$0, 8(%esp)
	movl	$0, 4(%esp)
	movl	$0, 20(%esp)
	movl	$0, 16(%esp)
	movl	$0, 12(%esp)
	movl	$0, (%esp)
	calll	FF_function_343
	fstp	%st(0)
	leal	-792(%ebp), %eax
	movl	%eax, (%esp)
	calll	FF_function_370
	subl	$4, %esp
	xorl	%eax, %eax
	movl	$0, (%esp)
	calll	FF_function_383
	fstp	%st(0)
	xorl	%eax, %eax
	movl	$0, 52(%esp)
	movl	$0, 48(%esp)
	movl	$0, 44(%esp)
	movl	$0, 40(%esp)
	movl	$0, 36(%esp)
	movl	$0, 32(%esp)
	movl	$0, 28(%esp)
	movl	$0, 24(%esp)
	movl	$0, 20(%esp)
	movl	$0, 16(%esp)
	movl	$0, 12(%esp)
	movl	$0, 8(%esp)
	movl	$0, 4(%esp)
	movl	$0, (%esp)
	calll	FF_function_380
	fstps	(%esp)
	movl	$0, 8(%esp)
	movl	$0, 4(%esp)
	movl	$0, 20(%esp)
	movl	$0, 16(%esp)
	movl	$0, 12(%esp)
	calll	FF_function_343
	fstp	%st(0)
	leal	.L.str.247, %eax
	movl	%eax, (%esp)
	calll	printf@PLT
	movb	$0, -200(%ebp)
	calll	getchar@PLT
	cmpl	$79, %eax
	jne	.LBB80_66
# %bb.1:
	leal	.L.str.248, %eax
	movl	%eax, (%esp)
	calll	printf@PLT
.LBB80_2:                               # =>This Loop Header: Depth=1
                                        #     Child Loop BB80_5 Depth 2
                                        #       Child Loop BB80_15 Depth 3
                                        #       Child Loop BB80_33 Depth 3
                                        #       Child Loop BB80_51 Depth 3
	leal	.L.str.249, %eax
	movl	%eax, (%esp)
	calll	printf@PLT
	leal	.L.str.250, %eax
	movl	%eax, (%esp)
	calll	printf@PLT
	calll	getchar@PLT
	cmpl	$97, %eax
	jne	.LBB80_4
# %bb.3:
	movl	$1923, (%esp)                   # imm = 0x783
	calll	exit@PLT
.LBB80_4:                               #   in Loop: Header=BB80_2 Depth=1
	leal	.L.str.251, %eax
	movl	%eax, (%esp)
	calll	printf@PLT
	leal	.L.str.252, %eax
	movl	%eax, (%esp)
	calll	printf@PLT
	movl	$8445, -36(%ebp)                # imm = 0x20FD
.LBB80_5:                               #   Parent Loop BB80_2 Depth=1
                                        # =>  This Loop Header: Depth=2
                                        #       Child Loop BB80_15 Depth 3
                                        #       Child Loop BB80_33 Depth 3
                                        #       Child Loop BB80_51 Depth 3
	cmpl	$1, -36(%ebp)
	jl	.LBB80_59
# %bb.6:                                #   in Loop: Header=BB80_5 Depth=2
	movl	-36(%ebp), %eax
	leal	.L.str.253, %ecx
	movl	%ecx, (%esp)
	movl	%eax, 4(%esp)
	calll	printf@PLT
	leal	.L.str.254, %eax
	movl	%eax, (%esp)
	calll	printf@PLT
	calll	getchar@PLT
	cmpl	$23, %eax
	jne	.LBB80_8
# %bb.7:                                #   in Loop: Header=BB80_2 Depth=1
	jmp	.LBB80_60
.LBB80_8:                               #   in Loop: Header=BB80_5 Depth=2
	calll	getchar@PLT
	cmpl	$97, %eax
	jne	.LBB80_10
# %bb.9:
	movl	$1923, (%esp)                   # imm = 0x783
	calll	exit@PLT
.LBB80_10:                              #   in Loop: Header=BB80_5 Depth=2
	calll	getchar@PLT
	cmpl	$19, %eax
	jne	.LBB80_12
# %bb.11:                               #   in Loop: Header=BB80_2 Depth=1
	jmp	.LBB80_61
.LBB80_12:                              #   in Loop: Header=BB80_5 Depth=2
	calll	getchar@PLT
	cmpl	$83, %eax
	jne	.LBB80_14
# %bb.13:                               #   in Loop: Header=BB80_2 Depth=1
	leal	.L.str.255, %eax
	movl	%eax, (%esp)
	calll	printf@PLT
	jmp	.LBB80_62
.LBB80_14:                              #   in Loop: Header=BB80_5 Depth=2
	leal	.L.str.256, %eax
	movl	%eax, (%esp)
	calll	printf@PLT
	leal	.L.str.257, %eax
	movl	%eax, (%esp)
	calll	printf@PLT
.LBB80_15:                              #   Parent Loop BB80_2 Depth=1
                                        #     Parent Loop BB80_5 Depth=2
                                        # =>    This Inner Loop Header: Depth=3
	leal	.L.str.258, %eax
	movl	%eax, (%esp)
	calll	printf@PLT
	leal	.L.str.259, %eax
	movl	%eax, (%esp)
	calll	printf@PLT
	calll	getchar@PLT
	cmpl	$23, %eax
	jne	.LBB80_17
# %bb.16:                               #   in Loop: Header=BB80_5 Depth=2
	jmp	.LBB80_30
.LBB80_17:                              #   in Loop: Header=BB80_15 Depth=3
	calll	getchar@PLT
	cmpl	$97, %eax
	jne	.LBB80_19
# %bb.18:
	movl	$1923, (%esp)                   # imm = 0x783
	calll	exit@PLT
.LBB80_19:                              #   in Loop: Header=BB80_15 Depth=3
	calll	getchar@PLT
	cmpl	$19, %eax
	jne	.LBB80_21
# %bb.20:                               #   in Loop: Header=BB80_5 Depth=2
	jmp	.LBB80_31
.LBB80_21:                              #   in Loop: Header=BB80_15 Depth=3
	calll	getchar@PLT
	cmpl	$73, %eax
	jne	.LBB80_23
# %bb.22:
	leal	.L.str.260, %eax
	movl	%eax, (%esp)
	calll	printf@PLT
	jmp	.LBB80_67
.LBB80_23:                              #   in Loop: Header=BB80_15 Depth=3
	movl	$0, 8(%esp)
	movl	$0, 4(%esp)
	movl	$0, 20(%esp)
	movl	$0, 16(%esp)
	movl	$0, 12(%esp)
	movl	$0, (%esp)
	calll	FF_function_343
	fstpl	4(%esp)
	movl	$0, 20(%esp)
	movl	$0, 16(%esp)
	movl	$0, 12(%esp)
	movl	$0, (%esp)
	calll	FF_function_343
	fstp	%st(0)
	calll	getchar@PLT
	cmpl	$67, %eax
	jne	.LBB80_26
# %bb.24:                               #   in Loop: Header=BB80_15 Depth=3
	jmp	.LBB80_25
.LBB80_25:                              # %.backedge4
                                        #   in Loop: Header=BB80_15 Depth=3
	jmp	.LBB80_15
.LBB80_26:                              #   in Loop: Header=BB80_15 Depth=3
	calll	getchar@PLT
	cmpl	$17, %eax
	jne	.LBB80_28
# %bb.27:                               #   in Loop: Header=BB80_15 Depth=3
	jmp	.LBB80_29
.LBB80_28:                              #   in Loop: Header=BB80_15 Depth=3
	leal	.L.str.261, %eax
	movl	%eax, (%esp)
	calll	printf@PLT
.LBB80_29:                              #   in Loop: Header=BB80_15 Depth=3
	jmp	.LBB80_25
.LBB80_30:                              #   in Loop: Header=BB80_5 Depth=2
	jmp	.LBB80_31
.LBB80_31:                              #   in Loop: Header=BB80_5 Depth=2
	leal	.L.str.262, %eax
	movl	%eax, (%esp)
	calll	printf@PLT
	leal	.L.str.263, %eax
	movl	%eax, (%esp)
	calll	printf@PLT
# %bb.32:                               #   in Loop: Header=BB80_5 Depth=2
	leal	.L.str.264, %eax
	movl	%eax, (%esp)
	calll	printf@PLT
.LBB80_33:                              #   Parent Loop BB80_2 Depth=1
                                        #     Parent Loop BB80_5 Depth=2
                                        # =>    This Inner Loop Header: Depth=3
	leal	.L.str.265, %eax
	movl	%eax, (%esp)
	calll	printf@PLT
	leal	.L.str.266, %eax
	movl	%eax, (%esp)
	calll	printf@PLT
	calll	getchar@PLT
	cmpl	$23, %eax
	jne	.LBB80_35
# %bb.34:                               #   in Loop: Header=BB80_5 Depth=2
	jmp	.LBB80_48
.LBB80_35:                              #   in Loop: Header=BB80_33 Depth=3
	calll	getchar@PLT
	cmpl	$97, %eax
	jne	.LBB80_37
# %bb.36:
	movl	$1923, (%esp)                   # imm = 0x783
	calll	exit@PLT
.LBB80_37:                              #   in Loop: Header=BB80_33 Depth=3
	calll	getchar@PLT
	cmpl	$19, %eax
	jne	.LBB80_39
# %bb.38:                               #   in Loop: Header=BB80_5 Depth=2
	jmp	.LBB80_49
.LBB80_39:                              #   in Loop: Header=BB80_33 Depth=3
	calll	getchar@PLT
	cmpl	$83, %eax
	jne	.LBB80_41
# %bb.40:                               #   in Loop: Header=BB80_5 Depth=2
	leal	.L.str.267, %eax
	movl	%eax, (%esp)
	calll	printf@PLT
	jmp	.LBB80_50
.LBB80_41:                              #   in Loop: Header=BB80_33 Depth=3
	calll	getchar@PLT
	cmpl	$73, %eax
	jne	.LBB80_43
# %bb.42:
	leal	.L.str.268, %eax
	movl	%eax, (%esp)
	calll	printf@PLT
	jmp	.LBB80_67
.LBB80_43:                              #   in Loop: Header=BB80_33 Depth=3
	movl	$0, -456(%ebp)
	movl	$1056964608, -452(%ebp)         # imm = 0x3F000000
	movl	$0, -448(%ebp)
	movl	-456(%ebp), %eax
	flds	-452(%ebp)
	movl	-448(%ebp), %ecx
	movl	%ecx, 8(%esp)
	fstps	4(%esp)
	movl	%eax, (%esp)
	calll	FF_function_385
	calll	getchar@PLT
	cmpl	$67, %eax
	jne	.LBB80_45
# %bb.44:                               #   in Loop: Header=BB80_33 Depth=3
	jmp	.LBB80_47
.LBB80_45:                              #   in Loop: Header=BB80_33 Depth=3
	leal	.L.str.269, %eax
	movl	%eax, (%esp)
	calll	printf@PLT
# %bb.46:                               #   in Loop: Header=BB80_33 Depth=3
	jmp	.LBB80_47
.LBB80_47:                              # %.backedge3
                                        #   in Loop: Header=BB80_33 Depth=3
	jmp	.LBB80_33
.LBB80_48:                              #   in Loop: Header=BB80_5 Depth=2
	jmp	.LBB80_49
.LBB80_49:                              #   in Loop: Header=BB80_5 Depth=2
	leal	.L.str.270, %eax
	movl	%eax, (%esp)
	calll	printf@PLT
	xorl	%eax, %eax
	movl	$0, (%esp)
	calll	FF_function_383
	fstp	%st(0)
.LBB80_50:                              #   in Loop: Header=BB80_5 Depth=2
	leal	.L.str.271, %eax
	movl	%eax, (%esp)
	calll	printf@PLT
	movl	$2608, -212(%ebp)               # imm = 0xA30
.LBB80_51:                              #   Parent Loop BB80_2 Depth=1
                                        #     Parent Loop BB80_5 Depth=2
                                        # =>    This Inner Loop Header: Depth=3
	movl	-212(%ebp), %eax
	movl	%eax, -508(%ebp)
	fildl	-508(%ebp)
	flds	.LCPI80_0
	fxch	%st(1)
	fucompi	%st(1), %st
	fstp	%st(0)
	jne	.LBB80_52
	jp	.LBB80_52
	jmp	.LBB80_55
.LBB80_52:                              #   in Loop: Header=BB80_51 Depth=3
	leal	.L.str.272, %eax
	movl	%eax, (%esp)
	calll	printf@PLT
	calll	getchar@PLT
# %bb.53:                               #   in Loop: Header=BB80_51 Depth=3
	jmp	.LBB80_54
.LBB80_54:                              #   in Loop: Header=BB80_51 Depth=3
	movl	-212(%ebp), %eax
	addl	$14, %eax
	movl	%eax, -212(%ebp)
	jmp	.LBB80_51
.LBB80_55:                              #   in Loop: Header=BB80_5 Depth=2
	jmp	.LBB80_56
.LBB80_56:                              #   in Loop: Header=BB80_5 Depth=2
	leal	.L.str.273, %eax
	movl	%eax, (%esp)
	calll	printf@PLT
	leal	.L.str.274, %eax
	movl	%eax, (%esp)
	calll	printf@PLT
# %bb.57:                               #   in Loop: Header=BB80_5 Depth=2
	leal	.L.str.275, %eax
	movl	%eax, (%esp)
	calll	printf@PLT
# %bb.58:                               #   in Loop: Header=BB80_5 Depth=2
	calll	getchar@PLT
	movl	-36(%ebp), %ecx
	subl	%eax, %ecx
	movl	%ecx, -36(%ebp)
	jmp	.LBB80_5
.LBB80_59:                              # %.loopexit5
                                        #   in Loop: Header=BB80_2 Depth=1
	jmp	.LBB80_60
.LBB80_60:                              #   in Loop: Header=BB80_2 Depth=1
	jmp	.LBB80_61
.LBB80_61:                              #   in Loop: Header=BB80_2 Depth=1
	leal	.L.str.276, %eax
	movl	%eax, (%esp)
	calll	printf@PLT
	leal	.L.str.277, %eax
	movl	%eax, (%esp)
	calll	printf@PLT
.LBB80_62:                              #   in Loop: Header=BB80_2 Depth=1
	movl	$0, -440(%ebp)
	movl	$1056964608, -436(%ebp)         # imm = 0x3F000000
	movl	$0, -432(%ebp)
	movl	-440(%ebp), %eax
	flds	-436(%ebp)
	movl	-432(%ebp), %ecx
	movl	%ecx, 8(%esp)
	fstps	4(%esp)
	movl	%eax, (%esp)
	calll	FF_function_313
# %bb.63:                               #   in Loop: Header=BB80_2 Depth=1
	jmp	.LBB80_64
.LBB80_64:                              #   in Loop: Header=BB80_2 Depth=1
	movb	$1, %al
	testb	$1, %al
	jne	.LBB80_2
	jmp	.LBB80_65
.LBB80_65:
	jmp	.LBB80_66
.LBB80_66:
	jmp	.LBB80_67
.LBB80_67:
	leal	.L.str.278, %eax
	movl	%eax, (%esp)
	calll	printf@PLT
	leal	.L.str.279, %eax
	movl	%eax, (%esp)
	calll	printf@PLT
# %bb.68:
	movl	$.L.str.280, (%esp)
	calll	printf@PLT
	movl	$.L.str.281, (%esp)
	calll	printf@PLT
	calll	FF_function_365
	movl	$0, -424(%ebp)
	movl	$1056964608, -420(%ebp)         # imm = 0x3F000000
	movl	$0, -416(%ebp)
	movl	-424(%ebp), %eax
	flds	-420(%ebp)
	movl	-416(%ebp), %ecx
	movl	%ecx, 8(%esp)
	fstps	4(%esp)
	movl	%eax, (%esp)
	calll	FF_function_349
	movl	$.L.str.282, (%esp)
	calll	printf@PLT
	movl	$0, (%esp)
	calll	FF_function_337
	movl	$0, -784(%ebp)
	movl	$1056964608, -780(%ebp)         # imm = 0x3F000000
	movl	$0, -776(%ebp)
	movl	$0, 20(%esp)
	movl	$0, 16(%esp)
	movl	$0, 32(%esp)
	movl	$0, 28(%esp)
	movl	$0, 24(%esp)
	movl	$0, 12(%esp)
	movl	$0, 8(%esp)
	movl	$0, 4(%esp)
	movl	$0, (%esp)
	calll	FF_function_388
	movl	$.L.str.283, (%esp)
	calll	printf@PLT
	movl	$.L.str.284, (%esp)
	calll	printf@PLT
	movl	$.L.str.285, (%esp)
	calll	printf@PLT
	movl	$0, -764(%ebp)
	movl	$0, -768(%ebp)
	movl	$.L.str.286, (%esp)
	calll	printf@PLT
	movl	$.L.str.287, (%esp)
	calll	printf@PLT
	calll	FF_function_365
	movzbl	%al, %eax
	movl	%eax, (%esp)
	movl	$0, 8(%esp)
	movl	$0, 4(%esp)
	calll	FF_function_355
	movl	$.L.str.288, (%esp)
	calll	printf@PLT
	movl	$.L.str.289, (%esp)
	calll	printf@PLT
	movl	$0, 8(%esp)
	movl	$0, 4(%esp)
	movl	$0, 20(%esp)
	movl	$0, 16(%esp)
	movl	$0, 12(%esp)
	movl	$0, (%esp)
	calll	FF_function_343
	fstp	%st(0)
	movl	$.L.str.290, (%esp)
	calll	printf@PLT
	movl	$.L.str.291, (%esp)
	calll	printf@PLT
	movl	$0, -760(%ebp)
	movl	$1056964608, -756(%ebp)         # imm = 0x3F000000
	movl	$0, -752(%ebp)
	movl	$0, -740(%ebp)
	movl	$0, -744(%ebp)
	movl	$.L.str.292, (%esp)
	calll	printf@PLT
	movl	$0, (%esp)
	calll	FF_function_331
	movl	$.L.str.293, (%esp)
	calll	printf@PLT
	movl	$.L.str.294, (%esp)
	calll	printf@PLT
	movl	$0, 8(%esp)
	movl	$0, 4(%esp)
	movl	$0, (%esp)
	calll	FF_function_326
	movb	$0, -192(%ebp)
	movl	$.L.str.295, (%esp)
	calll	printf@PLT
	movb	$0, -184(%ebp)
	movl	$.L.str.296, (%esp)
	calll	printf@PLT
	movl	$.L.str.297, (%esp)
	calll	printf@PLT
	movw	$0, -408(%ebp)
	movl	$0, 12(%esp)
	movl	$0, 8(%esp)
	movl	$0, 4(%esp)
	movl	$0, (%esp)
	calll	FF_function_311
	movl	$0, -732(%ebp)
	movl	$0, -736(%ebp)
	movl	$0, -728(%ebp)
	movl	$1056964608, -724(%ebp)         # imm = 0x3F000000
	movl	$0, -720(%ebp)
	movl	$.L.str.298, (%esp)
	calll	printf@PLT
	movl	$0, -400(%ebp)
	movl	$1056964608, -396(%ebp)         # imm = 0x3F000000
	movl	$0, -392(%ebp)
	movl	-400(%ebp), %eax
	flds	-396(%ebp)
	movl	-392(%ebp), %ecx
	movl	%ecx, 8(%esp)
	fstps	4(%esp)
	movl	%eax, (%esp)
	calll	FF_function_346
	movw	$0, -384(%ebp)
	movl	$0, (%esp)
	calll	FF_function_383
	fstp	%st(0)
	movl	$.L.str.299, (%esp)
	calll	printf@PLT
	movl	$.L.str.300, (%esp)
	calll	printf@PLT
	movl	$.L.str.301, (%esp)
	calll	printf@PLT
	movw	$0, -376(%ebp)
	movl	$0, 20(%esp)
	movl	$0, 16(%esp)
	movl	$0, 32(%esp)
	movl	$0, 28(%esp)
	movl	$0, 24(%esp)
	movl	$0, 12(%esp)
	movl	$0, 8(%esp)
	movl	$0, 4(%esp)
	movl	$0, (%esp)
	calll	FF_function_388
	calll	FF_function_363
	movzwl	%ax, %eax
	movl	%eax, 8(%esp)
	movl	$0, 20(%esp)
	movl	$0, 16(%esp)
	movl	$0, 32(%esp)
	movl	$0, 28(%esp)
	movl	$0, 24(%esp)
	movl	$0, 12(%esp)
	movl	$0, 4(%esp)
	movl	$0, (%esp)
	calll	FF_function_388
	movl	$0, -708(%ebp)
	movl	$0, -712(%ebp)
	movl	$.L.str.302, (%esp)
	calll	printf@PLT
	movl	$0, -700(%ebp)
	movl	$0, -704(%ebp)
	movl	$.L.str.303, (%esp)
	calll	printf@PLT
	movl	$.L.str.304, (%esp)
	calll	printf@PLT
	movl	$0, -696(%ebp)
	movl	$.L.str.305, (%esp)
	calll	printf@PLT
	movl	$0, 4(%esp)
	movl	$0, (%esp)
	calll	FF_function_334
	movl	$0, -684(%ebp)
	movl	$0, -688(%ebp)
	movl	$.L.str.306, (%esp)
	calll	printf@PLT
	movl	$.L.str.307, (%esp)
	calll	printf@PLT
	movl	$0, -676(%ebp)
	movl	$0, -680(%ebp)
	movb	$0, -176(%ebp)
	movl	$0, -368(%ebp)
	movl	$1056964608, -364(%ebp)         # imm = 0x3F000000
	movl	$0, -360(%ebp)
	movl	-368(%ebp), %eax
	flds	-364(%ebp)
	movl	-360(%ebp), %ecx
	movl	%ecx, 8(%esp)
	fstps	4(%esp)
	movl	%eax, (%esp)
	calll	FF_function_359
	leal	.L.str.308, %eax
	movl	%eax, (%esp)
	calll	printf@PLT
	leal	.L.str.309, %eax
	movl	%eax, (%esp)
	calll	printf@PLT
.LBB80_69:                              # =>This Loop Header: Depth=1
                                        #     Child Loop BB80_76 Depth 2
                                        #       Child Loop BB80_83 Depth 3
                                        #         Child Loop BB80_88 Depth 4
	leal	.L.str.310, %eax
	movl	%eax, (%esp)
	calll	printf@PLT
	leal	.L.str.311, %eax
	movl	%eax, (%esp)
	calll	printf@PLT
	calll	getchar@PLT
	cmpl	$23, %eax
	jne	.LBB80_71
# %bb.70:
	jmp	.LBB80_118
.LBB80_71:                              #   in Loop: Header=BB80_69 Depth=1
	calll	getchar@PLT
	cmpl	$97, %eax
	jne	.LBB80_73
# %bb.72:
	movl	$1923, (%esp)                   # imm = 0x783
	calll	exit@PLT
.LBB80_73:                              #   in Loop: Header=BB80_69 Depth=1
	calll	getchar@PLT
	cmpl	$83, %eax
	jne	.LBB80_75
# %bb.74:
	leal	.L.str.312, %eax
	movl	%eax, (%esp)
	calll	printf@PLT
	jmp	.LBB80_120
.LBB80_75:                              #   in Loop: Header=BB80_69 Depth=1
	leal	.L.str.313, %eax
	movl	%eax, (%esp)
	calll	printf@PLT
	leal	.L.str.314, %eax
	movl	%eax, (%esp)
	calll	printf@PLT
.LBB80_76:                              #   Parent Loop BB80_69 Depth=1
                                        # =>  This Loop Header: Depth=2
                                        #       Child Loop BB80_83 Depth 3
                                        #         Child Loop BB80_88 Depth 4
	leal	.L.str.315, %eax
	movl	%eax, (%esp)
	calll	printf@PLT
	calll	FF_function_364
	calll	getchar@PLT
	cmpl	$23, %eax
	jne	.LBB80_78
# %bb.77:                               #   in Loop: Header=BB80_69 Depth=1
	jmp	.LBB80_114
.LBB80_78:                              #   in Loop: Header=BB80_76 Depth=2
	calll	getchar@PLT
	cmpl	$19, %eax
	jne	.LBB80_80
# %bb.79:                               #   in Loop: Header=BB80_69 Depth=1
	jmp	.LBB80_115
.LBB80_80:                              #   in Loop: Header=BB80_76 Depth=2
	calll	getchar@PLT
	cmpl	$83, %eax
	jne	.LBB80_82
# %bb.81:                               #   in Loop: Header=BB80_69 Depth=1
	leal	.L.str.316, %eax
	movl	%eax, (%esp)
	calll	printf@PLT
	jmp	.LBB80_116
.LBB80_82:                              #   in Loop: Header=BB80_76 Depth=2
	leal	.L.str.317, %eax
	movl	%eax, (%esp)
	calll	printf@PLT
	leal	.L.str.318, %eax
	movl	%eax, (%esp)
	calll	printf@PLT
.LBB80_83:                              #   Parent Loop BB80_69 Depth=1
                                        #     Parent Loop BB80_76 Depth=2
                                        # =>    This Loop Header: Depth=3
                                        #         Child Loop BB80_88 Depth 4
	leal	.L.str.319, %eax
	movl	%eax, (%esp)
	calll	printf@PLT
	leal	.L.str.320, %eax
	movl	%eax, (%esp)
	calll	printf@PLT
	calll	getchar@PLT
	cmpl	$23, %eax
	jne	.LBB80_85
# %bb.84:                               #   in Loop: Header=BB80_76 Depth=2
	jmp	.LBB80_107
.LBB80_85:                              #   in Loop: Header=BB80_83 Depth=3
	calll	getchar@PLT
	cmpl	$19, %eax
	jne	.LBB80_87
# %bb.86:                               #   in Loop: Header=BB80_76 Depth=2
	jmp	.LBB80_108
.LBB80_87:                              #   in Loop: Header=BB80_83 Depth=3
	leal	.L.str.321, %eax
	movl	%eax, (%esp)
	calll	printf@PLT
	leal	.L.str.322, %eax
	movl	%eax, (%esp)
	calll	printf@PLT
	movl	$7, -32(%ebp)
.LBB80_88:                              #   Parent Loop BB80_69 Depth=1
                                        #     Parent Loop BB80_76 Depth=2
                                        #       Parent Loop BB80_83 Depth=3
                                        # =>      This Inner Loop Header: Depth=4
	cmpl	$4489, -32(%ebp)                # imm = 0x1189
	jg	.LBB80_99
# %bb.89:                               #   in Loop: Header=BB80_88 Depth=4
	movl	-32(%ebp), %eax
	leal	.L.str.323, %ecx
	movl	%ecx, (%esp)
	movl	%eax, 4(%esp)
	calll	printf@PLT
	leal	.L.str.324, %eax
	movl	%eax, (%esp)
	calll	printf@PLT
	calll	getchar@PLT
	cmpl	$31, %eax
	jne	.LBB80_91
# %bb.90:
	movl	$0, -40(%ebp)
	jmp	.LBB80_195
.LBB80_91:                              #   in Loop: Header=BB80_88 Depth=4
	calll	getchar@PLT
	cmpl	$19, %eax
	jne	.LBB80_93
# %bb.92:                               #   in Loop: Header=BB80_83 Depth=3
	jmp	.LBB80_100
.LBB80_93:                              #   in Loop: Header=BB80_88 Depth=4
	calll	getchar@PLT
	cmpl	$83, %eax
	jne	.LBB80_95
# %bb.94:                               #   in Loop: Header=BB80_83 Depth=3
	leal	.L.str.325, %eax
	movl	%eax, (%esp)
	calll	printf@PLT
	jmp	.LBB80_101
.LBB80_95:                              #   in Loop: Header=BB80_88 Depth=4
	leal	.L.str.326, %eax
	movl	%eax, (%esp)
	calll	printf@PLT
	calll	getchar@PLT
	cmpl	$17, %eax
	jne	.LBB80_97
# %bb.96:                               #   in Loop: Header=BB80_88 Depth=4
	jmp	.LBB80_98
.LBB80_97:                              #   in Loop: Header=BB80_88 Depth=4
	calll	FF_function_381
	fstp	%st(0)
.LBB80_98:                              #   in Loop: Header=BB80_88 Depth=4
	calll	getchar@PLT
	addl	-32(%ebp), %eax
	movl	%eax, -32(%ebp)
	jmp	.LBB80_88
.LBB80_99:                              #   in Loop: Header=BB80_83 Depth=3
	jmp	.LBB80_100
.LBB80_100:                             #   in Loop: Header=BB80_83 Depth=3
	leal	.L.str.327, %eax
	movl	%eax, (%esp)
	calll	printf@PLT
	leal	.L.str.328, %eax
	movl	%eax, (%esp)
	calll	printf@PLT
.LBB80_101:                             #   in Loop: Header=BB80_83 Depth=3
	calll	getchar@PLT
	cmpl	$67, %eax
	jne	.LBB80_103
# %bb.102:                              #   in Loop: Header=BB80_83 Depth=3
	jmp	.LBB80_105
.LBB80_103:                             #   in Loop: Header=BB80_83 Depth=3
	leal	.L.str.329, %eax
	movl	%eax, (%esp)
	calll	printf@PLT
# %bb.104:                              #   in Loop: Header=BB80_83 Depth=3
	jmp	.LBB80_105
.LBB80_105:                             #   in Loop: Header=BB80_83 Depth=3
	movb	$1, %al
	testb	$1, %al
	jne	.LBB80_83
	jmp	.LBB80_106
.LBB80_106:                             # %.loopexit2
                                        #   in Loop: Header=BB80_76 Depth=2
	jmp	.LBB80_107
.LBB80_107:                             #   in Loop: Header=BB80_76 Depth=2
	jmp	.LBB80_108
.LBB80_108:                             #   in Loop: Header=BB80_76 Depth=2
	leal	.L.str.330, %eax
	movl	%eax, (%esp)
	calll	printf@PLT
	xorl	%eax, %eax
	movl	$0, 16(%esp)
	movl	$0, 12(%esp)
	movl	$0, 8(%esp)
	movl	$0, 4(%esp)
	movl	$0, (%esp)
	calll	FF_function_389
	fstp	%st(0)
# %bb.109:                              #   in Loop: Header=BB80_76 Depth=2
	calll	getchar@PLT
	cmpl	$67, %eax
	jne	.LBB80_112
# %bb.110:                              #   in Loop: Header=BB80_76 Depth=2
	jmp	.LBB80_111
.LBB80_111:                             # %.backedge
                                        #   in Loop: Header=BB80_76 Depth=2
	jmp	.LBB80_76
.LBB80_112:                             #   in Loop: Header=BB80_76 Depth=2
	movl	$0, -352(%ebp)
	movl	$1056964608, -348(%ebp)         # imm = 0x3F000000
	movl	$0, -344(%ebp)
	movl	-352(%ebp), %eax
	flds	-348(%ebp)
	movl	-344(%ebp), %ecx
	movl	%ecx, 8(%esp)
	fstps	4(%esp)
	movl	%eax, (%esp)
	calll	FF_function_313
# %bb.113:                              #   in Loop: Header=BB80_76 Depth=2
	jmp	.LBB80_111
.LBB80_114:                             #   in Loop: Header=BB80_69 Depth=1
	jmp	.LBB80_115
.LBB80_115:                             #   in Loop: Header=BB80_69 Depth=1
	leal	.L.str.331, %eax
	movl	%eax, (%esp)
	calll	printf@PLT
	leal	.L.str.332, %eax
	movl	%eax, (%esp)
	calll	printf@PLT
.LBB80_116:                             #   in Loop: Header=BB80_69 Depth=1
	leal	.L.str.333, %eax
	movl	%eax, (%esp)
	calll	printf@PLT
# %bb.117:                              #   in Loop: Header=BB80_69 Depth=1
	jmp	.LBB80_69
.LBB80_118:
	jmp	.LBB80_119
.LBB80_119:
	leal	.L.str.334, %eax
	movl	%eax, (%esp)
	calll	printf@PLT
	leal	.L.str.335, %eax
	movl	%eax, (%esp)
	calll	printf@PLT
.LBB80_120:
	movl	$.L.str.336, (%esp)
	calll	printf@PLT
	movl	$.L.str.337, (%esp)
	calll	printf@PLT
	movb	$0, -168(%ebp)
	movl	$0, -672(%ebp)
	movl	$1056964608, -668(%ebp)         # imm = 0x3F000000
	movl	$0, -664(%ebp)
	movl	$0, 16(%esp)
	movl	$0, 12(%esp)
	movl	$0, 8(%esp)
	movl	$0, 4(%esp)
	movl	$0, (%esp)
	calll	FF_function_389
	fstp	%st(0)
	movl	$.L.str.338, (%esp)
	calll	printf@PLT
	movl	$0, 4(%esp)
	movl	$0, (%esp)
	calll	FF_function_334
	movl	$0, -652(%ebp)
	movl	$0, -656(%ebp)
	movl	$.L.str.339, (%esp)
	calll	printf@PLT
	movw	$0, -336(%ebp)
	movl	$.L.str.340, (%esp)
	calll	printf@PLT
	movl	$.L.str.341, (%esp)
	calll	printf@PLT
	movw	$0, -328(%ebp)
	movb	$0, -160(%ebp)
	movl	$.L.str.342, (%esp)
	calll	printf@PLT
	movb	$0, -152(%ebp)
	movl	$.L.str.343, (%esp)
	calll	printf@PLT
	movl	$.L.str.344, (%esp)
	calll	printf@PLT
	movb	$0, -144(%ebp)
	movb	$0, -136(%ebp)
	movl	$.L.str.345, (%esp)
	calll	printf@PLT
	movl	$.L.str.346, (%esp)
	calll	printf@PLT
	movb	$0, -128(%ebp)
	movl	$0, (%esp)
	calll	FF_function_325
	movw	$0, -320(%ebp)
	movl	$.L.str.347, (%esp)
	calll	printf@PLT
	movl	$0, (%esp)
	calll	FF_function_331
	movl	$0, -648(%ebp)
	movl	$1056964608, -644(%ebp)         # imm = 0x3F000000
	movl	$0, -640(%ebp)
	movl	$0, -628(%ebp)
	movl	$0, -632(%ebp)
	leal	-624(%ebp), %eax
	movl	%eax, (%esp)
	calll	FF_function_367
	subl	$4, %esp
	movl	$0, (%esp)
	calll	FF_function_337
	movl	$0, -612(%ebp)
	movl	$0, -616(%ebp)
	movl	$.L.str.348, (%esp)
	calll	printf@PLT
	movw	$0, -312(%ebp)
	movl	$.L.str.349, (%esp)
	calll	printf@PLT
	movb	$0, -120(%ebp)
	movl	$.L.str.350, (%esp)
	calll	printf@PLT
	movl	$.L.str.351, (%esp)
	calll	printf@PLT
	movl	$0, 8(%esp)
	movl	$0, 4(%esp)
	movl	$0, (%esp)
	calll	FF_function_382
	movl	$.L.str.352, (%esp)
	calll	printf@PLT
	movl	$.L.str.353, (%esp)
	calll	printf@PLT
	calll	FF_function_381
	fstp	%st(0)
	movl	$0, 20(%esp)
	movl	$0, 16(%esp)
	movl	$0, 32(%esp)
	movl	$0, 28(%esp)
	movl	$0, 24(%esp)
	movl	$0, 12(%esp)
	movl	$0, 8(%esp)
	movl	$0, 4(%esp)
	movl	$0, (%esp)
	calll	FF_function_388
	movl	$.L.str.354, (%esp)
	calll	printf@PLT
	movl	$0, 4(%esp)
	movl	$0, (%esp)
	calll	FF_function_333
	leal	-888(%ebp), %eax
	movl	%eax, (%esp)
	movl	$0, 4(%esp)
	calll	CF_function_390
	subl	$4, %esp
	movl	$.L.str.355, (%esp)
	calll	printf@PLT
	movl	$.L.str.356, (%esp)
	calll	printf@PLT
	movl	$.L.str.357, (%esp)
	calll	printf@PLT
	movb	$0, -112(%ebp)
	movl	$0, -608(%ebp)
	movl	$1056964608, -604(%ebp)         # imm = 0x3F000000
	movl	$0, -600(%ebp)
	leal	.L.str.358, %eax
	movl	%eax, (%esp)
	calll	printf@PLT
.LBB80_121:                             # =>This Loop Header: Depth=1
                                        #     Child Loop BB80_129 Depth 2
                                        #     Child Loop BB80_138 Depth 2
                                        #     Child Loop BB80_144 Depth 2
                                        #     Child Loop BB80_157 Depth 2
                                        #     Child Loop BB80_163 Depth 2
                                        #     Child Loop BB80_170 Depth 2
                                        #     Child Loop BB80_183 Depth 2
	leal	.L.str.359, %eax
	movl	%eax, (%esp)
	calll	printf@PLT
	leal	.L.str.360, %eax
	movl	%eax, (%esp)
	calll	printf@PLT
	calll	getchar@PLT
	cmpl	$31, %eax
	jne	.LBB80_123
# %bb.122:
	movl	$0, -40(%ebp)
	jmp	.LBB80_195
.LBB80_123:                             #   in Loop: Header=BB80_121 Depth=1
	calll	getchar@PLT
	cmpl	$19, %eax
	jne	.LBB80_125
# %bb.124:
	jmp	.LBB80_193
.LBB80_125:                             #   in Loop: Header=BB80_121 Depth=1
	calll	getchar@PLT
	cmpl	$83, %eax
	jne	.LBB80_127
# %bb.126:
	leal	.L.str.361, %eax
	movl	%eax, (%esp)
	calll	printf@PLT
	jmp	.LBB80_194
.LBB80_127:                             #   in Loop: Header=BB80_121 Depth=1
	leal	.L.str.362, %eax
	movl	%eax, (%esp)
	calll	printf@PLT
	calll	getchar@PLT
	cmpl	$79, %eax
	jne	.LBB80_135
# %bb.128:                              #   in Loop: Header=BB80_121 Depth=1
	leal	.L.str.363, %eax
	movl	%eax, (%esp)
	calll	printf@PLT
.LBB80_129:                             #   Parent Loop BB80_121 Depth=1
                                        # =>  This Inner Loop Header: Depth=2
	leal	.L.str.364, %eax
	movl	%eax, (%esp)
	calll	printf@PLT
	leal	.L.str.365, %eax
	movl	%eax, (%esp)
	calll	printf@PLT
	calll	getchar@PLT
	cmpl	$73, %eax
	jne	.LBB80_131
# %bb.130:
	leal	.L.str.366, %eax
	movl	%eax, (%esp)
	calll	printf@PLT
	jmp	.LBB80_193
.LBB80_131:                             #   in Loop: Header=BB80_129 Depth=2
	leal	.L.str.367, %eax
	movl	%eax, (%esp)
	calll	printf@PLT
	movl	$0, 4(%esp)
	movl	$0, (%esp)
	calll	FF_function_311
# %bb.132:                              #   in Loop: Header=BB80_129 Depth=2
	jmp	.LBB80_133
.LBB80_133:                             #   in Loop: Header=BB80_129 Depth=2
	movb	$1, %al
	testb	$1, %al
	jne	.LBB80_129
	jmp	.LBB80_134
.LBB80_134:                             #   in Loop: Header=BB80_121 Depth=1
	jmp	.LBB80_135
.LBB80_135:                             #   in Loop: Header=BB80_121 Depth=1
	jmp	.LBB80_136
.LBB80_136:                             #   in Loop: Header=BB80_121 Depth=1
	leal	.L.str.368, %eax
	movl	%eax, (%esp)
	calll	printf@PLT
	leal	.L.str.369, %eax
	movl	%eax, (%esp)
	calll	printf@PLT
# %bb.137:                              #   in Loop: Header=BB80_121 Depth=1
	leal	.L.str.370, %eax
	movl	%eax, (%esp)
	calll	printf@PLT
	movl	$2539, -208(%ebp)               # imm = 0x9EB
.LBB80_138:                             #   Parent Loop BB80_121 Depth=1
                                        # =>  This Inner Loop Header: Depth=2
	movl	-208(%ebp), %eax
	movl	%eax, -504(%ebp)
	fildl	-504(%ebp)
	flds	.LCPI80_2
	fucompi	%st(1), %st
	fstp	%st(0)
	jb	.LBB80_141
	jmp	.LBB80_139
.LBB80_139:                             #   in Loop: Header=BB80_138 Depth=2
	leal	.L.str.371, %eax
	movl	%eax, (%esp)
	calll	printf@PLT
	calll	getchar@PLT
# %bb.140:                              #   in Loop: Header=BB80_138 Depth=2
	movl	-208(%ebp), %eax
	addl	$14, %eax
	movl	%eax, -208(%ebp)
	jmp	.LBB80_138
.LBB80_141:                             #   in Loop: Header=BB80_121 Depth=1
	jmp	.LBB80_142
.LBB80_142:                             #   in Loop: Header=BB80_121 Depth=1
	movl	$.L.str.372, (%esp)
	calll	printf@PLT
	movl	$0, 20(%esp)
	movl	$0, 16(%esp)
	movl	$0, 32(%esp)
	movl	$0, 28(%esp)
	movl	$0, 24(%esp)
	movl	$0, 12(%esp)
	movl	$0, 8(%esp)
	movl	$0, 4(%esp)
	movl	$0, (%esp)
	calll	FF_function_388
	movl	$.L.str.373, (%esp)
	calll	printf@PLT
	movl	$.L.str.374, (%esp)
	calll	printf@PLT
	movl	$.L.str.375, (%esp)
	calll	printf@PLT
	movl	$.L.str.376, (%esp)
	calll	printf@PLT
	movl	$0, 8(%esp)
	movl	$0, 4(%esp)
	movl	$0, 20(%esp)
	movl	$0, 16(%esp)
	movl	$0, 12(%esp)
	movl	$0, (%esp)
	calll	FF_function_343
	fstp	%st(0)
	movl	$0, 12(%esp)
	movl	$0, 8(%esp)
	movl	$0, 4(%esp)
	movl	$0, (%esp)
	calll	FF_function_338
	movl	$.L.str.377, (%esp)
	calll	printf@PLT
	movl	$0, 4(%esp)
	movl	$0, (%esp)
	calll	FF_function_333
	movl	$.L.str.378, (%esp)
	calll	printf@PLT
	movl	$.L.str.379, (%esp)
	calll	printf@PLT
	movl	$.L.str.380, (%esp)
	calll	printf@PLT
	movl	$.L.str.381, (%esp)
	calll	printf@PLT
	movl	$.L.str.382, (%esp)
	calll	printf@PLT
	movl	$.L.str.383, (%esp)
	calll	printf@PLT
	movl	$0, -304(%ebp)
	movl	$1056964608, -300(%ebp)         # imm = 0x3F000000
	movl	$0, -296(%ebp)
	movl	-304(%ebp), %eax
	flds	-300(%ebp)
	movl	-296(%ebp), %ecx
	movl	%ecx, 8(%esp)
	fstps	4(%esp)
	movl	%eax, (%esp)
	calll	FF_function_349
	leal	.L.str.384, %eax
	movl	%eax, (%esp)
	calll	printf@PLT
	leal	.L.str.385, %eax
	movl	%eax, (%esp)
	calll	printf@PLT
	movl	$0, 16(%esp)
	movl	$0, 12(%esp)
	movl	$0, 8(%esp)
	movl	$0, 4(%esp)
	movl	$0, (%esp)
	calll	FF_function_316
	movzbl	%al, %eax
	movl	%eax, (%esp)
	movl	$0, 8(%esp)
	movl	$0, 4(%esp)
	calll	FF_function_355
	movl	%edx, 4(%esp)
	movl	%eax, (%esp)
	movl	$0, 8(%esp)
	calll	FF_function_382
	calll	FF_function_374
# %bb.143:                              #   in Loop: Header=BB80_121 Depth=1
	leal	.L.str.386, %eax
	movl	%eax, (%esp)
	calll	printf@PLT
	movl	$3405, -28(%ebp)                # imm = 0xD4D
.LBB80_144:                             #   Parent Loop BB80_121 Depth=1
                                        # =>  This Inner Loop Header: Depth=2
	movl	-28(%ebp), %eax
	leal	.L.str.387, %ecx
	movl	%ecx, (%esp)
	movl	%eax, 4(%esp)
	calll	printf@PLT
	leal	.L.str.388, %eax
	movl	%eax, (%esp)
	calll	printf@PLT
	calll	getchar@PLT
	cmpl	$23, %eax
	jne	.LBB80_146
# %bb.145:                              #   in Loop: Header=BB80_121 Depth=1
	jmp	.LBB80_154
.LBB80_146:                             #   in Loop: Header=BB80_144 Depth=2
	calll	getchar@PLT
	cmpl	$97, %eax
	jne	.LBB80_148
# %bb.147:
	movl	$1923, (%esp)                   # imm = 0x783
	calll	exit@PLT
.LBB80_148:                             #   in Loop: Header=BB80_144 Depth=2
	calll	getchar@PLT
	cmpl	$73, %eax
	jne	.LBB80_150
# %bb.149:
	leal	.L.str.389, %eax
	movl	%eax, (%esp)
	calll	printf@PLT
	jmp	.LBB80_193
.LBB80_150:                             #   in Loop: Header=BB80_144 Depth=2
	movl	$0, -288(%ebp)
	movl	$1056964608, -284(%ebp)         # imm = 0x3F000000
	movl	$0, -280(%ebp)
	movl	-288(%ebp), %eax
	flds	-284(%ebp)
	movl	-280(%ebp), %ecx
	movl	%ecx, 8(%esp)
	fstps	4(%esp)
	movl	%eax, (%esp)
	calll	FF_function_346
	leal	.L.str.390, %eax
	movl	%eax, (%esp)
	calll	printf@PLT
# %bb.151:                              #   in Loop: Header=BB80_144 Depth=2
	calll	getchar@PLT
	movl	-28(%ebp), %ecx
	subl	%eax, %ecx
	movl	%ecx, -28(%ebp)
# %bb.152:                              #   in Loop: Header=BB80_144 Depth=2
	cmpl	$4, -28(%ebp)
	jg	.LBB80_144
# %bb.153:                              # %.loopexit1
                                        #   in Loop: Header=BB80_121 Depth=1
	jmp	.LBB80_154
.LBB80_154:                             #   in Loop: Header=BB80_121 Depth=1
	jmp	.LBB80_155
.LBB80_155:                             #   in Loop: Header=BB80_121 Depth=1
	leal	.L.str.391, %eax
	movl	%eax, (%esp)
	calll	printf@PLT
	leal	.L.str.392, %eax
	movl	%eax, (%esp)
	calll	printf@PLT
# %bb.156:                              #   in Loop: Header=BB80_121 Depth=1
	leal	.L.str.393, %eax
	movl	%eax, (%esp)
	calll	printf@PLT
	movl	$2707, -24(%ebp)                # imm = 0xA93
.LBB80_157:                             #   Parent Loop BB80_121 Depth=1
                                        # =>  This Inner Loop Header: Depth=2
	movl	-24(%ebp), %eax
	movl	%eax, -500(%ebp)
	fildl	-500(%ebp)
	flds	.LCPI80_3
	fxch	%st(1)
	fucompi	%st(1), %st
	fstp	%st(0)
	jne	.LBB80_158
	jp	.LBB80_158
	jmp	.LBB80_160
.LBB80_158:                             #   in Loop: Header=BB80_157 Depth=2
	movl	-24(%ebp), %eax
	leal	.L.str.394, %ecx
	movl	%ecx, (%esp)
	movl	%eax, 4(%esp)
	calll	printf@PLT
	calll	getchar@PLT
# %bb.159:                              #   in Loop: Header=BB80_157 Depth=2
	movl	-24(%ebp), %eax
	addl	$-1, %eax
	movl	%eax, -24(%ebp)
	jmp	.LBB80_157
.LBB80_160:                             #   in Loop: Header=BB80_121 Depth=1
	jmp	.LBB80_161
.LBB80_161:                             #   in Loop: Header=BB80_121 Depth=1
	leal	.L.str.395, %eax
	movl	%eax, (%esp)
	calll	printf@PLT
	leal	.L.str.396, %eax
	movl	%eax, (%esp)
	calll	printf@PLT
# %bb.162:                              #   in Loop: Header=BB80_121 Depth=1
	movl	$.L.str.397, (%esp)
	calll	printf@PLT
	movl	$1158636954, -20(%ebp)          # imm = 0x450F659A
.LBB80_163:                             #   Parent Loop BB80_121 Depth=1
                                        # =>  This Inner Loop Header: Depth=2
	flds	-20(%ebp)
	flds	.LCPI80_4
	fxch	%st(1)
	fucompi	%st(1), %st
	fstp	%st(0)
	jbe	.LBB80_167
	jmp	.LBB80_164
.LBB80_164:                             #   in Loop: Header=BB80_163 Depth=2
	flds	-20(%ebp)
	fstpl	4(%esp)
	movl	$.L.str.398, (%esp)
	calll	printf@PLT
	calll	getchar@PLT
# %bb.165:                              #   in Loop: Header=BB80_163 Depth=2
	jmp	.LBB80_166
.LBB80_166:                             #   in Loop: Header=BB80_163 Depth=2
	flds	-20(%ebp)
	fld1
	fchs
	faddp	%st, %st(1)
	fstps	-20(%ebp)
	jmp	.LBB80_163
.LBB80_167:                             #   in Loop: Header=BB80_121 Depth=1
	jmp	.LBB80_168
.LBB80_168:                             #   in Loop: Header=BB80_121 Depth=1
	leal	.L.str.399, %eax
	movl	%eax, (%esp)
	calll	printf@PLT
	leal	.L.str.400, %eax
	movl	%eax, (%esp)
	calll	printf@PLT
# %bb.169:                              #   in Loop: Header=BB80_121 Depth=1
	leal	.L.str.401, %eax
	movl	%eax, (%esp)
	calll	printf@PLT
	movl	$9373, -16(%ebp)                # imm = 0x249D
.LBB80_170:                             #   Parent Loop BB80_121 Depth=1
                                        # =>  This Inner Loop Header: Depth=2
	cmpl	$4, -16(%ebp)
	jle	.LBB80_179
# %bb.171:                              #   in Loop: Header=BB80_170 Depth=2
	movl	-16(%ebp), %eax
	leal	.L.str.402, %ecx
	movl	%ecx, (%esp)
	movl	%eax, 4(%esp)
	calll	printf@PLT
	leal	.L.str.403, %eax
	movl	%eax, (%esp)
	calll	printf@PLT
	calll	getchar@PLT
	cmpl	$23, %eax
	jne	.LBB80_173
# %bb.172:                              #   in Loop: Header=BB80_121 Depth=1
	jmp	.LBB80_180
.LBB80_173:                             #   in Loop: Header=BB80_170 Depth=2
	calll	getchar@PLT
	cmpl	$97, %eax
	jne	.LBB80_175
# %bb.174:
	movl	$1923, (%esp)                   # imm = 0x783
	calll	exit@PLT
.LBB80_175:                             #   in Loop: Header=BB80_170 Depth=2
	calll	getchar@PLT
	cmpl	$73, %eax
	jne	.LBB80_177
# %bb.176:
	leal	.L.str.404, %eax
	movl	%eax, (%esp)
	calll	printf@PLT
	jmp	.LBB80_193
.LBB80_177:                             #   in Loop: Header=BB80_170 Depth=2
	movl	$0, 4(%esp)
	movl	$0, (%esp)
	calll	FF_function_334
	movl	%eax, %esi
	movl	%edx, %edi
	movl	$0, -272(%ebp)
	movl	$1056964608, -268(%ebp)         # imm = 0x3F000000
	movl	$0, -264(%ebp)
	movl	-272(%ebp), %eax
	flds	-268(%ebp)
	movl	-264(%ebp), %ecx
	movl	%ecx, 8(%esp)
	fstps	4(%esp)
	movl	%eax, (%esp)
	movl	$0, 16(%esp)
	movl	$0, 12(%esp)
	calll	FF_function_385
	movzbl	%al, %eax
	movl	%eax, 8(%esp)
	movl	%edi, 4(%esp)
	movl	%esi, (%esp)
	calll	FF_function_382
	movb	%al, %bl
	xorl	%eax, %eax
	movl	$0, 8(%esp)
	movl	$0, 4(%esp)
	movl	$0, 12(%esp)
	movl	$0, (%esp)
	calll	FF_function_337
	movl	%edx, 4(%esp)
	movl	%eax, (%esp)
	movl	$0, 8(%esp)
	calll	FF_function_382
	xorl	%ecx, %ecx
	movzbl	%al, %eax
	movl	%eax, 44(%esp)
	movzbl	%bl, %eax
	movl	%eax, 32(%esp)
	movl	$0, 52(%esp)
	movl	$0, 48(%esp)
	movl	$0, 40(%esp)
	movl	$0, 36(%esp)
	movl	$0, 28(%esp)
	movl	$0, 24(%esp)
	movl	$0, 20(%esp)
	movl	$0, 16(%esp)
	movl	$0, 12(%esp)
	movl	$0, 8(%esp)
	movl	$0, 4(%esp)
	movl	$0, (%esp)
	calll	FF_function_380
	fstp	%st(0)
	leal	.L.str.405, %eax
	movl	%eax, (%esp)
	calll	printf@PLT
# %bb.178:                              #   in Loop: Header=BB80_170 Depth=2
	calll	getchar@PLT
	movl	-16(%ebp), %ecx
	subl	%eax, %ecx
	movl	%ecx, -16(%ebp)
	jmp	.LBB80_170
.LBB80_179:                             # %.loopexit
                                        #   in Loop: Header=BB80_121 Depth=1
	jmp	.LBB80_180
.LBB80_180:                             #   in Loop: Header=BB80_121 Depth=1
	jmp	.LBB80_181
.LBB80_181:                             #   in Loop: Header=BB80_121 Depth=1
	leal	.L.str.406, %eax
	movl	%eax, (%esp)
	calll	printf@PLT
	xorl	%eax, %eax
	movl	$0, 12(%esp)
	movl	$0, 8(%esp)
	movl	$0, 4(%esp)
	movl	$0, (%esp)
	calll	FF_function_379
	fstps	-492(%ebp)                      # 4-byte Folded Spill
	movl	$0, 8(%esp)
	movl	$0, 4(%esp)
	movl	$0, (%esp)
	calll	FF_function_382
	movzbl	%al, %eax
	movl	%eax, 4(%esp)
	flds	-492(%ebp)                      # 4-byte Folded Reload
	fstps	(%esp)
	movl	$0, 8(%esp)
	calll	FF_function_326
# %bb.182:                              #   in Loop: Header=BB80_121 Depth=1
	leal	.L.str.407, %eax
	movl	%eax, (%esp)
	calll	printf@PLT
	movl	$2403, -204(%ebp)               # imm = 0x963
.LBB80_183:                             #   Parent Loop BB80_121 Depth=1
                                        # =>  This Inner Loop Header: Depth=2
	movl	-204(%ebp), %eax
	movl	%eax, -496(%ebp)
	fildl	-496(%ebp)
	flds	.LCPI80_5
	fxch	%st(1)
	fucompi	%st(1), %st
	fstp	%st(0)
	jbe	.LBB80_187
	jmp	.LBB80_184
.LBB80_184:                             #   in Loop: Header=BB80_183 Depth=2
	leal	.L.str.408, %eax
	movl	%eax, (%esp)
	calll	printf@PLT
	calll	getchar@PLT
# %bb.185:                              #   in Loop: Header=BB80_183 Depth=2
	jmp	.LBB80_186
.LBB80_186:                             #   in Loop: Header=BB80_183 Depth=2
	movl	-204(%ebp), %eax
	subl	$6, %eax
	movl	%eax, -204(%ebp)
	jmp	.LBB80_183
.LBB80_187:                             #   in Loop: Header=BB80_121 Depth=1
	jmp	.LBB80_188
.LBB80_188:                             #   in Loop: Header=BB80_121 Depth=1
	leal	.L.str.409, %eax
	movl	%eax, (%esp)
	calll	printf@PLT
	leal	.L.str.410, %eax
	movl	%eax, (%esp)
	calll	printf@PLT
# %bb.189:                              #   in Loop: Header=BB80_121 Depth=1
	calll	getchar@PLT
	cmpl	$17, %eax
	jne	.LBB80_191
# %bb.190:                              #   in Loop: Header=BB80_121 Depth=1
	jmp	.LBB80_192
.LBB80_191:                             #   in Loop: Header=BB80_121 Depth=1
	leal	.L.str.411, %eax
	movl	%eax, (%esp)
	calll	printf@PLT
.LBB80_192:                             #   in Loop: Header=BB80_121 Depth=1
	jmp	.LBB80_121
.LBB80_193:
	leal	.L.str.412, %eax
	movl	%eax, (%esp)
	calll	printf@PLT
	leal	.L.str.413, %eax
	movl	%eax, (%esp)
	calll	printf@PLT
.LBB80_194:
	movl	$.L.str.414, (%esp)
	calll	printf@PLT
	movl	$0, -588(%ebp)
	movl	$0, -592(%ebp)
	movl	$.L.str.415, (%esp)
	calll	printf@PLT
	movl	$.L.str.416, (%esp)
	calll	printf@PLT
	movl	$0, -580(%ebp)
	movl	$0, -584(%ebp)
	movb	$0, -104(%ebp)
	movl	$0, 8(%esp)
	movl	$0, 4(%esp)
	movl	$0, 20(%esp)
	movl	$0, 16(%esp)
	movl	$0, 12(%esp)
	movl	$0, (%esp)
	calll	FF_function_343
	fstp	%st(0)
	movl	$.L.str.417, (%esp)
	calll	printf@PLT
	movl	$0, -576(%ebp)
	movl	$1056964608, -572(%ebp)         # imm = 0x3F000000
	movl	$0, -568(%ebp)
	movl	$.L.str.418, (%esp)
	calll	printf@PLT
	movl	$.L.str.419, (%esp)
	calll	printf@PLT
	movl	$.L.str.420, (%esp)
	calll	printf@PLT
	movb	$0, -96(%ebp)
	movl	$.L.str.421, (%esp)
	calll	printf@PLT
	movl	$.L.str.422, (%esp)
	calll	printf@PLT
	movl	$.L.str.423, (%esp)
	calll	printf@PLT
	movl	$.L.str.424, (%esp)
	calll	printf@PLT
	movl	$0, -256(%ebp)
	movl	$1056964608, -252(%ebp)         # imm = 0x3F000000
	movl	$0, -248(%ebp)
	movl	-256(%ebp), %eax
	flds	-252(%ebp)
	movl	-248(%ebp), %ecx
	movl	%ecx, 8(%esp)
	fstps	4(%esp)
	movl	%eax, (%esp)
	calll	FF_function_341
	movb	$0, -88(%ebp)
	movl	$.L.str.425, (%esp)
	calll	printf@PLT
	movl	$.L.str.426, (%esp)
	calll	printf@PLT
	movl	$.L.str.427, (%esp)
	calll	printf@PLT
	movl	$.L.str.428, (%esp)
	calll	printf@PLT
	movw	$0, -240(%ebp)
	movl	$0, -560(%ebp)
	movw	$0, -232(%ebp)
	movb	$0, -80(%ebp)
	movl	$.L.str.429, (%esp)
	calll	printf@PLT
	movl	$.L.str.430, (%esp)
	calll	printf@PLT
	movl	$.L.str.431, (%esp)
	calll	printf@PLT
	movl	$.L.str.432, (%esp)
	calll	printf@PLT
	movl	$.L.str.433, (%esp)
	calll	printf@PLT
	movl	$.L.str.434, (%esp)
	calll	printf@PLT
	movl	$0, 4(%esp)
	movl	$0, (%esp)
	calll	FF_function_311
	movl	$0, 4(%esp)
	movl	$0, (%esp)
	calll	FF_function_333
	movl	$0, -548(%ebp)
	movl	$0, -552(%ebp)
	movb	$0, -72(%ebp)
	movb	$0, -64(%ebp)
	movl	$.L.str.435, (%esp)
	calll	printf@PLT
	movl	$.L.str.436, (%esp)
	calll	printf@PLT
	movl	$0, -540(%ebp)
	movl	$0, -544(%ebp)
	movl	$0, -224(%ebp)
	movl	$1056964608, -220(%ebp)         # imm = 0x3F000000
	movl	$0, -216(%ebp)
	movl	-224(%ebp), %eax
	flds	-220(%ebp)
	movl	-216(%ebp), %ecx
	movl	%ecx, 8(%esp)
	fstps	4(%esp)
	movl	%eax, (%esp)
	calll	FF_function_313
	movl	$.L.str.437, (%esp)
	calll	printf@PLT
	movl	$0, -536(%ebp)
	movl	$1056964608, -532(%ebp)         # imm = 0x3F000000
	movl	$0, -528(%ebp)
	movb	$0, -56(%ebp)
	xorl	%eax, %eax
	movl	$0, (%esp)
	calll	FF_function_361
	leal	-48(%ebp), %eax
	xorl	%ecx, %ecx
	movl	%eax, (%esp)
	movl	$0, 4(%esp)
	calll	CF_function_392
	subl	$4, %esp
	leal	.L.str.438, %eax
	movl	%eax, (%esp)
	calll	printf@PLT
	movl	$0, -40(%ebp)
.LBB80_195:
	movl	-40(%ebp), %eax
	addl	$956, %esp                      # imm = 0x3BC
	popl	%esi
	popl	%edi
	popl	%ebx
	popl	%ebp
	.cfi_def_cfa %esp, 4
	retl
.Lfunc_end80:
	.size	main, .Lfunc_end80-main
	.cfi_endproc
                                        # -- End function
	.type	.L.str,@object                  # @.str
	.section	.rodata.str1.1,"aMS",@progbits,1
.L.str:
	.asciz	"c5852db2-7acb-cba3-7f81-e7ef3cd1d3b8FF>>callable:1,functionName:functie_voor_datastructuren,AUTOGENERATED:T,ID:c1d,CHECKSUM:360A"
	.size	.L.str, 129

	.type	.L.str.1,@object                # @.str.1
.L.str.1:
	.asciz	"c5852db2-7acb-cba3-7f81-e7ef3cd1d3b8FF>>functionName:functie_voor_datastructuren,AUTOGENERATED:T,ID:c1e,CHECKSUM:D117"
	.size	.L.str.1, 118

	.type	.L.str.2,@object                # @.str.2
.L.str.2:
	.asciz	"c5852db2-7acb-cba3-7f81-e7ef3cd1d3b8FF>>callable:0,functionName:FF_function_300,AUTOGENERATED:T,ID:c1f,CHECKSUM:7CDD"
	.size	.L.str.2, 117

	.type	.L.str.1.3,@object              # @.str.1.3
.L.str.1.3:
	.asciz	"c5852db2-7acb-cba3-7f81-e7ef3cd1d3b8FF>>functionName:FF_function_300,AUTOGENERATED:T,ID:c20,CHECKSUM:FBB2"
	.size	.L.str.1.3, 106

	.type	.L.str.2.4,@object              # @.str.2.4
.L.str.2.4:
	.asciz	"c5852db2-7acb-cba3-7f81-e7ef3cd1d3b8FF>>callable:0,functionName:FF_function_301,AUTOGENERATED:T,ID:c21,CHECKSUM:E7C1"
	.size	.L.str.2.4, 117

	.type	.L.str.3,@object                # @.str.3
.L.str.3:
	.asciz	"c5852db2-7acb-cba3-7f81-e7ef3cd1d3b8FF>>functionName:FF_function_301,AUTOGENERATED:T,ID:c22,CHECKSUM:AF6E"
	.size	.L.str.3, 106

	.type	.L.str.4,@object                # @.str.4
.L.str.4:
	.asciz	"c5852db2-7acb-cba3-7f81-e7ef3cd1d3b8FF>>callable:0,functionName:FF_function_302,AUTOGENERATED:T,ID:c23,CHECKSUM:D9A4"
	.size	.L.str.4, 117

	.type	.L.str.5,@object                # @.str.5
.L.str.5:
	.asciz	"c5852db2-7acb-cba3-7f81-e7ef3cd1d3b8FF>>functionName:FF_function_302,AUTOGENERATED:T,ID:c24,CHECKSUM:520A"
	.size	.L.str.5, 106

	.type	.L.str.6,@object                # @.str.6
.L.str.6:
	.asciz	"c5852db2-7acb-cba3-7f81-e7ef3cd1d3b8FF>>callable:0,functionName:FF_function_303,AUTOGENERATED:T,ID:c25,CHECKSUM:4E79"
	.size	.L.str.6, 117

	.type	.L.str.7,@object                # @.str.7
.L.str.7:
	.asciz	"c5852db2-7acb-cba3-7f81-e7ef3cd1d3b8FF>>functionName:FF_function_303,AUTOGENERATED:T,ID:c26,CHECKSUM:06D6"
	.size	.L.str.7, 106

	.type	.L.str.8,@object                # @.str.8
.L.str.8:
	.asciz	"c5852db2-7acb-cba3-7f81-e7ef3cd1d3b8FF>>callable:0,functionName:FF_function_304,AUTOGENERATED:T,ID:c27,CHECKSUM:A56E"
	.size	.L.str.8, 117

	.type	.L.str.9,@object                # @.str.9
.L.str.9:
	.asciz	"c5852db2-7acb-cba3-7f81-e7ef3cd1d3b8FF>>functionName:FF_function_304,AUTOGENERATED:T,ID:c28,CHECKSUM:E8C1"
	.size	.L.str.9, 106

	.type	.L.str.10,@object               # @.str.10
.L.str.10:
	.asciz	"c5852db2-7acb-cba3-7f81-e7ef3cd1d3b8FF>>callable:0,functionName:FF_function_305,AUTOGENERATED:T,ID:c29,CHECKSUM:F4B2"
	.size	.L.str.10, 117

	.type	.L.str.11,@object               # @.str.11
.L.str.11:
	.asciz	"c5852db2-7acb-cba3-7f81-e7ef3cd1d3b8FF>>functionName:FF_function_305,AUTOGENERATED:T,ID:c2a,CHECKSUM:475C"
	.size	.L.str.11, 106

	.type	.L.str.12,@object               # @.str.12
.L.str.12:
	.asciz	"c5852db2-7acb-cba3-7f81-e7ef3cd1d3b8FF>>callable:0,functionName:FF_function_306,AUTOGENERATED:T,ID:c2b,CHECKSUM:F017"
	.size	.L.str.12, 117

	.type	.L.str.13,@object               # @.str.13
.L.str.13:
	.asciz	"c5852db2-7acb-cba3-7f81-e7ef3cd1d3b8FF>>functionName:FF_function_306,AUTOGENERATED:T,ID:c2c,CHECKSUM:7939"
	.size	.L.str.13, 106

	.type	.L.str.14,@object               # @.str.14
.L.str.14:
	.asciz	"c5852db2-7acb-cba3-7f81-e7ef3cd1d3b8FF>>callable:0,functionName:FF_function_307,AUTOGENERATED:T,ID:c2d,CHECKSUM:67CA"
	.size	.L.str.14, 117

	.type	.L.str.15,@object               # @.str.15
.L.str.15:
	.asciz	"c5852db2-7acb-cba3-7f81-e7ef3cd1d3b8FF>>functionName:FF_function_307,AUTOGENERATED:T,ID:c2e,CHECKSUM:EEE4"
	.size	.L.str.15, 106

	.type	.L.str.16,@object               # @.str.16
.L.str.16:
	.asciz	"c5852db2-7acb-cba3-7f81-e7ef3cd1d3b8FF>>callable:0,functionName:FF_function_308,AUTOGENERATED:T,ID:c2f,CHECKSUM:663A"
	.size	.L.str.16, 117

	.type	.L.str.17,@object               # @.str.17
.L.str.17:
	.asciz	"c5852db2-7acb-cba3-7f81-e7ef3cd1d3b8FF>>functionName:FF_function_308,AUTOGENERATED:T,ID:c30,CHECKSUM:8154"
	.size	.L.str.17, 106

	.type	.L.str.18,@object               # @.str.18
.L.str.18:
	.asciz	"c5852db2-7acb-cba3-7f81-e7ef3cd1d3b8FF>>callable:0,functionName:FF_function_309,AUTOGENERATED:T,ID:c31,CHECKSUM:9D27"
	.size	.L.str.18, 117

	.type	.L.str.19,@object               # @.str.19
.L.str.19:
	.asciz	"c5852db2-7acb-cba3-7f81-e7ef3cd1d3b8FF>>functionName:FF_function_309,AUTOGENERATED:T,ID:c32,CHECKSUM:D588"
	.size	.L.str.19, 106

	.type	.L.str.20,@object               # @.str.20
.L.str.20:
	.asciz	"c5852db2-7acb-cba3-7f81-e7ef3cd1d3b8FF>>callable:1,functionName:FF_function_311,AUTOGENERATED:T,ID:c33,CHECKSUM:EA8D"
	.size	.L.str.20, 117

	.type	.L.str.21,@object               # @.str.21
.L.str.21:
	.asciz	"c5852db2-7acb-cba3-7f81-e7ef3cd1d3b8FF>>functionName:FF_function_311,AUTOGENERATED:T,ID:c34,CHECKSUM:C4BB"
	.size	.L.str.21, 106

	.type	.L.str.22,@object               # @.str.22
.L.str.22:
	.asciz	"c5852db2-7acb-cba3-7f81-e7ef3cd1d3b8FF>>callable:1,functionName:FF_function_313,AUTOGENERATED:T,ID:c35,CHECKSUM:82B4"
	.size	.L.str.22, 117

	.type	.L.str.23,@object               # @.str.23
.L.str.23:
	.asciz	"c5852db2-7acb-cba3-7f81-e7ef3cd1d3b8FF>>functionName:FF_function_313,AUTOGENERATED:T,ID:c36,CHECKSUM:6F83"
	.size	.L.str.23, 106

	.type	.L.str.24,@object               # @.str.24
.L.str.24:
	.asciz	"c5852db2-7acb-cba3-7f81-e7ef3cd1d3b8FF>>callable:1,functionName:FF_function_315,AUTOGENERATED:T,ID:c37,CHECKSUM:FCFE"
	.size	.L.str.24, 117

	.type	.L.str.25,@object               # @.str.25
.L.str.25:
	.asciz	"c5852db2-7acb-cba3-7f81-e7ef3cd1d3b8FF>>functionName:FF_function_315,AUTOGENERATED:T,ID:c38,CHECKSUM:14C9"
	.size	.L.str.25, 106

	.type	.L.str.26,@object               # @.str.26
.L.str.26:
	.asciz	"c5852db2-7acb-cba3-7f81-e7ef3cd1d3b8FF>>callable:1,functionName:FF_function_319,AUTOGENERATED:T,ID:c39,CHECKSUM:07EA"
	.size	.L.str.26, 117

	.type	.L.str.27,@object               # @.str.27
.L.str.27:
	.asciz	"c5852db2-7acb-cba3-7f81-e7ef3cd1d3b8FF>>functionName:FF_function_319,AUTOGENERATED:T,ID:c3a,CHECKSUM:119C"
	.size	.L.str.27, 106

	.type	.L.str.28,@object               # @.str.28
.L.str.28:
	.asciz	"c5852db2-7acb-cba3-7f81-e7ef3cd1d3b8FF>>callable:1,functionName:FF_function_322,AUTOGENERATED:T,ID:c3b,CHECKSUM:A257"
	.size	.L.str.28, 117

	.type	.L.str.29,@object               # @.str.29
.L.str.29:
	.asciz	"c5852db2-7acb-cba3-7f81-e7ef3cd1d3b8FF>>functionName:FF_function_322,AUTOGENERATED:T,ID:c3c,CHECKSUM:8EE1"
	.size	.L.str.29, 106

	.type	.L.str.30,@object               # @.str.30
.L.str.30:
	.asciz	"c5852db2-7acb-cba3-7f81-e7ef3cd1d3b8FF>>callable:1,functionName:FF_function_330,AUTOGENERATED:T,ID:c3d,CHECKSUM:333A"
	.size	.L.str.30, 117

	.type	.L.str.31,@object               # @.str.31
.L.str.31:
	.asciz	"c5852db2-7acb-cba3-7f81-e7ef3cd1d3b8FF>>functionName:FF_function_330,AUTOGENERATED:T,ID:c3e,CHECKSUM:1F8C"
	.size	.L.str.31, 106

	.type	.L.str.32,@object               # @.str.32
.L.str.32:
	.asciz	"c5852db2-7acb-cba3-7f81-e7ef3cd1d3b8FF>>callable:1,functionName:FF_function_333,AUTOGENERATED:T,ID:c3f,CHECKSUM:0D5F"
	.size	.L.str.32, 117

	.type	.L.str.33,@object               # @.str.33
.L.str.33:
	.asciz	"c5852db2-7acb-cba3-7f81-e7ef3cd1d3b8FF>>functionName:FF_function_333,AUTOGENERATED:T,ID:c40,CHECKSUM:EFAA"
	.size	.L.str.33, 106

	.type	.L.str.34,@object               # @.str.34
.L.str.34:
	.asciz	"c5852db2-7acb-cba3-7f81-e7ef3cd1d3b8FF>>callable:1,functionName:FF_function_337,AUTOGENERATED:T,ID:c41,CHECKSUM:166E"
	.size	.L.str.34, 117

	.type	.L.str.35,@object               # @.str.35
.L.str.35:
	.asciz	"c5852db2-7acb-cba3-7f81-e7ef3cd1d3b8FF>>functionName:FF_function_337,AUTOGENERATED:T,ID:c42,CHECKSUM:FB59"
	.size	.L.str.35, 106

	.type	.L.str.36,@object               # @.str.36
.L.str.36:
	.asciz	"c5852db2-7acb-cba3-7f81-e7ef3cd1d3b8FF>>callable:1,functionName:FF_function_341,AUTOGENERATED:T,ID:c43,CHECKSUM:068E"
	.size	.L.str.36, 117

	.type	.L.str.37,@object               # @.str.37
.L.str.37:
	.asciz	"c5852db2-7acb-cba3-7f81-e7ef3cd1d3b8FF>>functionName:FF_function_341,AUTOGENERATED:T,ID:c44,CHECKSUM:28B8"
	.size	.L.str.37, 106

	.type	.L.str.38,@object               # @.str.38
.L.str.38:
	.asciz	"c5852db2-7acb-cba3-7f81-e7ef3cd1d3b8FF>>callable:1,functionName:FF_function_346,AUTOGENERATED:T,ID:c45,CHECKSUM:2E98"
	.size	.L.str.38, 117

	.type	.L.str.39,@object               # @.str.39
.L.str.39:
	.asciz	"c5852db2-7acb-cba3-7f81-e7ef3cd1d3b8FF>>functionName:FF_function_346,AUTOGENERATED:T,ID:c46,CHECKSUM:C3AF"
	.size	.L.str.39, 106

	.type	.L.str.40,@object               # @.str.40
.L.str.40:
	.asciz	"c5852db2-7acb-cba3-7f81-e7ef3cd1d3b8FF>>callable:1,functionName:FF_function_349,AUTOGENERATED:T,ID:c47,CHECKSUM:2F68"
	.size	.L.str.40, 117

	.type	.L.str.41,@object               # @.str.41
.L.str.41:
	.asciz	"c5852db2-7acb-cba3-7f81-e7ef3cd1d3b8FF>>functionName:FF_function_349,AUTOGENERATED:T,ID:c48,CHECKSUM:C75F"
	.size	.L.str.41, 106

	.type	.L.str.42,@object               # @.str.42
.L.str.42:
	.asciz	"c5852db2-7acb-cba3-7f81-e7ef3cd1d3b8FF>>callable:1,functionName:FF_function_354,AUTOGENERATED:T,ID:c49,CHECKSUM:B875"
	.size	.L.str.42, 117

	.type	.L.str.43,@object               # @.str.43
.L.str.43:
	.asciz	"c5852db2-7acb-cba3-7f81-e7ef3cd1d3b8FF>>functionName:FF_function_354,AUTOGENERATED:T,ID:c4a,CHECKSUM:AE03"
	.size	.L.str.43, 106

	.type	.L.str.44,@object               # @.str.44
.L.str.44:
	.asciz	"c5852db2-7acb-cba3-7f81-e7ef3cd1d3b8FF>>callable:1,functionName:FF_function_359,AUTOGENERATED:T,ID:c4b,CHECKSUM:E9FC"
	.size	.L.str.44, 117

	.type	.L.str.45,@object               # @.str.45
.L.str.45:
	.asciz	"c5852db2-7acb-cba3-7f81-e7ef3cd1d3b8FF>>functionName:FF_function_359,AUTOGENERATED:T,ID:c4c,CHECKSUM:C54A"
	.size	.L.str.45, 106

	.type	.L.str.46,@object               # @.str.46
.L.str.46:
	.asciz	"c5852db2-7acb-cba3-7f81-e7ef3cd1d3b8FF>>callable:1,functionName:FF_function_360,AUTOGENERATED:T,ID:c4d,CHECKSUM:DF39"
	.size	.L.str.46, 117

	.type	.L.str.47,@object               # @.str.47
.L.str.47:
	.asciz	"c5852db2-7acb-cba3-7f81-e7ef3cd1d3b8FF>>functionName:FF_function_360,AUTOGENERATED:T,ID:c4e,CHECKSUM:F38F"
	.size	.L.str.47, 106

	.type	.L.str.48,@object               # @.str.48
.L.str.48:
	.asciz	"c5852db2-7acb-cba3-7f81-e7ef3cd1d3b8FF>>callable:1,functionName:FF_function_361,AUTOGENERATED:T,ID:c4f,CHECKSUM:8BE5"
	.size	.L.str.48, 117

	.type	.L.str.49,@object               # @.str.49
.L.str.49:
	.asciz	"c5852db2-7acb-cba3-7f81-e7ef3cd1d3b8FF>>callable:1,functionName:FF_function_362,AUTOGENERATED:T,ID:c51,CHECKSUM:1A41"
	.size	.L.str.49, 117

	.type	.L.str.50,@object               # @.str.50
.L.str.50:
	.asciz	"c5852db2-7acb-cba3-7f81-e7ef3cd1d3b8FF>>callable:1,functionName:FF_function_364,AUTOGENERATED:T,ID:c53,CHECKSUM:640B"
	.size	.L.str.50, 117

	.type	.L.str.51,@object               # @.str.51
.L.str.51:
	.asciz	"c5852db2-7acb-cba3-7f81-e7ef3cd1d3b8FF>>functionName:FF_function_364,AUTOGENERATED:T,ID:c54,CHECKSUM:4A3D"
	.size	.L.str.51, 106

	.type	.L.str.52,@object               # @.str.52
.L.str.52:
	.asciz	"c5852db2-7acb-cba3-7f81-e7ef3cd1d3b8FF>>callable:1,functionName:FF_function_363,AUTOGENERATED:T,ID:c55,CHECKSUM:4C1D"
	.size	.L.str.52, 117

	.type	.L.str.53,@object               # @.str.53
.L.str.53:
	.asciz	"c5852db2-7acb-cba3-7f81-e7ef3cd1d3b8FF>>functionName:FF_function_363,AUTOGENERATED:T,ID:c56,CHECKSUM:A12A"
	.size	.L.str.53, 106

	.type	.L.str.54,@object               # @.str.54
.L.str.54:
	.asciz	"c5852db2-7acb-cba3-7f81-e7ef3cd1d3b8FF>>callable:1,functionName:FF_function_357,AUTOGENERATED:T,ID:c57,CHECKSUM:1311"
	.size	.L.str.54, 117

	.type	.L.str.55,@object               # @.str.55
.L.str.55:
	.asciz	"c5852db2-7acb-cba3-7f81-e7ef3cd1d3b8FF>>callable:1,functionName:FF_function_366,AUTOGENERATED:T,ID:c59,CHECKSUM:0932"
	.size	.L.str.55, 117

	.type	.L.str.56,@object               # @.str.56
.L.str.56:
	.asciz	"c5852db2-7acb-cba3-7f81-e7ef3cd1d3b8FF>>functionName:FF_function_366,AUTOGENERATED:T,ID:c5a,CHECKSUM:1F44"
	.size	.L.str.56, 106

	.type	.L.str.57,@object               # @.str.57
.L.str.57:
	.asciz	"c5852db2-7acb-cba3-7f81-e7ef3cd1d3b8FF>>callable:1,functionName:FF_function_365,AUTOGENERATED:T,ID:c5b,CHECKSUM:0D97"
	.size	.L.str.57, 117

	.type	.L.str.58,@object               # @.str.58
.L.str.58:
	.asciz	"c5852db2-7acb-cba3-7f81-e7ef3cd1d3b8FF>>functionName:FF_function_365,AUTOGENERATED:T,ID:c5c,CHECKSUM:2121"
	.size	.L.str.58, 106

	.type	.L.str.59,@object               # @.str.59
.L.str.59:
	.asciz	"c5852db2-7acb-cba3-7f81-e7ef3cd1d3b8FF>>callable:1,functionName:FF_function_369,AUTOGENERATED:T,ID:c5d,CHECKSUM:3082"
	.size	.L.str.59, 117

	.type	.L.str.60,@object               # @.str.60
.L.str.60:
	.asciz	"c5852db2-7acb-cba3-7f81-e7ef3cd1d3b8FF>>callable:1,functionName:FF_function_368,AUTOGENERATED:T,ID:c5f,CHECKSUM:645E"
	.size	.L.str.60, 117

	.type	.L.str.61,@object               # @.str.61
.L.str.61:
	.asciz	"c5852db2-7acb-cba3-7f81-e7ef3cd1d3b8FF>>functionName:FF_function_368,AUTOGENERATED:T,ID:c60,CHECKSUM:46A9"
	.size	.L.str.61, 106

	.type	.L.str.62,@object               # @.str.62
.L.str.62:
	.asciz	"c5852db2-7acb-cba3-7f81-e7ef3cd1d3b8FF>>callable:1,functionName:FF_function_371,AUTOGENERATED:T,ID:c61,CHECKSUM:ECF1"
	.size	.L.str.62, 117

	.type	.L.str.63,@object               # @.str.63
.L.str.63:
	.asciz	"c5852db2-7acb-cba3-7f81-e7ef3cd1d3b8FF>>functionName:FF_function_371,AUTOGENERATED:T,ID:c62,CHECKSUM:01C6"
	.size	.L.str.63, 106

	.type	.L.str.64,@object               # @.str.64
.L.str.64:
	.asciz	"c5852db2-7acb-cba3-7f81-e7ef3cd1d3b8FF>>callable:1,functionName:FF_function_372,AUTOGENERATED:T,ID:c63,CHECKSUM:D294"
	.size	.L.str.64, 117

	.type	.L.str.65,@object               # @.str.65
.L.str.65:
	.asciz	"c5852db2-7acb-cba3-7f81-e7ef3cd1d3b8FF>>callable:1,functionName:FF_function_370,AUTOGENERATED:T,ID:c65,CHECKSUM:BAAD"
	.size	.L.str.65, 117

	.type	.L.str.66,@object               # @.str.66
.L.str.66:
	.asciz	"c5852db2-7acb-cba3-7f81-e7ef3cd1d3b8FF>>functionName:FF_function_370,AUTOGENERATED:T,ID:c66,CHECKSUM:579A"
	.size	.L.str.66, 106

	.type	.L.str.67,@object               # @.str.67
.L.str.67:
	.asciz	"c5852db2-7acb-cba3-7f81-e7ef3cd1d3b8FF>>callable:1,functionName:FF_function_367,AUTOGENERATED:T,ID:c67,CHECKSUM:A8EE"
	.size	.L.str.67, 117

	.type	.L.str.68,@object               # @.str.68
.L.str.68:
	.asciz	"c5852db2-7acb-cba3-7f81-e7ef3cd1d3b8FF>>functionName:FF_function_367,AUTOGENERATED:T,ID:c68,CHECKSUM:40D9"
	.size	.L.str.68, 106

	.type	.L.str.69,@object               # @.str.69
.L.str.69:
	.asciz	"c5852db2-7acb-cba3-7f81-e7ef3cd1d3b8FF>>callable:1,functionName:FF_function_356,AUTOGENERATED:T,ID:c69,CHECKSUM:B2CD"
	.size	.L.str.69, 117

	.type	.L.str.70,@object               # @.str.70
.L.str.70:
	.asciz	"c5852db2-7acb-cba3-7f81-e7ef3cd1d3b8FF>>functionName:FF_function_356,AUTOGENERATED:T,ID:c6a,CHECKSUM:A4BB"
	.size	.L.str.70, 106

	.type	.L.str.71,@object               # @.str.71
.L.str.71:
	.asciz	"c5852db2-7acb-cba3-7f81-e7ef3cd1d3b8FF>>callable:1,functionName:FF_function_375,AUTOGENERATED:T,ID:c6b,CHECKSUM:04C3"
	.size	.L.str.71, 117

	.type	.L.str.72,@object               # @.str.72
.L.str.72:
	.asciz	"c5852db2-7acb-cba3-7f81-e7ef3cd1d3b8FF>>functionName:FF_function_375,AUTOGENERATED:T,ID:c6c,CHECKSUM:2875"
	.size	.L.str.72, 106

	.type	.L.str.73,@object               # @.str.73
.L.str.73:
	.asciz	"c5852db2-7acb-cba3-7f81-e7ef3cd1d3b8FF>>callable:1,functionName:FF_function_374,AUTOGENERATED:T,ID:c6d,CHECKSUM:931E"
	.size	.L.str.73, 117

	.type	.L.str.74,@object               # @.str.74
.L.str.74:
	.asciz	"c5852db2-7acb-cba3-7f81-e7ef3cd1d3b8FF>>functionName:FF_function_374,AUTOGENERATED:T,ID:c6e,CHECKSUM:BFA8"
	.size	.L.str.74, 106

	.type	.L.str.75,@object               # @.str.75
.L.str.75:
	.asciz	"c5852db2-7acb-cba3-7f81-e7ef3cd1d3b8FF>>callable:1,functionName:FF_function_377,AUTOGENERATED:T,ID:c6f,CHECKSUM:AD7B"
	.size	.L.str.75, 117

	.type	.L.str.76,@object               # @.str.76
.L.str.76:
	.asciz	"c5852db2-7acb-cba3-7f81-e7ef3cd1d3b8FF>>functionName:FF_function_377,AUTOGENERATED:T,ID:c70,CHECKSUM:EF8D"
	.size	.L.str.76, 106

	.type	.L.str.77,@object               # @.str.77
.L.str.77:
	.asciz	"c5852db2-7acb-cba3-7f81-e7ef3cd1d3b8FF>>callable:1,functionName:FF_function_378,AUTOGENERATED:T,ID:c71,CHECKSUM:034A"
	.size	.L.str.77, 117

	.type	.L.str.78,@object               # @.str.78
.L.str.78:
	.asciz	"c5852db2-7acb-cba3-7f81-e7ef3cd1d3b8FF>>functionName:FF_function_378,AUTOGENERATED:T,ID:c72,CHECKSUM:EE7D"
	.size	.L.str.78, 106

	.type	.L.str.79,@object               # @.str.79
.L.str.79:
	.asciz	"c5852db2-7acb-cba3-7f81-e7ef3cd1d3b8FF>>callable:1,functionName:FF_function_376,AUTOGENERATED:T,ID:c73,CHECKSUM:97E7"
	.size	.L.str.79, 117

	.type	.L.str.80,@object               # @.str.80
.L.str.80:
	.asciz	"c5852db2-7acb-cba3-7f81-e7ef3cd1d3b8FF>>functionName:FF_function_376,AUTOGENERATED:T,ID:c74,CHECKSUM:B9D1"
	.size	.L.str.80, 106

	.type	.L.str.81,@object               # @.str.81
.L.str.81:
	.asciz	"c5852db2-7acb-cba3-7f81-e7ef3cd1d3b8FF>>callable:1,functionName:FF_function_373,AUTOGENERATED:T,ID:c75,CHECKSUM:D548"
	.size	.L.str.81, 117

	.type	.L.str.82,@object               # @.str.82
.L.str.82:
	.asciz	"c5852db2-7acb-cba3-7f81-e7ef3cd1d3b8FF>>functionName:FF_function_373,AUTOGENERATED:T,ID:c76,CHECKSUM:387F"
	.size	.L.str.82, 106

	.type	.L.str.83,@object               # @.str.83
.L.str.83:
	.asciz	"c5852db2-7acb-cba3-7f81-e7ef3cd1d3b8FF>>callable:1,functionName:FF_function_381,AUTOGENERATED:T,ID:c77,CHECKSUM:5A70"
	.size	.L.str.83, 117

	.type	.L.str.84,@object               # @.str.84
.L.str.84:
	.asciz	"c5852db2-7acb-cba3-7f81-e7ef3cd1d3b8FF>>functionName:FF_function_381,AUTOGENERATED:T,ID:c78,CHECKSUM:B247"
	.size	.L.str.84, 106

	.type	.L.str.85,@object               # @.str.85
.L.str.85:
	.asciz	"c5852db2-7acb-cba3-7f81-e7ef3cd1d3b8FF>>callable:1,functionName:FF_function_380,AUTOGENERATED:T,ID:c79,CHECKSUM:0BAC"
	.size	.L.str.85, 117

	.type	.L.str.86,@object               # @.str.86
.L.str.86:
	.asciz	"c5852db2-7acb-cba3-7f81-e7ef3cd1d3b8FF>>functionName:FF_function_380,AUTOGENERATED:T,ID:c7a,CHECKSUM:1DDA"
	.size	.L.str.86, 106

	.type	.L.str.87,@object               # @.str.87
.L.str.87:
	.asciz	"c5852db2-7acb-cba3-7f81-e7ef3cd1d3b8FF>>callable:1,functionName:FF_function_382,AUTOGENERATED:T,ID:c7b,CHECKSUM:9A54"
	.size	.L.str.87, 117

	.type	.L.str.88,@object               # @.str.88
.L.str.88:
	.asciz	"c5852db2-7acb-cba3-7f81-e7ef3cd1d3b8FF>>callable:1,functionName:FF_function_383,AUTOGENERATED:T,ID:c7d,CHECKSUM:0D89"
	.size	.L.str.88, 117

	.type	.L.str.89,@object               # @.str.89
.L.str.89:
	.asciz	"c5852db2-7acb-cba3-7f81-e7ef3cd1d3b8FF>>functionName:FF_function_383,AUTOGENERATED:T,ID:c7e,CHECKSUM:213F"
	.size	.L.str.89, 106

	.type	.L.str.90,@object               # @.str.90
.L.str.90:
	.asciz	"c5852db2-7acb-cba3-7f81-e7ef3cd1d3b8FF>>callable:1,functionName:FF_function_385,AUTOGENERATED:T,ID:c7f,CHECKSUM:73C3"
	.size	.L.str.90, 117

	.type	.L.str.91,@object               # @.str.91
.L.str.91:
	.asciz	"c5852db2-7acb-cba3-7f81-e7ef3cd1d3b8FF>>functionName:FF_function_385,AUTOGENERATED:T,ID:c80,CHECKSUM:5131"
	.size	.L.str.91, 106

	.type	.L.str.92,@object               # @.str.92
.L.str.92:
	.asciz	"c5852db2-7acb-cba3-7f81-e7ef3cd1d3b8FF>>callable:1,functionName:FF_function_379,AUTOGENERATED:T,ID:c81,CHECKSUM:6612"
	.size	.L.str.92, 117

	.type	.L.str.93,@object               # @.str.93
.L.str.93:
	.asciz	"c5852db2-7acb-cba3-7f81-e7ef3cd1d3b8FF>>functionName:FF_function_379,AUTOGENERATED:T,ID:c82,CHECKSUM:8B25"
	.size	.L.str.93, 106

	.type	.L.str.94,@object               # @.str.94
.L.str.94:
	.asciz	"c5852db2-7acb-cba3-7f81-e7ef3cd1d3b8FF>>callable:1,functionName:FF_function_355,AUTOGENERATED:T,ID:c83,CHECKSUM:2AAD"
	.size	.L.str.94, 117

	.type	.L.str.95,@object               # @.str.95
.L.str.95:
	.asciz	"c5852db2-7acb-cba3-7f81-e7ef3cd1d3b8FF>>functionName:FF_function_355,AUTOGENERATED:T,ID:c84,CHECKSUM:049B"
	.size	.L.str.95, 106

	.type	.L.str.96,@object               # @.str.96
.L.str.96:
	.asciz	"c5852db2-7acb-cba3-7f81-e7ef3cd1d3b8FF>>callable:1,functionName:FF_function_352,AUTOGENERATED:T,ID:c85,CHECKSUM:02BB"
	.size	.L.str.96, 117

	.type	.L__const.FF_function_352.FF_x,@object # @__const.FF_function_352.FF_x
	.section	.rodata,"a",@progbits
	.p2align	2
.L__const.FF_function_352.FF_x:
	.long	0                               # 0x0
	.long	0x3f000000                      # float 0.5
	.long	0
	.size	.L__const.FF_function_352.FF_x, 12

	.type	.L.str.97,@object               # @.str.97
	.section	.rodata.str1.1,"aMS",@progbits,1
.L.str.97:
	.asciz	"c5852db2-7acb-cba3-7f81-e7ef3cd1d3b8FF>>functionName:FF_function_352,AUTOGENERATED:T,ID:c86,CHECKSUM:EF8C"
	.size	.L.str.97, 106

	.type	.L.str.98,@object               # @.str.98
.L.str.98:
	.asciz	"c5852db2-7acb-cba3-7f81-e7ef3cd1d3b8FF>>callable:1,functionName:FF_function_351,AUTOGENERATED:T,ID:c87,CHECKSUM:3CDE"
	.size	.L.str.98, 117

	.type	.L.str.99,@object               # @.str.99
.L.str.99:
	.asciz	"c5852db2-7acb-cba3-7f81-e7ef3cd1d3b8FF>>functionName:FF_function_351,AUTOGENERATED:T,ID:c88,CHECKSUM:D4E9"
	.size	.L.str.99, 106

	.type	.L.str.100,@object              # @.str.100
.L.str.100:
	.asciz	"c5852db2-7acb-cba3-7f81-e7ef3cd1d3b8FF>>callable:1,functionName:FF_function_350,AUTOGENERATED:T,ID:c89,CHECKSUM:6D02"
	.size	.L.str.100, 117

	.type	.L__const.FF_function_350.FF_x,@object # @__const.FF_function_350.FF_x
	.section	.rodata,"a",@progbits
	.p2align	2
.L__const.FF_function_350.FF_x:
	.long	0                               # 0x0
	.long	0x3f000000                      # float 0.5
	.long	0
	.size	.L__const.FF_function_350.FF_x, 12

	.type	.L.str.101,@object              # @.str.101
	.section	.rodata.str1.1,"aMS",@progbits,1
.L.str.101:
	.asciz	"c5852db2-7acb-cba3-7f81-e7ef3cd1d3b8FF>>functionName:FF_function_350,AUTOGENERATED:T,ID:c8a,CHECKSUM:7B74"
	.size	.L.str.101, 106

	.type	.L.str.102,@object              # @.str.102
.L.str.102:
	.asciz	"c5852db2-7acb-cba3-7f81-e7ef3cd1d3b8FF>>callable:1,functionName:FF_function_347,AUTOGENERATED:T,ID:c8b,CHECKSUM:4581"
	.size	.L.str.102, 117

	.type	.L__const.FF_function_347.FF_x,@object # @__const.FF_function_347.FF_x
	.section	.rodata,"a",@progbits
	.p2align	2
.L__const.FF_function_347.FF_x:
	.long	0                               # 0x0
	.long	0x3f000000                      # float 0.5
	.long	0
	.size	.L__const.FF_function_347.FF_x, 12

	.type	.L.str.103,@object              # @.str.103
	.section	.rodata.str1.1,"aMS",@progbits,1
.L.str.103:
	.asciz	"c5852db2-7acb-cba3-7f81-e7ef3cd1d3b8FF>>functionName:FF_function_347,AUTOGENERATED:T,ID:c8c,CHECKSUM:6937"
	.size	.L.str.103, 106

	.type	.L.str.104,@object              # @.str.104
.L.str.104:
	.asciz	"c5852db2-7acb-cba3-7f81-e7ef3cd1d3b8FF>>callable:1,functionName:FF_function_344,AUTOGENERATED:T,ID:c8d,CHECKSUM:B8E5"
	.size	.L.str.104, 117

	.type	.L.str.105,@object              # @.str.105
.L.str.105:
	.asciz	"c5852db2-7acb-cba3-7f81-e7ef3cd1d3b8FF>>callable:1,functionName:FF_function_343,AUTOGENERATED:T,ID:c8f,CHECKSUM:53F2"
	.size	.L.str.105, 117

	.type	.L.str.106,@object              # @.str.106
.L.str.106:
	.asciz	"c5852db2-7acb-cba3-7f81-e7ef3cd1d3b8FF>>functionName:FF_function_343,AUTOGENERATED:T,ID:c90,CHECKSUM:1104"
	.size	.L.str.106, 106

	.type	.L.str.107,@object              # @.str.107
.L.str.107:
	.asciz	"c5852db2-7acb-cba3-7f81-e7ef3cd1d3b8FF>>callable:1,functionName:FF_function_342,AUTOGENERATED:T,ID:c91,CHECKSUM:A8EF"
	.size	.L.str.107, 117

	.type	.L__const.FF_function_342.FF_x,@object # @__const.FF_function_342.FF_x
	.section	.rodata,"a",@progbits
	.p2align	2
.L__const.FF_function_342.FF_x:
	.long	0                               # 0x0
	.long	0x3f000000                      # float 0.5
	.long	0
	.size	.L__const.FF_function_342.FF_x, 12

	.type	.L.str.108,@object              # @.str.108
	.section	.rodata.str1.1,"aMS",@progbits,1
.L.str.108:
	.asciz	"c5852db2-7acb-cba3-7f81-e7ef3cd1d3b8FF>>functionName:FF_function_342,AUTOGENERATED:T,ID:c92,CHECKSUM:45D8"
	.size	.L.str.108, 106

	.type	.L.str.109,@object              # @.str.109
.L.str.109:
	.asciz	"c5852db2-7acb-cba3-7f81-e7ef3cd1d3b8FF>>callable:1,functionName:FF_function_339,AUTOGENERATED:T,ID:c93,CHECKSUM:12C7"
	.size	.L.str.109, 117

	.type	.L__const.FF_function_339.FF_x,@object # @__const.FF_function_339.FF_x
	.section	.rodata,"a",@progbits
	.p2align	2
.L__const.FF_function_339.FF_x:
	.long	0                               # 0x0
	.long	0x3f000000                      # float 0.5
	.long	0
	.size	.L__const.FF_function_339.FF_x, 12

	.type	.L.str.110,@object              # @.str.110
	.section	.rodata.str1.1,"aMS",@progbits,1
.L.str.110:
	.asciz	"c5852db2-7acb-cba3-7f81-e7ef3cd1d3b8FF>>functionName:FF_function_339,AUTOGENERATED:T,ID:c94,CHECKSUM:3CF1"
	.size	.L.str.110, 106

	.type	.L.str.111,@object              # @.str.111
.L.str.111:
	.asciz	"c5852db2-7acb-cba3-7f81-e7ef3cd1d3b8FF>>callable:1,functionName:FF_function_338,AUTOGENERATED:T,ID:c95,CHECKSUM:851A"
	.size	.L.str.111, 117

	.type	.L.str.112,@object              # @.str.112
.L.str.112:
	.asciz	"c5852db2-7acb-cba3-7f81-e7ef3cd1d3b8FF>>functionName:FF_function_338,AUTOGENERATED:T,ID:c96,CHECKSUM:682D"
	.size	.L.str.112, 106

	.type	.L.str.113,@object              # @.str.113
.L.str.113:
	.asciz	"c5852db2-7acb-cba3-7f81-e7ef3cd1d3b8FF>>callable:1,functionName:FF_function_335,AUTOGENERATED:T,ID:c97,CHECKSUM:EE53"
	.size	.L.str.113, 117

	.type	.L__const.FF_function_335.FF_x,@object # @__const.FF_function_335.FF_x
	.section	.rodata,"a",@progbits
	.p2align	2
.L__const.FF_function_335.FF_x:
	.long	0                               # 0x0
	.long	0x3f000000                      # float 0.5
	.long	0
	.size	.L__const.FF_function_335.FF_x, 12

	.type	.L.str.114,@object              # @.str.114
	.section	.rodata.str1.1,"aMS",@progbits,1
.L.str.114:
	.asciz	"c5852db2-7acb-cba3-7f81-e7ef3cd1d3b8FF>>functionName:FF_function_335,AUTOGENERATED:T,ID:c98,CHECKSUM:0664"
	.size	.L.str.114, 106

	.type	.L.str.115,@object              # @.str.115
.L.str.115:
	.asciz	"c5852db2-7acb-cba3-7f81-e7ef3cd1d3b8FF>>callable:1,functionName:FF_function_334,AUTOGENERATED:T,ID:c99,CHECKSUM:BF8F"
	.size	.L.str.115, 117

	.type	.L.str.116,@object              # @.str.116
.L.str.116:
	.asciz	"c5852db2-7acb-cba3-7f81-e7ef3cd1d3b8FF>>functionName:FF_function_334,AUTOGENERATED:T,ID:c9a,CHECKSUM:A9F9"
	.size	.L.str.116, 106

	.type	.L.str.117,@object              # @.str.117
.L.str.117:
	.asciz	"c5852db2-7acb-cba3-7f81-e7ef3cd1d3b8FF>>callable:1,functionName:FF_function_331,AUTOGENERATED:T,ID:c9b,CHECKSUM:04E1"
	.size	.L.str.117, 117

	.type	.L.str.118,@object              # @.str.118
.L.str.118:
	.asciz	"c5852db2-7acb-cba3-7f81-e7ef3cd1d3b8FF>>functionName:FF_function_331,AUTOGENERATED:T,ID:c9c,CHECKSUM:2857"
	.size	.L.str.118, 106

	.type	.L.str.119,@object              # @.str.119
.L.str.119:
	.asciz	"c5852db2-7acb-cba3-7f81-e7ef3cd1d3b8FF>>callable:1,functionName:FF_function_328,AUTOGENERATED:T,ID:c9d,CHECKSUM:808F"
	.size	.L.str.119, 117

	.type	.L.str.120,@object              # @.str.120
.L.str.120:
	.asciz	"c5852db2-7acb-cba3-7f81-e7ef3cd1d3b8FF>>callable:1,functionName:FF_function_327,AUTOGENERATED:T,ID:c9f,CHECKSUM:817F"
	.size	.L.str.120, 117

	.type	.L__const.FF_function_327.FF_x,@object # @__const.FF_function_327.FF_x
	.section	.rodata,"a",@progbits
	.p2align	2
.L__const.FF_function_327.FF_x:
	.long	0                               # 0x0
	.long	0x3f000000                      # float 0.5
	.long	0
	.size	.L__const.FF_function_327.FF_x, 12

	.type	.L.str.121,@object              # @.str.121
	.section	.rodata.str1.1,"aMS",@progbits,1
.L.str.121:
	.asciz	"c5852db2-7acb-cba3-7f81-e7ef3cd1d3b8FF>>functionName:FF_function_327,AUTOGENERATED:T,ID:ca0,CHECKSUM:93B3"
	.size	.L.str.121, 106

	.type	.L.str.122,@object              # @.str.122
.L.str.122:
	.asciz	"c5852db2-7acb-cba3-7f81-e7ef3cd1d3b8FF>>callable:1,functionName:FF_function_326,AUTOGENERATED:T,ID:ca1,CHECKSUM:2A58"
	.size	.L.str.122, 117

	.type	.L.str.123,@object              # @.str.123
.L.str.123:
	.asciz	"c5852db2-7acb-cba3-7f81-e7ef3cd1d3b8FF>>functionName:FF_function_326,AUTOGENERATED:T,ID:ca2,CHECKSUM:C76F"
	.size	.L.str.123, 106

	.type	.L.str.124,@object              # @.str.124
.L.str.124:
	.asciz	"c5852db2-7acb-cba3-7f81-e7ef3cd1d3b8FF>>callable:1,functionName:FF_function_325,AUTOGENERATED:T,ID:ca3,CHECKSUM:143D"
	.size	.L.str.124, 117

	.type	.L.str.125,@object              # @.str.125
.L.str.125:
	.asciz	"c5852db2-7acb-cba3-7f81-e7ef3cd1d3b8FF>>functionName:FF_function_325,AUTOGENERATED:T,ID:ca4,CHECKSUM:3A0B"
	.size	.L.str.125, 106

	.type	.L.str.126,@object              # @.str.126
.L.str.126:
	.asciz	"c5852db2-7acb-cba3-7f81-e7ef3cd1d3b8FF>>callable:1,functionName:FF_function_324,AUTOGENERATED:T,ID:ca5,CHECKSUM:83E0"
	.size	.L.str.126, 117

	.type	.L.str.127,@object              # @.str.127
.L.str.127:
	.asciz	"c5852db2-7acb-cba3-7f81-e7ef3cd1d3b8FF>>callable:1,functionName:FF_function_323,AUTOGENERATED:T,ID:ca7,CHECKSUM:68F7"
	.size	.L.str.127, 117

	.type	.L__const.FF_function_323.FF_x,@object # @__const.FF_function_323.FF_x
	.section	.rodata,"a",@progbits
	.p2align	2
.L__const.FF_function_323.FF_x:
	.long	0                               # 0x0
	.long	0x3f000000                      # float 0.5
	.long	0
	.size	.L__const.FF_function_323.FF_x, 12

	.type	.L.str.128,@object              # @.str.128
	.section	.rodata.str1.1,"aMS",@progbits,1
.L.str.128:
	.asciz	"c5852db2-7acb-cba3-7f81-e7ef3cd1d3b8FF>>functionName:FF_function_323,AUTOGENERATED:T,ID:ca8,CHECKSUM:80C0"
	.size	.L.str.128, 106

	.type	.L.str.129,@object              # @.str.129
.L.str.129:
	.asciz	"c5852db2-7acb-cba3-7f81-e7ef3cd1d3b8FF>>callable:1,functionName:FF_function_320,AUTOGENERATED:T,ID:ca9,CHECKSUM:5392"
	.size	.L.str.129, 117

	.type	.L__const.FF_function_320.FF_x,@object # @__const.FF_function_320.FF_x
	.section	.rodata,"a",@progbits
	.p2align	2
.L__const.FF_function_320.FF_x:
	.long	0                               # 0x0
	.long	0x3f000000                      # float 0.5
	.long	0
	.size	.L__const.FF_function_320.FF_x, 12

	.type	.L.str.130,@object              # @.str.130
	.section	.rodata.str1.1,"aMS",@progbits,1
.L.str.130:
	.asciz	"c5852db2-7acb-cba3-7f81-e7ef3cd1d3b8FF>>functionName:FF_function_320,AUTOGENERATED:T,ID:caa,CHECKSUM:45E4"
	.size	.L.str.130, 106

	.type	.L.str.131,@object              # @.str.131
.L.str.131:
	.asciz	"c5852db2-7acb-cba3-7f81-e7ef3cd1d3b8FF>>callable:1,functionName:FF_function_317,AUTOGENERATED:T,ID:cab,CHECKSUM:C9BA"
	.size	.L.str.131, 117

	.type	.L__const.FF_function_317.FF_x,@object # @__const.FF_function_317.FF_x
	.section	.rodata,"a",@progbits
	.p2align	2
.L__const.FF_function_317.FF_x:
	.long	0                               # 0x0
	.long	0x3f000000                      # float 0.5
	.long	0
	.size	.L__const.FF_function_317.FF_x, 12

	.type	.L.str.132,@object              # @.str.132
	.section	.rodata.str1.1,"aMS",@progbits,1
.L.str.132:
	.asciz	"c5852db2-7acb-cba3-7f81-e7ef3cd1d3b8FF>>functionName:FF_function_317,AUTOGENERATED:T,ID:cac,CHECKSUM:E50C"
	.size	.L.str.132, 106

	.type	.L.str.133,@object              # @.str.133
.L.str.133:
	.asciz	"c5852db2-7acb-cba3-7f81-e7ef3cd1d3b8FF>>callable:1,functionName:FF_function_316,AUTOGENERATED:T,ID:cad,CHECKSUM:5E67"
	.size	.L.str.133, 117

	.type	.L.str.134,@object              # @.str.134
.L.str.134:
	.asciz	"c5852db2-7acb-cba3-7f81-e7ef3cd1d3b8FF>>functionName:FF_function_316,AUTOGENERATED:T,ID:cae,CHECKSUM:72D1"
	.size	.L.str.134, 106

	.type	.L.str.135,@object              # @.str.135
.L.str.135:
	.asciz	"c5852db2-7acb-cba3-7f81-e7ef3cd1d3b8FF>>callable:1,functionName:CF_function_386,AUTOGENERATED:T,ID:caf,CHECKSUM:03C8"
	.size	.L.str.135, 117

	.type	.L.str.136,@object              # @.str.136
.L.str.136:
	.asciz	"c5852db2-7acb-cba3-7f81-e7ef3cd1d3b8CF>>EGF:T,loopcom:WHILE,IGE:T,LOOPID:1736,EBM:T,PLID:-1,EBR:T,NESTLEV:0,UNR:NU,finitude:PFL,location:BEFORE,ID:b0b,EGA:T,CHECKSUM:C8A9"
	.size	.L.str.136, 171

	.type	.L.str.137,@object              # @.str.137
.L.str.137:
	.asciz	"c5852db2-7acb-cba3-7f81-e7ef3cd1d3b8CF>>LOOPID:1736,location:BODY,ID:b0c,CHECKSUM:BF23"
	.size	.L.str.137, 87

	.type	.L.str.138,@object              # @.str.138
.L.str.138:
	.asciz	"c5852db2-7acb-cba3-7f81-e7ef3cd1d3b8CF>>LOOPID:1736,location:UNDEFINED,ID:b0d,DUMMY:T,CHECKSUM:65DE"
	.size	.L.str.138, 100

	.type	.L.str.139,@object              # @.str.139
.L.str.139:
	.asciz	"c5852db2-7acb-cba3-7f81-e7ef3cd1d3b8CF>>LOOPID:1736,location:BEFORE_GOTO_FURTHER_AFTER,ID:b0e,CHECKSUM:934D"
	.size	.L.str.139, 108

	.type	.L.str.140,@object              # @.str.140
.L.str.140:
	.asciz	"c5852db2-7acb-cba3-7f81-e7ef3cd1d3b8CF>>LOOPID:1736,location:UNDEFINED,ID:b0f,DUMMY:T,CHECKSUM:05C7"
	.size	.L.str.140, 100

	.type	.L.str.141,@object              # @.str.141
.L.str.141:
	.asciz	"c5852db2-7acb-cba3-7f81-e7ef3cd1d3b8CF>>LOOPID:1736,location:UNDEFINED,ID:b10,DUMMY:T,CHECKSUM:6341"
	.size	.L.str.141, 100

	.type	.L.str.142,@object              # @.str.142
.L.str.142:
	.asciz	"c5852db2-7acb-cba3-7f81-e7ef3cd1d3b8CF>>LOOPID:1736,location:AFTER,ID:b11,CHECKSUM:A899"
	.size	.L.str.142, 88

	.type	.L.str.143,@object              # @.str.143
.L.str.143:
	.asciz	"c5852db2-7acb-cba3-7f81-e7ef3cd1d3b8CF>>LOOPID:1736,location:UNDEFINED,ID:b12,DUMMY:T,CHECKSUM:0358"
	.size	.L.str.143, 100

	.type	.L.str.144,@object              # @.str.144
.L.str.144:
	.asciz	"c5852db2-7acb-cba3-7f81-e7ef3cd1d3b8FF>>functionName:CF_function_386,AUTOGENERATED:T,ID:cb0,CHECKSUM:213F"
	.size	.L.str.144, 106

	.type	.L.str.145,@object              # @.str.145
.L.str.145:
	.asciz	"c5852db2-7acb-cba3-7f81-e7ef3cd1d3b8FF>>callable:1,functionName:CF_function_387,AUTOGENERATED:T,ID:cb1,CHECKSUM:98D4"
	.size	.L.str.145, 117

	.type	.L.str.146,@object              # @.str.146
.L.str.146:
	.asciz	"c5852db2-7acb-cba3-7f81-e7ef3cd1d3b8CF>>LOOPID:1740,PLID:-1,EGF:T,loopcom:FOR,NESTLEV:0,UNR:NU,finitude:PFL,EEX:T,location:BEFORE,ID:b15,EGA:T,CHECKSUM:84E3"
	.size	.L.str.146, 157

	.type	.L.str.147,@object              # @.str.147
.L.str.147:
	.asciz	"c5852db2-7acb-cba3-7f81-e7ef3cd1d3b8CF>>LOOPID:1740,location:BODY,ID:b16,CHECKSUM:2C62"
	.size	.L.str.147, 87

	.type	.L.str.148,@object              # @.str.148
.L.str.148:
	.asciz	"c5852db2-7acb-cba3-7f81-e7ef3cd1d3b8CF>>LOOPID:1740,location:UNDEFINED,ID:b17,DUMMY:T,CHECKSUM:C2C8"
	.size	.L.str.148, 100

	.type	.L.str.149,@object              # @.str.149
.L.str.149:
	.asciz	"c5852db2-7acb-cba3-7f81-e7ef3cd1d3b8CF>>LOOPID:1740,location:BEFORE_GOTO_FURTHER_AFTER,ID:b18,CHECKSUM:0B47"
	.size	.L.str.149, 108

	.type	.L.str.150,@object              # @.str.150
.L.str.150:
	.asciz	"c5852db2-7acb-cba3-7f81-e7ef3cd1d3b8CF>>LOOPID:1740,location:UNDEFINED,ID:b19,DUMMY:T,CHECKSUM:A284"
	.size	.L.str.150, 100

	.type	.L.str.151,@object              # @.str.151
.L.str.151:
	.asciz	"c5852db2-7acb-cba3-7f81-e7ef3cd1d3b8CF>>EGF:T,loopcom:FOR,IGE:T,ICC:T,LOOPID:1739,EBM:T,PLID:1740,EBR:T,NESTLEV:1,UNR:NU,finitude:PFL,EEX:T,location:BEFORE,ID:b1a,EGA:T,CHECKSUM:F0D7"
	.size	.L.str.151, 183

	.type	.L.str.152,@object              # @.str.152
.L.str.152:
	.asciz	"c5852db2-7acb-cba3-7f81-e7ef3cd1d3b8CF>>LOOPID:1739,location:BODY,ID:b1b,CHECKSUM:AF5C"
	.size	.L.str.152, 87

	.type	.L.str.153,@object              # @.str.153
.L.str.153:
	.asciz	"c5852db2-7acb-cba3-7f81-e7ef3cd1d3b8CF>>LOOPID:1739,location:UNDEFINED,ID:b1c,DUMMY:T,CHECKSUM:9102"
	.size	.L.str.153, 100

	.type	.L.str.154,@object              # @.str.154
.L.str.154:
	.asciz	"c5852db2-7acb-cba3-7f81-e7ef3cd1d3b8CF>>LOOPID:1739,location:BEFORE_GOTO_FURTHER_AFTER,ID:b1d,CHECKSUM:C8D6"
	.size	.L.str.154, 108

	.type	.L.str.155,@object              # @.str.155
.L.str.155:
	.asciz	"c5852db2-7acb-cba3-7f81-e7ef3cd1d3b8CF>>LOOPID:1739,location:BEFORE_GOTO_BREAK_MULTIPLE,ID:b1e,CHECKSUM:EEE0"
	.size	.L.str.155, 109

	.type	.L.str.156,@object              # @.str.156
.L.str.156:
	.asciz	"c5852db2-7acb-cba3-7f81-e7ef3cd1d3b8CF>>LOOPID:1739,location:UNDEFINED,ID:b1f,DUMMY:T,CHECKSUM:C13D"
	.size	.L.str.156, 100

	.type	.L.str.157,@object              # @.str.157
.L.str.157:
	.asciz	"c5852db2-7acb-cba3-7f81-e7ef3cd1d3b8CF>>LOOPID:1739,location:AFTER,ID:b20,CHECKSUM:2859"
	.size	.L.str.157, 88

	.type	.L.str.158,@object              # @.str.158
.L.str.158:
	.asciz	"c5852db2-7acb-cba3-7f81-e7ef3cd1d3b8CF>>LOOPID:1740,location:UNDEFINED,ID:b21,DUMMY:T,CHECKSUM:6D13"
	.size	.L.str.158, 100

	.type	.L.str.159,@object              # @.str.159
.L.str.159:
	.asciz	"c5852db2-7acb-cba3-7f81-e7ef3cd1d3b8CF>>LOOPID:1740,location:AFTER,ID:b22,CHECKSUM:F9E4"
	.size	.L.str.159, 88

	.type	.L.str.160,@object              # @.str.160
.L.str.160:
	.asciz	"c5852db2-7acb-cba3-7f81-e7ef3cd1d3b8CF>>LOOPID:1740,location:UNDEFINED,ID:b23,DUMMY:T,CHECKSUM:0D0A"
	.size	.L.str.160, 100

	.type	.L.str.161,@object              # @.str.161
.L.str.161:
	.asciz	"c5852db2-7acb-cba3-7f81-e7ef3cd1d3b8FF>>functionName:CF_function_387,AUTOGENERATED:T,ID:cb2,CHECKSUM:75E3"
	.size	.L.str.161, 106

	.type	.L.str.162,@object              # @.str.162
.L.str.162:
	.asciz	"c5852db2-7acb-cba3-7f81-e7ef3cd1d3b8FF>>callable:1,functionName:FF_function_388,AUTOGENERATED:T,ID:cb3,CHECKSUM:B6F4"
	.size	.L.str.162, 117

	.type	.L.str.163,@object              # @.str.163
.L.str.163:
	.asciz	"c5852db2-7acb-cba3-7f81-e7ef3cd1d3b8FF>>functionName:FF_function_388,AUTOGENERATED:T,ID:cb4,CHECKSUM:98C2"
	.size	.L.str.163, 106

	.type	.L.str.164,@object              # @.str.164
.L.str.164:
	.asciz	"c5852db2-7acb-cba3-7f81-e7ef3cd1d3b8FF>>callable:1,functionName:FF_function_389,AUTOGENERATED:T,ID:cb5,CHECKSUM:2129"
	.size	.L.str.164, 117

	.type	.L.str.165,@object              # @.str.165
.L.str.165:
	.asciz	"c5852db2-7acb-cba3-7f81-e7ef3cd1d3b8FF>>functionName:FF_function_389,AUTOGENERATED:T,ID:cb6,CHECKSUM:CC1E"
	.size	.L.str.165, 106

	.type	.L.str.166,@object              # @.str.166
.L.str.166:
	.asciz	"c5852db2-7acb-cba3-7f81-e7ef3cd1d3b8FF>>callable:1,functionName:FF_function_391,AUTOGENERATED:T,ID:cb7,CHECKSUM:F31B"
	.size	.L.str.166, 117

	.type	.L.str.167,@object              # @.str.167
.L.str.167:
	.asciz	"c5852db2-7acb-cba3-7f81-e7ef3cd1d3b8FF>>functionName:FF_function_391,AUTOGENERATED:T,ID:cb8,CHECKSUM:1B2C"
	.size	.L.str.167, 106

	.type	.L.str.168,@object              # @.str.168
.L.str.168:
	.asciz	"c5852db2-7acb-cba3-7f81-e7ef3cd1d3b8FF>>callable:1,functionName:CF_function_390,AUTOGENERATED:T,ID:cb9,CHECKSUM:8D17"
	.size	.L.str.168, 117

	.type	.L.str.169,@object              # @.str.169
.L.str.169:
	.asciz	"c5852db2-7acb-cba3-7f81-e7ef3cd1d3b8CF>>LVN:CF_LV1762,loopcom:WHILE,ICC:T,LVT:INT,LOOPID:1762,INEXP:3,UPEXP:+=11,PLID:-1,NESTLEV:0,TSEXP:!=8859,UNR:NU,finitude:PFL,EEX:T,location:BEFORE,ID:b90,EXR:T,EGA:T,CHECKSUM:7D8F"
	.size	.L.str.169, 219

	.type	.L.str.170,@object              # @.str.170
.L.str.170:
	.asciz	"c5852db2-7acb-cba3-7f81-e7ef3cd1d3b8CF>>LOOPID:1762,location:BODY,ID:b91,__DECIMAL_FIELD__:%d,CHECKSUM:8223"
	.size	.L.str.170, 108

	.type	.L.str.171,@object              # @.str.171
.L.str.171:
	.asciz	"c5852db2-7acb-cba3-7f81-e7ef3cd1d3b8CF>>LOOPID:1762,location:UNDEFINED,ID:b92,DUMMY:T,CHECKSUM:43AC"
	.size	.L.str.171, 100

	.type	.L.str.172,@object              # @.str.172
.L.str.172:
	.asciz	"c5852db2-7acb-cba3-7f81-e7ef3cd1d3b8CF>>loopcom:FOR,ICC:T,LOOPID:1763,EBM:T,PLID:1762,EBR:T,NESTLEV:1,UNR:NU,finitude:PFL,EEX:T,location:BEFORE,ID:b93,EXR:T,CHECKSUM:E2D7"
	.size	.L.str.172, 171

	.type	.L.str.173,@object              # @.str.173
.L.str.173:
	.asciz	"c5852db2-7acb-cba3-7f81-e7ef3cd1d3b8CF>>LOOPID:1763,location:BODY,ID:b94,CHECKSUM:410E"
	.size	.L.str.173, 87

	.type	.L.str.174,@object              # @.str.174
.L.str.174:
	.asciz	"c5852db2-7acb-cba3-7f81-e7ef3cd1d3b8CF>>LOOPID:1763,location:BEFORE_GOTO_BREAK_MULTIPLE,ID:b95,CHECKSUM:EDBD"
	.size	.L.str.174, 109

	.type	.L.str.175,@object              # @.str.175
.L.str.175:
	.asciz	"c5852db2-7acb-cba3-7f81-e7ef3cd1d3b8CF>>EGF:T,loopcom:FOR,ICC:T,LOOPID:1764,EBM:T,PLID:1763,NESTLEV:2,UNR:NU,finitude:PFL,location:BEFORE,ID:b96,EXR:T,EGA:T,CHECKSUM:417E"
	.size	.L.str.175, 171

	.type	.L.str.176,@object              # @.str.176
.L.str.176:
	.asciz	"c5852db2-7acb-cba3-7f81-e7ef3cd1d3b8CF>>LOOPID:1764,location:BODY,ID:b97,CHECKSUM:A678"
	.size	.L.str.176, 87

	.type	.L.str.177,@object              # @.str.177
.L.str.177:
	.asciz	"c5852db2-7acb-cba3-7f81-e7ef3cd1d3b8CF>>LOOPID:1764,location:UNDEFINED,ID:b98,DUMMY:T,CHECKSUM:E33C"
	.size	.L.str.177, 100

	.type	.L.str.178,@object              # @.str.178
.L.str.178:
	.asciz	"c5852db2-7acb-cba3-7f81-e7ef3cd1d3b8CF>>LOOPID:1764,location:BEFORE_GOTO_FURTHER_AFTER,ID:b99,CHECKSUM:2F09"
	.size	.L.str.178, 108

	.type	.L.str.179,@object              # @.str.179
.L.str.179:
	.asciz	"c5852db2-7acb-cba3-7f81-e7ef3cd1d3b8CF>>LOOPID:1764,location:BEFORE_GOTO_BREAK_MULTIPLE,ID:b9a,CHECKSUM:27F9"
	.size	.L.str.179, 109

	.type	.L.str.180,@object              # @.str.180
.L.str.180:
	.asciz	"c5852db2-7acb-cba3-7f81-e7ef3cd1d3b8CF>>LOOPID:1764,location:UNDEFINED,ID:b9b,DUMMY:T,CHECKSUM:40BE"
	.size	.L.str.180, 100

	.type	.L.str.181,@object              # @.str.181
.L.str.181:
	.asciz	"c5852db2-7acb-cba3-7f81-e7ef3cd1d3b8CF>>LOOPID:1766,INEXP:8,UPEXP:++,PLID:1764,LVN:CF_LV1766,loopcom:WHILE,NESTLEV:3,UNR:NU,finitude:TIL,location:BEFORE,ID:b9c,LVT:INT,CHECKSUM:F105"
	.size	.L.str.181, 182

	.type	.L.str.182,@object              # @.str.182
.L.str.182:
	.asciz	"c5852db2-7acb-cba3-7f81-e7ef3cd1d3b8CF>>LOOPID:1766,location:BODY,ID:b9d,__DECIMAL_FIELD__:%d,CHECKSUM:C3E8"
	.size	.L.str.182, 108

	.type	.L.str.183,@object              # @.str.183
.L.str.183:
	.asciz	"c5852db2-7acb-cba3-7f81-e7ef3cd1d3b8CF>>LOOPID:1766,location:UNDEFINED,ID:b9e,DUMMY:T,CHECKSUM:B0C3"
	.size	.L.str.183, 100

	.type	.L.str.184,@object              # @.str.184
.L.str.184:
	.asciz	"c5852db2-7acb-cba3-7f81-e7ef3cd1d3b8CF>>LOOPID:1766,location:UNDEFINED,ID:b9f,DUMMY:T,CHECKSUM:40D7"
	.size	.L.str.184, 100

	.type	.L.str.185,@object              # @.str.185
.L.str.185:
	.asciz	"c5852db2-7acb-cba3-7f81-e7ef3cd1d3b8CF>>LOOPID:1765,EBM:T,PLID:1766,loopcom:FOR,NESTLEV:4,ICC:T,UNR:NU,finitude:PFL,location:BEFORE,ID:ba0,CHECKSUM:3012"
	.size	.L.str.185, 153

	.type	.L.str.186,@object              # @.str.186
.L.str.186:
	.asciz	"c5852db2-7acb-cba3-7f81-e7ef3cd1d3b8CF>>LOOPID:1765,location:BODY,ID:ba1,CHECKSUM:A813"
	.size	.L.str.186, 87

	.type	.L.str.187,@object              # @.str.187
.L.str.187:
	.asciz	"c5852db2-7acb-cba3-7f81-e7ef3cd1d3b8CF>>LOOPID:1765,location:UNDEFINED,ID:ba2,DUMMY:T,CHECKSUM:28EC"
	.size	.L.str.187, 100

	.type	.L.str.188,@object              # @.str.188
.L.str.188:
	.asciz	"c5852db2-7acb-cba3-7f81-e7ef3cd1d3b8CF>>LOOPID:1765,location:BEFORE_GOTO_BREAK_MULTIPLE,ID:ba3,CHECKSUM:8B83"
	.size	.L.str.188, 109

	.type	.L.str.189,@object              # @.str.189
.L.str.189:
	.asciz	"c5852db2-7acb-cba3-7f81-e7ef3cd1d3b8CF>>LOOPID:1765,location:UNDEFINED,ID:ba4,DUMMY:T,CHECKSUM:88C7"
	.size	.L.str.189, 100

	.type	.L.str.190,@object              # @.str.190
.L.str.190:
	.asciz	"c5852db2-7acb-cba3-7f81-e7ef3cd1d3b8CF>>LOOPID:1765,location:UNDEFINED,ID:ba5,DUMMY:T,CHECKSUM:18CA"
	.size	.L.str.190, 100

	.type	.L.str.191,@object              # @.str.191
.L.str.191:
	.asciz	"c5852db2-7acb-cba3-7f81-e7ef3cd1d3b8CF>>LOOPID:1765,location:AFTER,ID:ba6,CHECKSUM:CF9F"
	.size	.L.str.191, 88

	.type	.L.str.192,@object              # @.str.192
.L.str.192:
	.asciz	"c5852db2-7acb-cba3-7f81-e7ef3cd1d3b8CF>>LOOPID:1765,location:UNDEFINED,ID:ba7,DUMMY:T,CHECKSUM:78D3"
	.size	.L.str.192, 100

	.type	.L.str.193,@object              # @.str.193
.L.str.193:
	.asciz	"c5852db2-7acb-cba3-7f81-e7ef3cd1d3b8CF>>LOOPID:1766,location:AFTER,ID:ba8,CHECKSUM:EE4A"
	.size	.L.str.193, 88

	.type	.L.str.194,@object              # @.str.194
.L.str.194:
	.asciz	"c5852db2-7acb-cba3-7f81-e7ef3cd1d3b8CF>>LOOPID:1764,location:UNDEFINED,ID:ba9,DUMMY:T,CHECKSUM:D8B3"
	.size	.L.str.194, 100

	.type	.L.str.195,@object              # @.str.195
.L.str.195:
	.asciz	"c5852db2-7acb-cba3-7f81-e7ef3cd1d3b8CF>>LOOPID:1764,location:AFTER,ID:baa,CHECKSUM:AD13"
	.size	.L.str.195, 88

	.type	.L.str.196,@object              # @.str.196
.L.str.196:
	.asciz	"c5852db2-7acb-cba3-7f81-e7ef3cd1d3b8CF>>LOOPID:1763,location:AFTER,ID:bab,CHECKSUM:BA35"
	.size	.L.str.196, 88

	.type	.L.str.197,@object              # @.str.197
.L.str.197:
	.asciz	"c5852db2-7acb-cba3-7f81-e7ef3cd1d3b8CF>>LOOPID:1763,location:UNDEFINED,ID:bac,DUMMY:T,CHECKSUM:BBF3"
	.size	.L.str.197, 100

	.type	.L.str.198,@object              # @.str.198
.L.str.198:
	.asciz	"c5852db2-7acb-cba3-7f81-e7ef3cd1d3b8CF>>LOOPID:1762,location:AFTER,ID:bad,CHECKSUM:2478"
	.size	.L.str.198, 88

	.type	.L.str.199,@object              # @.str.199
.L.str.199:
	.asciz	"c5852db2-7acb-cba3-7f81-e7ef3cd1d3b8CF>>LOOPID:1762,location:UNDEFINED,ID:bae,DUMMY:T,CHECKSUM:DBF4"
	.size	.L.str.199, 100

	.type	.L.str.200,@object              # @.str.200
.L.str.200:
	.asciz	"c5852db2-7acb-cba3-7f81-e7ef3cd1d3b8FF>>functionName:CF_function_390,AUTOGENERATED:T,ID:cba,CHECKSUM:9B61"
	.size	.L.str.200, 106

	.type	.L.str.201,@object              # @.str.201
.L.str.201:
	.asciz	"c5852db2-7acb-cba3-7f81-e7ef3cd1d3b8FF>>callable:1,functionName:CF_function_392,AUTOGENERATED:T,ID:cbb,CHECKSUM:1CEF"
	.size	.L.str.201, 117

	.type	.L.str.202,@object              # @.str.202
.L.str.202:
	.asciz	"c5852db2-7acb-cba3-7f81-e7ef3cd1d3b8CF>>EGF:T,loopcom:DOWHILE,IGE:T,ICC:T,LOOPID:1782,EBM:T,PLID:-1,NESTLEV:0,UNR:NU,finitude:PFL,EEX:T,location:BEFORE,ID:c02,EXR:T,EGA:T,CHECKSUM:647F"
	.size	.L.str.202, 185

	.type	.L.str.203,@object              # @.str.203
.L.str.203:
	.asciz	"c5852db2-7acb-cba3-7f81-e7ef3cd1d3b8CF>>LOOPID:1782,location:BODY,ID:c03,CHECKSUM:F304"
	.size	.L.str.203, 87

	.type	.L.str.204,@object              # @.str.204
.L.str.204:
	.asciz	"c5852db2-7acb-cba3-7f81-e7ef3cd1d3b8CF>>LOOPID:1782,location:BEFORE_GOTO_FURTHER_AFTER,ID:c04,CHECKSUM:D49A"
	.size	.L.str.204, 108

	.type	.L.str.205,@object              # @.str.205
.L.str.205:
	.asciz	"c5852db2-7acb-cba3-7f81-e7ef3cd1d3b8CF>>LOOPID:1782,location:UNDEFINED,ID:c05,DUMMY:T,CHECKSUM:C2DF"
	.size	.L.str.205, 100

	.type	.L.str.206,@object              # @.str.206
.L.str.206:
	.asciz	"c5852db2-7acb-cba3-7f81-e7ef3cd1d3b8CF>>EGF:T,loopcom:DOWHILE,IGE:T,LOOPID:1785,EBM:T,PLID:1782,NESTLEV:1,UNR:NU,finitude:PFL,EEX:T,location:BEFORE,ID:c06,EXR:T,CHECKSUM:A1BA"
	.size	.L.str.206, 175

	.type	.L.str.207,@object              # @.str.207
.L.str.207:
	.asciz	"c5852db2-7acb-cba3-7f81-e7ef3cd1d3b8CF>>LOOPID:1785,location:BODY,ID:c07,CHECKSUM:D633"
	.size	.L.str.207, 87

	.type	.L.str.208,@object              # @.str.208
.L.str.208:
	.asciz	"c5852db2-7acb-cba3-7f81-e7ef3cd1d3b8CF>>LOOPID:1785,location:UNDEFINED,ID:c08,DUMMY:T,CHECKSUM:9245"
	.size	.L.str.208, 100

	.type	.L.str.209,@object              # @.str.209
.L.str.209:
	.asciz	"c5852db2-7acb-cba3-7f81-e7ef3cd1d3b8CF>>LOOPID:1785,location:BEFORE_GOTO_FURTHER_AFTER,ID:c09,CHECKSUM:9416"
	.size	.L.str.209, 108

	.type	.L.str.210,@object              # @.str.210
.L.str.210:
	.asciz	"c5852db2-7acb-cba3-7f81-e7ef3cd1d3b8CF>>LOOPID:1785,location:BEFORE_GOTO_BREAK_MULTIPLE,ID:c0a,CHECKSUM:8185"
	.size	.L.str.210, 109

	.type	.L.str.211,@object              # @.str.211
.L.str.211:
	.asciz	"c5852db2-7acb-cba3-7f81-e7ef3cd1d3b8CF>>LOOPID:1785,location:UNDEFINED,ID:c0b,DUMMY:T,CHECKSUM:31C7"
	.size	.L.str.211, 100

	.type	.L.str.212,@object              # @.str.212
.L.str.212:
	.asciz	"c5852db2-7acb-cba3-7f81-e7ef3cd1d3b8CF>>LOOPID:1784,EBM:T,PLID:1785,loopcom:FOR,IGE:T,NESTLEV:2,UNR:NU,finitude:PFL,EEX:T,location:BEFORE,ID:c0c,EGA:T,CHECKSUM:2227"
	.size	.L.str.212, 165

	.type	.L.str.213,@object              # @.str.213
.L.str.213:
	.asciz	"c5852db2-7acb-cba3-7f81-e7ef3cd1d3b8CF>>LOOPID:1784,location:BODY,ID:c0d,CHECKSUM:27A3"
	.size	.L.str.213, 87

	.type	.L.str.214,@object              # @.str.214
.L.str.214:
	.asciz	"c5852db2-7acb-cba3-7f81-e7ef3cd1d3b8CF>>LOOPID:1784,location:UNDEFINED,ID:c0e,DUMMY:T,CHECKSUM:C1CD"
	.size	.L.str.214, 100

	.type	.L.str.215,@object              # @.str.215
.L.str.215:
	.asciz	"c5852db2-7acb-cba3-7f81-e7ef3cd1d3b8CF>>LOOPID:1784,location:BEFORE_GOTO_BREAK_MULTIPLE,ID:c0f,CHECKSUM:D204"
	.size	.L.str.215, 109

	.type	.L.str.216,@object              # @.str.216
.L.str.216:
	.asciz	"c5852db2-7acb-cba3-7f81-e7ef3cd1d3b8CF>>LOOPID:1784,location:UNDEFINED,ID:c10,DUMMY:T,CHECKSUM:575F"
	.size	.L.str.216, 100

	.type	.L.str.217,@object              # @.str.217
.L.str.217:
	.asciz	"c5852db2-7acb-cba3-7f81-e7ef3cd1d3b8CF>>LOOPID:1784,location:UNDEFINED,ID:c11,DUMMY:T,CHECKSUM:C752"
	.size	.L.str.217, 100

	.type	.L.str.218,@object              # @.str.218
.L.str.218:
	.asciz	"c5852db2-7acb-cba3-7f81-e7ef3cd1d3b8CF>>LOOPID:1784,location:AFTER,ID:c12,CHECKSUM:0512"
	.size	.L.str.218, 88

	.type	.L.str.219,@object              # @.str.219
.L.str.219:
	.asciz	"c5852db2-7acb-cba3-7f81-e7ef3cd1d3b8CF>>LOOPID:1784,location:UNDEFINED,ID:c13,DUMMY:T,CHECKSUM:A74B"
	.size	.L.str.219, 100

	.type	.L.str.220,@object              # @.str.220
.L.str.220:
	.asciz	"c5852db2-7acb-cba3-7f81-e7ef3cd1d3b8CF>>LOOPID:1785,location:AFTER,ID:c14,CHECKSUM:9B5F"
	.size	.L.str.220, 88

	.type	.L.str.221,@object              # @.str.221
.L.str.221:
	.asciz	"c5852db2-7acb-cba3-7f81-e7ef3cd1d3b8CF>>LOOPID:1785,location:UNDEFINED,ID:c15,DUMMY:T,CHECKSUM:C74C"
	.size	.L.str.221, 100

	.type	.L.str.222,@object              # @.str.222
.L.str.222:
	.asciz	"c5852db2-7acb-cba3-7f81-e7ef3cd1d3b8CF>>LVN:CF_LV1783,loopcom:DOWHILE,LVT:FLOAT,LOOPID:1783,INEXP:2597.76,UPEXP:+=9.14,PLID:1782,UNRIT:9,NESTLEV:1,TSEXP:<=2679.26,UNR:U-,finitude:PFL,location:BEFORE,ID:c16,CHECKSUM:4839"
	.size	.L.str.222, 220

	.type	.L.str.223,@object              # @.str.223
.L.str.223:
	.asciz	"c5852db2-7acb-cba3-7f81-e7ef3cd1d3b8CF>>LOOPID:1783,location:BODY,ID:c17,CHECKSUM:6CD4"
	.size	.L.str.223, 87

	.type	.L.str.224,@object              # @.str.224
.L.str.224:
	.asciz	"c5852db2-7acb-cba3-7f81-e7ef3cd1d3b8CF>>LOOPID:1783,location:AFTER,ID:c18,CHECKSUM:14F4"
	.size	.L.str.224, 88

	.type	.L.str.225,@object              # @.str.225
.L.str.225:
	.asciz	"c5852db2-7acb-cba3-7f81-e7ef3cd1d3b8CF>>LOOPID:1783,location:UNDEFINED,ID:c19,DUMMY:T,CHECKSUM:C7F7"
	.size	.L.str.225, 100

	.type	.L.str.226,@object              # @.str.226
.L.str.226:
	.asciz	"c5852db2-7acb-cba3-7f81-e7ef3cd1d3b8CF>>LOOPID:1782,location:UNDEFINED,ID:c1a,DUMMY:T,CHECKSUM:C440"
	.size	.L.str.226, 100

	.type	.L.str.227,@object              # @.str.227
.L.str.227:
	.asciz	"c5852db2-7acb-cba3-7f81-e7ef3cd1d3b8CF>>LOOPID:1782,location:AFTER,ID:c1b,CHECKSUM:B3B9"
	.size	.L.str.227, 88

	.type	.L.str.228,@object              # @.str.228
.L.str.228:
	.asciz	"c5852db2-7acb-cba3-7f81-e7ef3cd1d3b8CF>>LOOPID:1782,location:UNDEFINED,ID:c1c,DUMMY:T,CHECKSUM:A459"
	.size	.L.str.228, 100

	.type	.L.str.229,@object              # @.str.229
.L.str.229:
	.asciz	"c5852db2-7acb-cba3-7f81-e7ef3cd1d3b8FF>>functionName:CF_function_392,AUTOGENERATED:T,ID:cbc,CHECKSUM:3059"
	.size	.L.str.229, 106

	.type	.L.str.230,@object              # @.str.230
.L.str.230:
	.asciz	"c5852db2-7acb-cba3-7f81-e7ef3cd1d3b8FF>>callable:1,functionName:main,AUTOGENERATED:T,ID:cbd,CHECKSUM:5A3B"
	.size	.L.str.230, 106

	.type	.L.str.231,@object              # @.str.231
.L.str.231:
	.asciz	"c5852db2-7acb-cba3-7f81-e7ef3cd1d3b8MD>>ID:afd,version:1.0.0,CHECKSUM:698C"
	.size	.L.str.231, 75

	.type	.L.str.232,@object              # @.str.232
.L.str.232:
	.asciz	"c5852db2-7acb-cba3-7f81-e7ef3cd1d3b8CF>>ID:afe,CHECKSUM:3986"
	.size	.L.str.232, 61

	.type	.L.str.233,@object              # @.str.233
.L.str.233:
	.asciz	"c5852db2-7acb-cba3-7f81-e7ef3cd1d3b8CF>>ID:aff,CHECKSUM:38C6"
	.size	.L.str.233, 61

	.type	.L.str.234,@object              # @.str.234
.L.str.234:
	.asciz	"c5852db2-7acb-cba3-7f81-e7ef3cd1d3b8CF>>ID:b00,CHECKSUM:A689"
	.size	.L.str.234, 61

	.type	.L.str.235,@object              # @.str.235
.L.str.235:
	.asciz	"c5852db2-7acb-cba3-7f81-e7ef3cd1d3b8CF>>ID:b01,CHECKSUM:6648"
	.size	.L.str.235, 61

	.type	.L.str.236,@object              # @.str.236
.L.str.236:
	.asciz	"c5852db2-7acb-cba3-7f81-e7ef3cd1d3b8CF>>ID:b02,CHECKSUM:6708"
	.size	.L.str.236, 61

	.type	.L.str.237,@object              # @.str.237
.L.str.237:
	.asciz	"c5852db2-7acb-cba3-7f81-e7ef3cd1d3b8CF>>ID:b03,CHECKSUM:A7C9"
	.size	.L.str.237, 61

	.type	.L.str.238,@object              # @.str.238
.L.str.238:
	.asciz	"c5852db2-7acb-cba3-7f81-e7ef3cd1d3b8CF>>ID:b04,CHECKSUM:6588"
	.size	.L.str.238, 61

	.type	.L.str.239,@object              # @.str.239
.L.str.239:
	.asciz	"c5852db2-7acb-cba3-7f81-e7ef3cd1d3b8CF>>ID:b05,CHECKSUM:A549"
	.size	.L.str.239, 61

	.type	.L.str.240,@object              # @.str.240
.L.str.240:
	.asciz	"c5852db2-7acb-cba3-7f81-e7ef3cd1d3b8CF>>ID:b06,CHECKSUM:A409"
	.size	.L.str.240, 61

	.type	.L.str.241,@object              # @.str.241
.L.str.241:
	.asciz	"c5852db2-7acb-cba3-7f81-e7ef3cd1d3b8CF>>ID:b07,CHECKSUM:64C8"
	.size	.L.str.241, 61

	.type	.L.str.242,@object              # @.str.242
.L.str.242:
	.asciz	"c5852db2-7acb-cba3-7f81-e7ef3cd1d3b8CF>>ID:b08,CHECKSUM:6088"
	.size	.L.str.242, 61

	.type	.L.str.243,@object              # @.str.243
.L.str.243:
	.asciz	"c5852db2-7acb-cba3-7f81-e7ef3cd1d3b8CF>>ID:b09,CHECKSUM:A049"
	.size	.L.str.243, 61

	.type	.L.str.244,@object              # @.str.244
.L.str.244:
	.asciz	"c5852db2-7acb-cba3-7f81-e7ef3cd1d3b8CF>>ID:b0a,CHECKSUM:5A48"
	.size	.L.str.244, 61

	.type	.L.str.245,@object              # @.str.245
.L.str.245:
	.asciz	"c5852db2-7acb-cba3-7f81-e7ef3cd1d3b8CF>>ID:b13,CHECKSUM:37C8"
	.size	.L.str.245, 61

	.type	.L.str.246,@object              # @.str.246
.L.str.246:
	.asciz	"c5852db2-7acb-cba3-7f81-e7ef3cd1d3b8CF>>ID:b14,CHECKSUM:F589"
	.size	.L.str.246, 61

	.type	.L.str.247,@object              # @.str.247
.L.str.247:
	.asciz	"c5852db2-7acb-cba3-7f81-e7ef3cd1d3b8CF>>ID:b24,CHECKSUM:0589"
	.size	.L.str.247, 61

	.type	.L.str.248,@object              # @.str.248
.L.str.248:
	.asciz	"c5852db2-7acb-cba3-7f81-e7ef3cd1d3b8CF>>LOOPID:1744,PLID:-1,loopcom:DOWHILE,NESTLEV:0,UNR:NU,finitude:PFL,EEX:T,location:BEFORE,ID:b25,CHECKSUM:37FF"
	.size	.L.str.248, 149

	.type	.L.str.249,@object              # @.str.249
.L.str.249:
	.asciz	"c5852db2-7acb-cba3-7f81-e7ef3cd1d3b8CF>>LOOPID:1744,location:BODY,ID:b26,CHECKSUM:2F27"
	.size	.L.str.249, 87

	.type	.L.str.250,@object              # @.str.250
.L.str.250:
	.asciz	"c5852db2-7acb-cba3-7f81-e7ef3cd1d3b8CF>>LOOPID:1744,location:UNDEFINED,ID:b27,DUMMY:T,CHECKSUM:0D8D"
	.size	.L.str.250, 100

	.type	.L.str.251,@object              # @.str.251
.L.str.251:
	.asciz	"c5852db2-7acb-cba3-7f81-e7ef3cd1d3b8CF>>LOOPID:1744,location:UNDEFINED,ID:b28,DUMMY:T,CHECKSUM:FDCC"
	.size	.L.str.251, 100

	.type	.L.str.252,@object              # @.str.252
.L.str.252:
	.asciz	"c5852db2-7acb-cba3-7f81-e7ef3cd1d3b8CF>>LVN:CF_LV1748,EGF:T,loopcom:WHILE,LVT:INT,LOOPID:1748,INEXP:8445,UPEXP:-=getchar(),PLID:1744,EBR:T,NESTLEV:1,TSEXP:>=1,UNR:NU,finitude:PFL,EEX:T,location:BEFORE,ID:b29,EGA:T,CHECKSUM:71F4"
	.size	.L.str.252, 228

	.type	.L.str.253,@object              # @.str.253
.L.str.253:
	.asciz	"c5852db2-7acb-cba3-7f81-e7ef3cd1d3b8CF>>LOOPID:1748,location:BODY,ID:b2a,__DECIMAL_FIELD__:%d,CHECKSUM:9654"
	.size	.L.str.253, 108

	.type	.L.str.254,@object              # @.str.254
.L.str.254:
	.asciz	"c5852db2-7acb-cba3-7f81-e7ef3cd1d3b8CF>>LOOPID:1748,location:UNDEFINED,ID:b2b,DUMMY:T,CHECKSUM:5F92"
	.size	.L.str.254, 100

	.type	.L.str.255,@object              # @.str.255
.L.str.255:
	.asciz	"c5852db2-7acb-cba3-7f81-e7ef3cd1d3b8CF>>LOOPID:1748,location:BEFORE_GOTO_FURTHER_AFTER,ID:b2c,CHECKSUM:8E10"
	.size	.L.str.255, 108

	.type	.L.str.256,@object              # @.str.256
.L.str.256:
	.asciz	"c5852db2-7acb-cba3-7f81-e7ef3cd1d3b8CF>>LOOPID:1748,location:UNDEFINED,ID:b2d,DUMMY:T,CHECKSUM:FFB9"
	.size	.L.str.256, 100

	.type	.L.str.257,@object              # @.str.257
.L.str.257:
	.asciz	"c5852db2-7acb-cba3-7f81-e7ef3cd1d3b8CF>>loopcom:FOR,IGE:T,ICC:T,LOOPID:1746,EBM:T,PLID:1748,EBR:T,NESTLEV:2,UNR:NU,finitude:PFL,EEX:T,location:BEFORE,ID:b2e,EGA:T,CHECKSUM:C6EA"
	.size	.L.str.257, 177

	.type	.L.str.258,@object              # @.str.258
.L.str.258:
	.asciz	"c5852db2-7acb-cba3-7f81-e7ef3cd1d3b8CF>>LOOPID:1746,location:BODY,ID:b2f,CHECKSUM:CA84"
	.size	.L.str.258, 87

	.type	.L.str.259,@object              # @.str.259
.L.str.259:
	.asciz	"c5852db2-7acb-cba3-7f81-e7ef3cd1d3b8CF>>LOOPID:1746,location:UNDEFINED,ID:b30,DUMMY:T,CHECKSUM:38A1"
	.size	.L.str.259, 100

	.type	.L.str.260,@object              # @.str.260
.L.str.260:
	.asciz	"c5852db2-7acb-cba3-7f81-e7ef3cd1d3b8CF>>LOOPID:1746,location:BEFORE_GOTO_BREAK_MULTIPLE,ID:b31,CHECKSUM:795E"
	.size	.L.str.260, 109

	.type	.L.str.261,@object              # @.str.261
.L.str.261:
	.asciz	"c5852db2-7acb-cba3-7f81-e7ef3cd1d3b8CF>>LOOPID:1746,location:UNDEFINED,ID:b32,DUMMY:T,CHECKSUM:58B8"
	.size	.L.str.261, 100

	.type	.L.str.262,@object              # @.str.262
.L.str.262:
	.asciz	"c5852db2-7acb-cba3-7f81-e7ef3cd1d3b8CF>>LOOPID:1746,location:AFTER,ID:b33,CHECKSUM:238F"
	.size	.L.str.262, 88

	.type	.L.str.263,@object              # @.str.263
.L.str.263:
	.asciz	"c5852db2-7acb-cba3-7f81-e7ef3cd1d3b8CF>>LOOPID:1746,location:UNDEFINED,ID:b34,DUMMY:T,CHECKSUM:F893"
	.size	.L.str.263, 100

	.type	.L.str.264,@object              # @.str.264
.L.str.264:
	.asciz	"c5852db2-7acb-cba3-7f81-e7ef3cd1d3b8CF>>EGF:T,loopcom:WHILE,ICC:T,LOOPID:1747,EBM:T,PLID:1748,EBR:T,NESTLEV:2,UNR:NU,finitude:PFL,EEX:T,location:BEFORE,ID:b35,EGA:T,CHECKSUM:E282"
	.size	.L.str.264, 179

	.type	.L.str.265,@object              # @.str.265
.L.str.265:
	.asciz	"c5852db2-7acb-cba3-7f81-e7ef3cd1d3b8CF>>LOOPID:1747,location:BODY,ID:b36,CHECKSUM:AA55"
	.size	.L.str.265, 87

	.type	.L.str.266,@object              # @.str.266
.L.str.266:
	.asciz	"c5852db2-7acb-cba3-7f81-e7ef3cd1d3b8CF>>LOOPID:1747,location:UNDEFINED,ID:b37,DUMMY:T,CHECKSUM:C8AB"
	.size	.L.str.266, 100

	.type	.L.str.267,@object              # @.str.267
.L.str.267:
	.asciz	"c5852db2-7acb-cba3-7f81-e7ef3cd1d3b8CF>>LOOPID:1747,location:BEFORE_GOTO_FURTHER_AFTER,ID:b38,CHECKSUM:EE0B"
	.size	.L.str.267, 108

	.type	.L.str.268,@object              # @.str.268
.L.str.268:
	.asciz	"c5852db2-7acb-cba3-7f81-e7ef3cd1d3b8CF>>LOOPID:1747,location:BEFORE_GOTO_BREAK_MULTIPLE,ID:b39,CHECKSUM:2E9F"
	.size	.L.str.268, 109

	.type	.L.str.269,@object              # @.str.269
.L.str.269:
	.asciz	"c5852db2-7acb-cba3-7f81-e7ef3cd1d3b8CF>>LOOPID:1747,location:UNDEFINED,ID:b3a,DUMMY:T,CHECKSUM:6B7C"
	.size	.L.str.269, 100

	.type	.L.str.270,@object              # @.str.270
.L.str.270:
	.asciz	"c5852db2-7acb-cba3-7f81-e7ef3cd1d3b8CF>>LOOPID:1747,location:AFTER,ID:b3b,CHECKSUM:4383"
	.size	.L.str.270, 88

	.type	.L.str.271,@object              # @.str.271
.L.str.271:
	.asciz	"c5852db2-7acb-cba3-7f81-e7ef3cd1d3b8CF>>LVN:CF_LV1745,loopcom:FOR,LVT:INT,LOOPID:1745,INEXP:2608,UPEXP:+=14,PLID:1748,UNRIT:15,NESTLEV:2,TSEXP:!=2818.0,UNR:U-,finitude:PFL,location:BEFORE,ID:b3c,CHECKSUM:4090"
	.size	.L.str.271, 209

	.type	.L.str.272,@object              # @.str.272
.L.str.272:
	.asciz	"c5852db2-7acb-cba3-7f81-e7ef3cd1d3b8CF>>LOOPID:1745,location:BODY,ID:b3d,CHECKSUM:8E77"
	.size	.L.str.272, 87

	.type	.L.str.273,@object              # @.str.273
.L.str.273:
	.asciz	"c5852db2-7acb-cba3-7f81-e7ef3cd1d3b8CF>>LOOPID:1745,location:AFTER,ID:b3e,CHECKSUM:F85B"
	.size	.L.str.273, 88

	.type	.L.str.274,@object              # @.str.274
.L.str.274:
	.asciz	"c5852db2-7acb-cba3-7f81-e7ef3cd1d3b8CF>>LOOPID:1745,location:UNDEFINED,ID:b3f,DUMMY:T,CHECKSUM:9B01"
	.size	.L.str.274, 100

	.type	.L.str.275,@object              # @.str.275
.L.str.275:
	.asciz	"c5852db2-7acb-cba3-7f81-e7ef3cd1d3b8CF>>LOOPID:1748,location:UNDEFINED,ID:b40,DUMMY:T,CHECKSUM:2397"
	.size	.L.str.275, 100

	.type	.L.str.276,@object              # @.str.276
.L.str.276:
	.asciz	"c5852db2-7acb-cba3-7f81-e7ef3cd1d3b8CF>>LOOPID:1748,location:AFTER,ID:b41,CHECKSUM:FEC0"
	.size	.L.str.276, 88

	.type	.L.str.277,@object              # @.str.277
.L.str.277:
	.asciz	"c5852db2-7acb-cba3-7f81-e7ef3cd1d3b8CF>>LOOPID:1748,location:UNDEFINED,ID:b42,DUMMY:T,CHECKSUM:438E"
	.size	.L.str.277, 100

	.type	.L.str.278,@object              # @.str.278
.L.str.278:
	.asciz	"c5852db2-7acb-cba3-7f81-e7ef3cd1d3b8CF>>LOOPID:1744,location:AFTER,ID:b43,CHECKSUM:6A14"
	.size	.L.str.278, 88

	.type	.L.str.279,@object              # @.str.279
.L.str.279:
	.asciz	"c5852db2-7acb-cba3-7f81-e7ef3cd1d3b8CF>>LOOPID:1744,location:UNDEFINED,ID:b44,DUMMY:T,CHECKSUM:E279"
	.size	.L.str.279, 100

	.type	.L.str.280,@object              # @.str.280
.L.str.280:
	.asciz	"c5852db2-7acb-cba3-7f81-e7ef3cd1d3b8CF>>ID:b45,CHECKSUM:654B"
	.size	.L.str.280, 61

	.type	.L.str.281,@object              # @.str.281
.L.str.281:
	.asciz	"c5852db2-7acb-cba3-7f81-e7ef3cd1d3b8CF>>ID:b46,CHECKSUM:640B"
	.size	.L.str.281, 61

	.type	.L.str.282,@object              # @.str.282
.L.str.282:
	.asciz	"c5852db2-7acb-cba3-7f81-e7ef3cd1d3b8CF>>ID:b47,CHECKSUM:A4CA"
	.size	.L.str.282, 61

	.type	.L.str.283,@object              # @.str.283
.L.str.283:
	.asciz	"c5852db2-7acb-cba3-7f81-e7ef3cd1d3b8CF>>ID:b48,CHECKSUM:A08A"
	.size	.L.str.283, 61

	.type	.L.str.284,@object              # @.str.284
.L.str.284:
	.asciz	"c5852db2-7acb-cba3-7f81-e7ef3cd1d3b8CF>>ID:b49,CHECKSUM:604B"
	.size	.L.str.284, 61

	.type	.L.str.285,@object              # @.str.285
.L.str.285:
	.asciz	"c5852db2-7acb-cba3-7f81-e7ef3cd1d3b8CF>>ID:b4a,CHECKSUM:9A4A"
	.size	.L.str.285, 61

	.type	.L.str.286,@object              # @.str.286
.L.str.286:
	.asciz	"c5852db2-7acb-cba3-7f81-e7ef3cd1d3b8CF>>ID:b4b,CHECKSUM:9B0A"
	.size	.L.str.286, 61

	.type	.L.str.287,@object              # @.str.287
.L.str.287:
	.asciz	"c5852db2-7acb-cba3-7f81-e7ef3cd1d3b8CF>>ID:b4c,CHECKSUM:5BCB"
	.size	.L.str.287, 61

	.type	.L.str.288,@object              # @.str.288
.L.str.288:
	.asciz	"c5852db2-7acb-cba3-7f81-e7ef3cd1d3b8CF>>ID:b4d,CHECKSUM:998A"
	.size	.L.str.288, 61

	.type	.L.str.289,@object              # @.str.289
.L.str.289:
	.asciz	"c5852db2-7acb-cba3-7f81-e7ef3cd1d3b8CF>>ID:b4e,CHECKSUM:594B"
	.size	.L.str.289, 61

	.type	.L.str.290,@object              # @.str.290
.L.str.290:
	.asciz	"c5852db2-7acb-cba3-7f81-e7ef3cd1d3b8CF>>ID:b4f,CHECKSUM:580B"
	.size	.L.str.290, 61

	.type	.L.str.291,@object              # @.str.291
.L.str.291:
	.asciz	"c5852db2-7acb-cba3-7f81-e7ef3cd1d3b8CF>>ID:b50,CHECKSUM:F68A"
	.size	.L.str.291, 61

	.type	.L.str.292,@object              # @.str.292
.L.str.292:
	.asciz	"c5852db2-7acb-cba3-7f81-e7ef3cd1d3b8CF>>ID:b51,CHECKSUM:364B"
	.size	.L.str.292, 61

	.type	.L.str.293,@object              # @.str.293
.L.str.293:
	.asciz	"c5852db2-7acb-cba3-7f81-e7ef3cd1d3b8CF>>ID:b52,CHECKSUM:370B"
	.size	.L.str.293, 61

	.type	.L.str.294,@object              # @.str.294
.L.str.294:
	.asciz	"c5852db2-7acb-cba3-7f81-e7ef3cd1d3b8CF>>ID:b53,CHECKSUM:F7CA"
	.size	.L.str.294, 61

	.type	.L.str.295,@object              # @.str.295
.L.str.295:
	.asciz	"c5852db2-7acb-cba3-7f81-e7ef3cd1d3b8CF>>ID:b54,CHECKSUM:358B"
	.size	.L.str.295, 61

	.type	.L.str.296,@object              # @.str.296
.L.str.296:
	.asciz	"c5852db2-7acb-cba3-7f81-e7ef3cd1d3b8CF>>ID:b55,CHECKSUM:F54A"
	.size	.L.str.296, 61

	.type	.L.str.297,@object              # @.str.297
.L.str.297:
	.asciz	"c5852db2-7acb-cba3-7f81-e7ef3cd1d3b8CF>>ID:b56,CHECKSUM:F40A"
	.size	.L.str.297, 61

	.type	.L.str.298,@object              # @.str.298
.L.str.298:
	.asciz	"c5852db2-7acb-cba3-7f81-e7ef3cd1d3b8CF>>ID:b57,CHECKSUM:34CB"
	.size	.L.str.298, 61

	.type	.L.str.299,@object              # @.str.299
.L.str.299:
	.asciz	"c5852db2-7acb-cba3-7f81-e7ef3cd1d3b8CF>>ID:b58,CHECKSUM:308B"
	.size	.L.str.299, 61

	.type	.L.str.300,@object              # @.str.300
.L.str.300:
	.asciz	"c5852db2-7acb-cba3-7f81-e7ef3cd1d3b8CF>>ID:b59,CHECKSUM:F04A"
	.size	.L.str.300, 61

	.type	.L.str.301,@object              # @.str.301
.L.str.301:
	.asciz	"c5852db2-7acb-cba3-7f81-e7ef3cd1d3b8CF>>ID:b5a,CHECKSUM:0A4B"
	.size	.L.str.301, 61

	.type	.L.str.302,@object              # @.str.302
.L.str.302:
	.asciz	"c5852db2-7acb-cba3-7f81-e7ef3cd1d3b8CF>>ID:b5b,CHECKSUM:0B0B"
	.size	.L.str.302, 61

	.type	.L.str.303,@object              # @.str.303
.L.str.303:
	.asciz	"c5852db2-7acb-cba3-7f81-e7ef3cd1d3b8CF>>ID:b5c,CHECKSUM:CBCA"
	.size	.L.str.303, 61

	.type	.L.str.304,@object              # @.str.304
.L.str.304:
	.asciz	"c5852db2-7acb-cba3-7f81-e7ef3cd1d3b8CF>>ID:b5d,CHECKSUM:098B"
	.size	.L.str.304, 61

	.type	.L.str.305,@object              # @.str.305
.L.str.305:
	.asciz	"c5852db2-7acb-cba3-7f81-e7ef3cd1d3b8CF>>ID:b5e,CHECKSUM:C94A"
	.size	.L.str.305, 61

	.type	.L.str.306,@object              # @.str.306
.L.str.306:
	.asciz	"c5852db2-7acb-cba3-7f81-e7ef3cd1d3b8CF>>ID:b5f,CHECKSUM:C80A"
	.size	.L.str.306, 61

	.type	.L.str.307,@object              # @.str.307
.L.str.307:
	.asciz	"c5852db2-7acb-cba3-7f81-e7ef3cd1d3b8CF>>ID:b60,CHECKSUM:068A"
	.size	.L.str.307, 61

	.type	.L.str.308,@object              # @.str.308
.L.str.308:
	.asciz	"c5852db2-7acb-cba3-7f81-e7ef3cd1d3b8CF>>ID:b61,CHECKSUM:C64B"
	.size	.L.str.308, 61

	.type	.L.str.309,@object              # @.str.309
.L.str.309:
	.asciz	"c5852db2-7acb-cba3-7f81-e7ef3cd1d3b8CF>>LOOPID:1753,PLID:-1,EBR:T,EGF:T,loopcom:WHILE,NESTLEV:0,UNR:NU,finitude:PFL,EEX:T,location:BEFORE,ID:b62,CHECKSUM:8881"
	.size	.L.str.309, 159

	.type	.L.str.310,@object              # @.str.310
.L.str.310:
	.asciz	"c5852db2-7acb-cba3-7f81-e7ef3cd1d3b8CF>>LOOPID:1753,location:BODY,ID:b63,CHECKSUM:961E"
	.size	.L.str.310, 87

	.type	.L.str.311,@object              # @.str.311
.L.str.311:
	.asciz	"c5852db2-7acb-cba3-7f81-e7ef3cd1d3b8CF>>LOOPID:1753,location:UNDEFINED,ID:b64,DUMMY:T,CHECKSUM:35DB"
	.size	.L.str.311, 100

	.type	.L.str.312,@object              # @.str.312
.L.str.312:
	.asciz	"c5852db2-7acb-cba3-7f81-e7ef3cd1d3b8CF>>LOOPID:1753,location:BEFORE_GOTO_FURTHER_AFTER,ID:b65,CHECKSUM:AD02"
	.size	.L.str.312, 108

	.type	.L.str.313,@object              # @.str.313
.L.str.313:
	.asciz	"c5852db2-7acb-cba3-7f81-e7ef3cd1d3b8CF>>LOOPID:1753,location:UNDEFINED,ID:b66,DUMMY:T,CHECKSUM:55C2"
	.size	.L.str.313, 100

	.type	.L.str.314,@object              # @.str.314
.L.str.314:
	.asciz	"c5852db2-7acb-cba3-7f81-e7ef3cd1d3b8CF>>LOOPID:1754,PLID:1753,EBR:T,EGF:T,loopcom:FOR,NESTLEV:1,ICC:T,UNR:NU,finitude:PFL,location:BEFORE,ID:b67,EGA:T,CHECKSUM:5BC6"
	.size	.L.str.314, 165

	.type	.L.str.315,@object              # @.str.315
.L.str.315:
	.asciz	"c5852db2-7acb-cba3-7f81-e7ef3cd1d3b8CF>>LOOPID:1754,location:BODY,ID:b68,CHECKSUM:B769"
	.size	.L.str.315, 87

	.type	.L.str.316,@object              # @.str.316
.L.str.316:
	.asciz	"c5852db2-7acb-cba3-7f81-e7ef3cd1d3b8CF>>LOOPID:1754,location:BEFORE_GOTO_FURTHER_AFTER,ID:b69,CHECKSUM:2D4F"
	.size	.L.str.316, 108

	.type	.L.str.317,@object              # @.str.317
.L.str.317:
	.asciz	"c5852db2-7acb-cba3-7f81-e7ef3cd1d3b8CF>>LOOPID:1754,location:UNDEFINED,ID:b6a,DUMMY:T,CHECKSUM:A6DA"
	.size	.L.str.317, 100

	.type	.L.str.318,@object              # @.str.318
.L.str.318:
	.asciz	"c5852db2-7acb-cba3-7f81-e7ef3cd1d3b8CF>>LOOPID:1755,PLID:1754,EBR:T,loopcom:DOWHILE,NESTLEV:2,ICC:T,UNR:NU,finitude:PFL,location:BEFORE,ID:b6b,EGA:T,CHECKSUM:F442"
	.size	.L.str.318, 163

	.type	.L.str.319,@object              # @.str.319
.L.str.319:
	.asciz	"c5852db2-7acb-cba3-7f81-e7ef3cd1d3b8CF>>LOOPID:1755,location:BODY,ID:b6c,CHECKSUM:80F8"
	.size	.L.str.319, 87

	.type	.L.str.320,@object              # @.str.320
.L.str.320:
	.asciz	"c5852db2-7acb-cba3-7f81-e7ef3cd1d3b8CF>>LOOPID:1755,location:UNDEFINED,ID:b6d,DUMMY:T,CHECKSUM:36C9"
	.size	.L.str.320, 100

	.type	.L.str.321,@object              # @.str.321
.L.str.321:
	.asciz	"c5852db2-7acb-cba3-7f81-e7ef3cd1d3b8CF>>LOOPID:1755,location:UNDEFINED,ID:b6e,DUMMY:T,CHECKSUM:A6C4"
	.size	.L.str.321, 100

	.type	.L.str.322,@object              # @.str.322
.L.str.322:
	.asciz	"c5852db2-7acb-cba3-7f81-e7ef3cd1d3b8CF>>LVN:CF_LV1756,EGF:T,loopcom:WHILE,IGE:T,LVT:INT,LOOPID:1756,INEXP:7,UPEXP:+=getchar(),PLID:1755,NESTLEV:3,TSEXP:<=4489,UNR:NU,finitude:PFL,location:BEFORE,ID:b6f,EXR:T,EGA:T,CHECKSUM:985B"
	.size	.L.str.322, 228

	.type	.L.str.323,@object              # @.str.323
.L.str.323:
	.asciz	"c5852db2-7acb-cba3-7f81-e7ef3cd1d3b8CF>>LOOPID:1756,location:BODY,ID:b70,__DECIMAL_FIELD__:%d,CHECKSUM:D777"
	.size	.L.str.323, 108

	.type	.L.str.324,@object              # @.str.324
.L.str.324:
	.asciz	"c5852db2-7acb-cba3-7f81-e7ef3cd1d3b8CF>>LOOPID:1756,location:UNDEFINED,ID:b71,DUMMY:T,CHECKSUM:A02C"
	.size	.L.str.324, 100

	.type	.L.str.325,@object              # @.str.325
.L.str.325:
	.asciz	"c5852db2-7acb-cba3-7f81-e7ef3cd1d3b8CF>>LOOPID:1756,location:BEFORE_GOTO_FURTHER_AFTER,ID:b72,CHECKSUM:F98B"
	.size	.L.str.325, 108

	.type	.L.str.326,@object              # @.str.326
.L.str.326:
	.asciz	"c5852db2-7acb-cba3-7f81-e7ef3cd1d3b8CF>>LOOPID:1756,location:UNDEFINED,ID:b73,DUMMY:T,CHECKSUM:C035"
	.size	.L.str.326, 100

	.type	.L.str.327,@object              # @.str.327
.L.str.327:
	.asciz	"c5852db2-7acb-cba3-7f81-e7ef3cd1d3b8CF>>LOOPID:1756,location:AFTER,ID:b74,CHECKSUM:B491"
	.size	.L.str.327, 88

	.type	.L.str.328,@object              # @.str.328
.L.str.328:
	.asciz	"c5852db2-7acb-cba3-7f81-e7ef3cd1d3b8CF>>LOOPID:1756,location:UNDEFINED,ID:b75,DUMMY:T,CHECKSUM:601E"
	.size	.L.str.328, 100

	.type	.L.str.329,@object              # @.str.329
.L.str.329:
	.asciz	"c5852db2-7acb-cba3-7f81-e7ef3cd1d3b8CF>>LOOPID:1755,location:UNDEFINED,ID:b76,DUMMY:T,CHECKSUM:907D"
	.size	.L.str.329, 100

	.type	.L.str.330,@object              # @.str.330
.L.str.330:
	.asciz	"c5852db2-7acb-cba3-7f81-e7ef3cd1d3b8CF>>LOOPID:1755,location:AFTER,ID:b77,CHECKSUM:5085"
	.size	.L.str.330, 88

	.type	.L.str.331,@object              # @.str.331
.L.str.331:
	.asciz	"c5852db2-7acb-cba3-7f81-e7ef3cd1d3b8CF>>LOOPID:1754,location:AFTER,ID:b78,CHECKSUM:C808"
	.size	.L.str.331, 88

	.type	.L.str.332,@object              # @.str.332
.L.str.332:
	.asciz	"c5852db2-7acb-cba3-7f81-e7ef3cd1d3b8CF>>LOOPID:1754,location:UNDEFINED,ID:b79,DUMMY:T,CHECKSUM:A010"
	.size	.L.str.332, 100

	.type	.L.str.333,@object              # @.str.333
.L.str.333:
	.asciz	"c5852db2-7acb-cba3-7f81-e7ef3cd1d3b8CF>>LOOPID:1753,location:UNDEFINED,ID:b7a,DUMMY:T,CHECKSUM:A349"
	.size	.L.str.333, 100

	.type	.L.str.334,@object              # @.str.334
.L.str.334:
	.asciz	"c5852db2-7acb-cba3-7f81-e7ef3cd1d3b8CF>>LOOPID:1753,location:AFTER,ID:b7b,CHECKSUM:E5EE"
	.size	.L.str.334, 88

	.type	.L.str.335,@object              # @.str.335
.L.str.335:
	.asciz	"c5852db2-7acb-cba3-7f81-e7ef3cd1d3b8CF>>LOOPID:1753,location:UNDEFINED,ID:b7c,DUMMY:T,CHECKSUM:C350"
	.size	.L.str.335, 100

	.type	.L.str.336,@object              # @.str.336
.L.str.336:
	.asciz	"c5852db2-7acb-cba3-7f81-e7ef3cd1d3b8CF>>ID:b7d,CHECKSUM:698A"
	.size	.L.str.336, 61

	.type	.L.str.337,@object              # @.str.337
.L.str.337:
	.asciz	"c5852db2-7acb-cba3-7f81-e7ef3cd1d3b8CF>>ID:b7e,CHECKSUM:A94B"
	.size	.L.str.337, 61

	.type	.L.str.338,@object              # @.str.338
.L.str.338:
	.asciz	"c5852db2-7acb-cba3-7f81-e7ef3cd1d3b8CF>>ID:b7f,CHECKSUM:A80B"
	.size	.L.str.338, 61

	.type	.L.str.339,@object              # @.str.339
.L.str.339:
	.asciz	"c5852db2-7acb-cba3-7f81-e7ef3cd1d3b8CF>>ID:b80,CHECKSUM:668E"
	.size	.L.str.339, 61

	.type	.L.str.340,@object              # @.str.340
.L.str.340:
	.asciz	"c5852db2-7acb-cba3-7f81-e7ef3cd1d3b8CF>>ID:b81,CHECKSUM:A64F"
	.size	.L.str.340, 61

	.type	.L.str.341,@object              # @.str.341
.L.str.341:
	.asciz	"c5852db2-7acb-cba3-7f81-e7ef3cd1d3b8CF>>ID:b82,CHECKSUM:A70F"
	.size	.L.str.341, 61

	.type	.L.str.342,@object              # @.str.342
.L.str.342:
	.asciz	"c5852db2-7acb-cba3-7f81-e7ef3cd1d3b8CF>>ID:b83,CHECKSUM:67CE"
	.size	.L.str.342, 61

	.type	.L.str.343,@object              # @.str.343
.L.str.343:
	.asciz	"c5852db2-7acb-cba3-7f81-e7ef3cd1d3b8CF>>ID:b84,CHECKSUM:A58F"
	.size	.L.str.343, 61

	.type	.L.str.344,@object              # @.str.344
.L.str.344:
	.asciz	"c5852db2-7acb-cba3-7f81-e7ef3cd1d3b8CF>>ID:b85,CHECKSUM:654E"
	.size	.L.str.344, 61

	.type	.L.str.345,@object              # @.str.345
.L.str.345:
	.asciz	"c5852db2-7acb-cba3-7f81-e7ef3cd1d3b8CF>>ID:b86,CHECKSUM:640E"
	.size	.L.str.345, 61

	.type	.L.str.346,@object              # @.str.346
.L.str.346:
	.asciz	"c5852db2-7acb-cba3-7f81-e7ef3cd1d3b8CF>>ID:b87,CHECKSUM:A4CF"
	.size	.L.str.346, 61

	.type	.L.str.347,@object              # @.str.347
.L.str.347:
	.asciz	"c5852db2-7acb-cba3-7f81-e7ef3cd1d3b8CF>>ID:b88,CHECKSUM:A08F"
	.size	.L.str.347, 61

	.type	.L.str.348,@object              # @.str.348
.L.str.348:
	.asciz	"c5852db2-7acb-cba3-7f81-e7ef3cd1d3b8CF>>ID:b89,CHECKSUM:604E"
	.size	.L.str.348, 61

	.type	.L.str.349,@object              # @.str.349
.L.str.349:
	.asciz	"c5852db2-7acb-cba3-7f81-e7ef3cd1d3b8CF>>ID:b8a,CHECKSUM:9A4F"
	.size	.L.str.349, 61

	.type	.L.str.350,@object              # @.str.350
.L.str.350:
	.asciz	"c5852db2-7acb-cba3-7f81-e7ef3cd1d3b8CF>>ID:b8b,CHECKSUM:9B0F"
	.size	.L.str.350, 61

	.type	.L.str.351,@object              # @.str.351
.L.str.351:
	.asciz	"c5852db2-7acb-cba3-7f81-e7ef3cd1d3b8CF>>ID:b8c,CHECKSUM:5BCE"
	.size	.L.str.351, 61

	.type	.L.str.352,@object              # @.str.352
.L.str.352:
	.asciz	"c5852db2-7acb-cba3-7f81-e7ef3cd1d3b8CF>>ID:b8d,CHECKSUM:998F"
	.size	.L.str.352, 61

	.type	.L.str.353,@object              # @.str.353
.L.str.353:
	.asciz	"c5852db2-7acb-cba3-7f81-e7ef3cd1d3b8CF>>ID:b8e,CHECKSUM:594E"
	.size	.L.str.353, 61

	.type	.L.str.354,@object              # @.str.354
.L.str.354:
	.asciz	"c5852db2-7acb-cba3-7f81-e7ef3cd1d3b8CF>>ID:b8f,CHECKSUM:580E"
	.size	.L.str.354, 61

	.type	.L.str.355,@object              # @.str.355
.L.str.355:
	.asciz	"c5852db2-7acb-cba3-7f81-e7ef3cd1d3b8CF>>ID:baf,CHECKSUM:0834"
	.size	.L.str.355, 61

	.type	.L.str.356,@object              # @.str.356
.L.str.356:
	.asciz	"c5852db2-7acb-cba3-7f81-e7ef3cd1d3b8CF>>ID:bb0,CHECKSUM:C6B4"
	.size	.L.str.356, 61

	.type	.L.str.357,@object              # @.str.357
.L.str.357:
	.asciz	"c5852db2-7acb-cba3-7f81-e7ef3cd1d3b8CF>>ID:bb1,CHECKSUM:0675"
	.size	.L.str.357, 61

	.type	.L.str.358,@object              # @.str.358
.L.str.358:
	.asciz	"c5852db2-7acb-cba3-7f81-e7ef3cd1d3b8CF>>LOOPID:1777,PLID:-1,EGF:T,loopcom:WHILE,IGE:T,NESTLEV:0,UNR:NU,finitude:PFL,location:BEFORE,ID:bb2,EXR:T,EGA:T,CHECKSUM:D12D"
	.size	.L.str.358, 165

	.type	.L.str.359,@object              # @.str.359
.L.str.359:
	.asciz	"c5852db2-7acb-cba3-7f81-e7ef3cd1d3b8CF>>LOOPID:1777,location:BODY,ID:bb3,CHECKSUM:DCFC"
	.size	.L.str.359, 87

	.type	.L.str.360,@object              # @.str.360
.L.str.360:
	.asciz	"c5852db2-7acb-cba3-7f81-e7ef3cd1d3b8CF>>LOOPID:1777,location:UNDEFINED,ID:bb4,DUMMY:T,CHECKSUM:9AAD"
	.size	.L.str.360, 100

	.type	.L.str.361,@object              # @.str.361
.L.str.361:
	.asciz	"c5852db2-7acb-cba3-7f81-e7ef3cd1d3b8CF>>LOOPID:1777,location:BEFORE_GOTO_FURTHER_AFTER,ID:bb5,CHECKSUM:49B4"
	.size	.L.str.361, 108

	.type	.L.str.362,@object              # @.str.362
.L.str.362:
	.asciz	"c5852db2-7acb-cba3-7f81-e7ef3cd1d3b8CF>>LOOPID:1777,location:UNDEFINED,ID:bb6,DUMMY:T,CHECKSUM:FAB4"
	.size	.L.str.362, 100

	.type	.L.str.363,@object              # @.str.363
.L.str.363:
	.asciz	"c5852db2-7acb-cba3-7f81-e7ef3cd1d3b8CF>>LOOPID:1770,EBM:T,PLID:1777,loopcom:DOWHILE,NESTLEV:1,UNR:NU,finitude:PFL,location:BEFORE,ID:bb7,CHECKSUM:5951"
	.size	.L.str.363, 151

	.type	.L.str.364,@object              # @.str.364
.L.str.364:
	.asciz	"c5852db2-7acb-cba3-7f81-e7ef3cd1d3b8CF>>LOOPID:1770,location:BODY,ID:bb8,CHECKSUM:FD8B"
	.size	.L.str.364, 87

	.type	.L.str.365,@object              # @.str.365
.L.str.365:
	.asciz	"c5852db2-7acb-cba3-7f81-e7ef3cd1d3b8CF>>LOOPID:1770,location:UNDEFINED,ID:bb9,DUMMY:T,CHECKSUM:CA37"
	.size	.L.str.365, 100

	.type	.L.str.366,@object              # @.str.366
.L.str.366:
	.asciz	"c5852db2-7acb-cba3-7f81-e7ef3cd1d3b8CF>>LOOPID:1770,location:BEFORE_GOTO_BREAK_MULTIPLE,ID:bba,CHECKSUM:8055"
	.size	.L.str.366, 109

	.type	.L.str.367,@object              # @.str.367
.L.str.367:
	.asciz	"c5852db2-7acb-cba3-7f81-e7ef3cd1d3b8CF>>LOOPID:1770,location:UNDEFINED,ID:bbb,DUMMY:T,CHECKSUM:F9B8"
	.size	.L.str.367, 100

	.type	.L.str.368,@object              # @.str.368
.L.str.368:
	.asciz	"c5852db2-7acb-cba3-7f81-e7ef3cd1d3b8CF>>LOOPID:1770,location:AFTER,ID:bbc,CHECKSUM:FAFD"
	.size	.L.str.368, 88

	.type	.L.str.369,@object              # @.str.369
.L.str.369:
	.asciz	"c5852db2-7acb-cba3-7f81-e7ef3cd1d3b8CF>>LOOPID:1770,location:UNDEFINED,ID:bbd,DUMMY:T,CHECKSUM:5993"
	.size	.L.str.369, 100

	.type	.L.str.370,@object              # @.str.370
.L.str.370:
	.asciz	"c5852db2-7acb-cba3-7f81-e7ef3cd1d3b8CF>>LVN:CF_LV1772,loopcom:WHILE,LVT:INT,LOOPID:1772,INEXP:2539,UPEXP:+=14,PLID:1777,UNRIT:15,NESTLEV:1,TSEXP:<=2749.0,UNR:U-,finitude:PFL,location:BEFORE,ID:bbe,CHECKSUM:A5A1"
	.size	.L.str.370, 211

	.type	.L.str.371,@object              # @.str.371
.L.str.371:
	.asciz	"c5852db2-7acb-cba3-7f81-e7ef3cd1d3b8CF>>LOOPID:1772,location:BODY,ID:bbf,CHECKSUM:DCA9"
	.size	.L.str.371, 87

	.type	.L.str.372,@object              # @.str.372
.L.str.372:
	.asciz	"c5852db2-7acb-cba3-7f81-e7ef3cd1d3b8CF>>LOOPID:1772,location:AFTER,ID:bc0,CHECKSUM:2E25"
	.size	.L.str.372, 88

	.type	.L.str.373,@object              # @.str.373
.L.str.373:
	.asciz	"c5852db2-7acb-cba3-7f81-e7ef3cd1d3b8CF>>LOOPID:1772,location:UNDEFINED,ID:bc1,DUMMY:T,CHECKSUM:0F5A"
	.size	.L.str.373, 100

	.type	.L.str.374,@object              # @.str.374
.L.str.374:
	.asciz	"c5852db2-7acb-cba3-7f81-e7ef3cd1d3b8CF>>LOOPID:1772,location:UNDEFINED,ID:bc2,DUMMY:T,CHECKSUM:FF4E"
	.size	.L.str.374, 100

	.type	.L.str.375,@object              # @.str.375
.L.str.375:
	.asciz	"c5852db2-7acb-cba3-7f81-e7ef3cd1d3b8CF>>LOOPID:1772,location:UNDEFINED,ID:bc3,DUMMY:T,CHECKSUM:6F43"
	.size	.L.str.375, 100

	.type	.L.str.376,@object              # @.str.376
.L.str.376:
	.asciz	"c5852db2-7acb-cba3-7f81-e7ef3cd1d3b8CF>>LOOPID:1772,location:UNDEFINED,ID:bc4,DUMMY:T,CHECKSUM:5F65"
	.size	.L.str.376, 100

	.type	.L.str.377,@object              # @.str.377
.L.str.377:
	.asciz	"c5852db2-7acb-cba3-7f81-e7ef3cd1d3b8CF>>LOOPID:1772,location:UNDEFINED,ID:bc5,DUMMY:T,CHECKSUM:CF68"
	.size	.L.str.377, 100

	.type	.L.str.378,@object              # @.str.378
.L.str.378:
	.asciz	"c5852db2-7acb-cba3-7f81-e7ef3cd1d3b8CF>>LOOPID:1772,location:UNDEFINED,ID:bc6,DUMMY:T,CHECKSUM:3F7C"
	.size	.L.str.378, 100

	.type	.L.str.379,@object              # @.str.379
.L.str.379:
	.asciz	"c5852db2-7acb-cba3-7f81-e7ef3cd1d3b8CF>>LOOPID:1772,location:UNDEFINED,ID:bc7,DUMMY:T,CHECKSUM:AF71"
	.size	.L.str.379, 100

	.type	.L.str.380,@object              # @.str.380
.L.str.380:
	.asciz	"c5852db2-7acb-cba3-7f81-e7ef3cd1d3b8CF>>LOOPID:1772,location:UNDEFINED,ID:bc8,DUMMY:T,CHECKSUM:5F30"
	.size	.L.str.380, 100

	.type	.L.str.381,@object              # @.str.381
.L.str.381:
	.asciz	"c5852db2-7acb-cba3-7f81-e7ef3cd1d3b8CF>>LOOPID:1772,location:UNDEFINED,ID:bc9,DUMMY:T,CHECKSUM:CF3D"
	.size	.L.str.381, 100

	.type	.L.str.382,@object              # @.str.382
.L.str.382:
	.asciz	"c5852db2-7acb-cba3-7f81-e7ef3cd1d3b8CF>>LOOPID:1772,location:UNDEFINED,ID:bca,DUMMY:T,CHECKSUM:0CA6"
	.size	.L.str.382, 100

	.type	.L.str.383,@object              # @.str.383
.L.str.383:
	.asciz	"c5852db2-7acb-cba3-7f81-e7ef3cd1d3b8CF>>LOOPID:1772,location:UNDEFINED,ID:bcb,DUMMY:T,CHECKSUM:FCB2"
	.size	.L.str.383, 100

	.type	.L.str.384,@object              # @.str.384
.L.str.384:
	.asciz	"c5852db2-7acb-cba3-7f81-e7ef3cd1d3b8CF>>LOOPID:1772,location:UNDEFINED,ID:bcc,DUMMY:T,CHECKSUM:6CBF"
	.size	.L.str.384, 100

	.type	.L.str.385,@object              # @.str.385
.L.str.385:
	.asciz	"c5852db2-7acb-cba3-7f81-e7ef3cd1d3b8CF>>LOOPID:1772,location:UNDEFINED,ID:bcd,DUMMY:T,CHECKSUM:5C99"
	.size	.L.str.385, 100

	.type	.L.str.386,@object              # @.str.386
.L.str.386:
	.asciz	"c5852db2-7acb-cba3-7f81-e7ef3cd1d3b8CF>>LVN:CF_LV1773,loopcom:DOWHILE,LVT:INT,LOOPID:1773,INEXP:3405,UPEXP:-=getchar(),EBM:T,PLID:1777,EBR:T,NESTLEV:1,TSEXP:>4,UNR:NU,finitude:PFL,EEX:T,location:BEFORE,ID:bce,CHECKSUM:06B1"
	.size	.L.str.386, 223

	.type	.L.str.387,@object              # @.str.387
.L.str.387:
	.asciz	"c5852db2-7acb-cba3-7f81-e7ef3cd1d3b8CF>>LOOPID:1773,location:BODY,ID:bcf,__DECIMAL_FIELD__:%d,CHECKSUM:6D45"
	.size	.L.str.387, 108

	.type	.L.str.388,@object              # @.str.388
.L.str.388:
	.asciz	"c5852db2-7acb-cba3-7f81-e7ef3cd1d3b8CF>>LOOPID:1773,location:UNDEFINED,ID:bd0,DUMMY:T,CHECKSUM:85CA"
	.size	.L.str.388, 100

	.type	.L.str.389,@object              # @.str.389
.L.str.389:
	.asciz	"c5852db2-7acb-cba3-7f81-e7ef3cd1d3b8CF>>LOOPID:1773,location:BEFORE_GOTO_BREAK_MULTIPLE,ID:bd1,CHECKSUM:EE15"
	.size	.L.str.389, 109

	.type	.L.str.390,@object              # @.str.390
.L.str.390:
	.asciz	"c5852db2-7acb-cba3-7f81-e7ef3cd1d3b8CF>>LOOPID:1773,location:UNDEFINED,ID:bd2,DUMMY:T,CHECKSUM:E5D3"
	.size	.L.str.390, 100

	.type	.L.str.391,@object              # @.str.391
.L.str.391:
	.asciz	"c5852db2-7acb-cba3-7f81-e7ef3cd1d3b8CF>>LOOPID:1773,location:AFTER,ID:bd3,CHECKSUM:83AA"
	.size	.L.str.391, 88

	.type	.L.str.392,@object              # @.str.392
.L.str.392:
	.asciz	"c5852db2-7acb-cba3-7f81-e7ef3cd1d3b8CF>>LOOPID:1773,location:UNDEFINED,ID:bd4,DUMMY:T,CHECKSUM:45F8"
	.size	.L.str.392, 100

	.type	.L.str.393,@object              # @.str.393
.L.str.393:
	.asciz	"c5852db2-7acb-cba3-7f81-e7ef3cd1d3b8CF>>LVN:CF_LV1774,loopcom:WHILE,LVT:INT,LOOPID:1774,INEXP:2707,UPEXP:--,PLID:1777,UNRIT:22,NESTLEV:1,TSEXP:!=2685.0,UNR:U+,finitude:PFL,location:BEFORE,ID:bd5,CHECKSUM:BAC1"
	.size	.L.str.393, 209

	.type	.L.str.394,@object              # @.str.394
.L.str.394:
	.asciz	"c5852db2-7acb-cba3-7f81-e7ef3cd1d3b8CF>>LOOPID:1774,location:BODY,ID:bd6,__DECIMAL_FIELD__:%d,CHECKSUM:C73B"
	.size	.L.str.394, 108

	.type	.L.str.395,@object              # @.str.395
.L.str.395:
	.asciz	"c5852db2-7acb-cba3-7f81-e7ef3cd1d3b8CF>>LOOPID:1774,location:AFTER,ID:bd7,CHECKSUM:56CD"
	.size	.L.str.395, 88

	.type	.L.str.396,@object              # @.str.396
.L.str.396:
	.asciz	"c5852db2-7acb-cba3-7f81-e7ef3cd1d3b8CF>>LOOPID:1774,location:UNDEFINED,ID:bd8,DUMMY:T,CHECKSUM:856F"
	.size	.L.str.396, 100

	.type	.L.str.397,@object              # @.str.397
.L.str.397:
	.asciz	"c5852db2-7acb-cba3-7f81-e7ef3cd1d3b8CF>>LVN:CF_LV1775,loopcom:FOR,LVT:FLOAT,LOOPID:1775,INEXP:2294.35,UPEXP:--,PLID:1777,UNRIT:16,NESTLEV:1,TSEXP:>2278.0,UNR:U+,finitude:PFL,location:BEFORE,ID:bd9,CHECKSUM:9AA9"
	.size	.L.str.397, 211

	.type	.L.str.398,@object              # @.str.398
.L.str.398:
	.asciz	"c5852db2-7acb-cba3-7f81-e7ef3cd1d3b8CF>>LOOPID:1775,location:BODY,__FLOAT_FIELD__:%f,ID:bda,CHECKSUM:30EF"
	.size	.L.str.398, 106

	.type	.L.str.399,@object              # @.str.399
.L.str.399:
	.asciz	"c5852db2-7acb-cba3-7f81-e7ef3cd1d3b8CF>>LOOPID:1775,location:AFTER,ID:bdb,CHECKSUM:F5C0"
	.size	.L.str.399, 88

	.type	.L.str.400,@object              # @.str.400
.L.str.400:
	.asciz	"c5852db2-7acb-cba3-7f81-e7ef3cd1d3b8CF>>LOOPID:1775,location:UNDEFINED,ID:bdc,DUMMY:T,CHECKSUM:76CC"
	.size	.L.str.400, 100

	.type	.L.str.401,@object              # @.str.401
.L.str.401:
	.asciz	"c5852db2-7acb-cba3-7f81-e7ef3cd1d3b8CF>>LVN:CF_LV1776,loopcom:WHILE,LVT:INT,LOOPID:1776,INEXP:9373,UPEXP:-=getchar(),EBM:T,PLID:1777,EBR:T,NESTLEV:1,TSEXP:>4,UNR:NU,finitude:PFL,EEX:T,location:BEFORE,ID:bdd,CHECKSUM:8A69"
	.size	.L.str.401, 221

	.type	.L.str.402,@object              # @.str.402
.L.str.402:
	.asciz	"c5852db2-7acb-cba3-7f81-e7ef3cd1d3b8CF>>LOOPID:1776,location:BODY,ID:bde,__DECIMAL_FIELD__:%d,CHECKSUM:6899"
	.size	.L.str.402, 108

	.type	.L.str.403,@object              # @.str.403
.L.str.403:
	.asciz	"c5852db2-7acb-cba3-7f81-e7ef3cd1d3b8CF>>LOOPID:1776,location:UNDEFINED,ID:bdf,DUMMY:T,CHECKSUM:2684"
	.size	.L.str.403, 100

	.type	.L.str.404,@object              # @.str.404
.L.str.404:
	.asciz	"c5852db2-7acb-cba3-7f81-e7ef3cd1d3b8CF>>LOOPID:1776,location:BEFORE_GOTO_BREAK_MULTIPLE,ID:be0,CHECKSUM:E813"
	.size	.L.str.404, 109

	.type	.L.str.405,@object              # @.str.405
.L.str.405:
	.asciz	"c5852db2-7acb-cba3-7f81-e7ef3cd1d3b8CF>>LOOPID:1776,location:UNDEFINED,ID:be1,DUMMY:T,CHECKSUM:D00F"
	.size	.L.str.405, 100

	.type	.L.str.406,@object              # @.str.406
.L.str.406:
	.asciz	"c5852db2-7acb-cba3-7f81-e7ef3cd1d3b8CF>>LOOPID:1776,location:AFTER,ID:be2,CHECKSUM:BC95"
	.size	.L.str.406, 88

	.type	.L.str.407,@object              # @.str.407
.L.str.407:
	.asciz	"c5852db2-7acb-cba3-7f81-e7ef3cd1d3b8CF>>LVN:CF_LV1771,loopcom:FOR,LVT:INT,LOOPID:1771,INEXP:2403,UPEXP:-=6,PLID:1777,UNRIT:5,NESTLEV:1,TSEXP:>2373.0,UNR:U-,finitude:PFL,location:BEFORE,ID:be3,CHECKSUM:B442"
	.size	.L.str.407, 206

	.type	.L.str.408,@object              # @.str.408
.L.str.408:
	.asciz	"c5852db2-7acb-cba3-7f81-e7ef3cd1d3b8CF>>LOOPID:1771,location:BODY,ID:be4,CHECKSUM:0459"
	.size	.L.str.408, 87

	.type	.L.str.409,@object              # @.str.409
.L.str.409:
	.asciz	"c5852db2-7acb-cba3-7f81-e7ef3cd1d3b8CF>>LOOPID:1771,location:AFTER,ID:be5,CHECKSUM:68B2"
	.size	.L.str.409, 88

	.type	.L.str.410,@object              # @.str.410
.L.str.410:
	.asciz	"c5852db2-7acb-cba3-7f81-e7ef3cd1d3b8CF>>LOOPID:1771,location:UNDEFINED,ID:be6,DUMMY:T,CHECKSUM:20EB"
	.size	.L.str.410, 100

	.type	.L.str.411,@object              # @.str.411
.L.str.411:
	.asciz	"c5852db2-7acb-cba3-7f81-e7ef3cd1d3b8CF>>LOOPID:1777,location:UNDEFINED,ID:be7,DUMMY:T,CHECKSUM:B008"
	.size	.L.str.411, 100

	.type	.L.str.412,@object              # @.str.412
.L.str.412:
	.asciz	"c5852db2-7acb-cba3-7f81-e7ef3cd1d3b8CF>>LOOPID:1777,location:AFTER,ID:be8,CHECKSUM:27D8"
	.size	.L.str.412, 88

	.type	.L.str.413,@object              # @.str.413
.L.str.413:
	.asciz	"c5852db2-7acb-cba3-7f81-e7ef3cd1d3b8CF>>LOOPID:1777,location:UNDEFINED,ID:be9,DUMMY:T,CHECKSUM:D044"
	.size	.L.str.413, 100

	.type	.L.str.414,@object              # @.str.414
.L.str.414:
	.asciz	"c5852db2-7acb-cba3-7f81-e7ef3cd1d3b8CF>>ID:bea,CHECKSUM:0A77"
	.size	.L.str.414, 61

	.type	.L.str.415,@object              # @.str.415
.L.str.415:
	.asciz	"c5852db2-7acb-cba3-7f81-e7ef3cd1d3b8CF>>ID:beb,CHECKSUM:0B37"
	.size	.L.str.415, 61

	.type	.L.str.416,@object              # @.str.416
.L.str.416:
	.asciz	"c5852db2-7acb-cba3-7f81-e7ef3cd1d3b8CF>>ID:bec,CHECKSUM:CBF6"
	.size	.L.str.416, 61

	.type	.L.str.417,@object              # @.str.417
.L.str.417:
	.asciz	"c5852db2-7acb-cba3-7f81-e7ef3cd1d3b8CF>>ID:bed,CHECKSUM:09B7"
	.size	.L.str.417, 61

	.type	.L.str.418,@object              # @.str.418
.L.str.418:
	.asciz	"c5852db2-7acb-cba3-7f81-e7ef3cd1d3b8CF>>ID:bee,CHECKSUM:C976"
	.size	.L.str.418, 61

	.type	.L.str.419,@object              # @.str.419
.L.str.419:
	.asciz	"c5852db2-7acb-cba3-7f81-e7ef3cd1d3b8CF>>ID:bef,CHECKSUM:C836"
	.size	.L.str.419, 61

	.type	.L.str.420,@object              # @.str.420
.L.str.420:
	.asciz	"c5852db2-7acb-cba3-7f81-e7ef3cd1d3b8CF>>ID:bf0,CHECKSUM:06B6"
	.size	.L.str.420, 61

	.type	.L.str.421,@object              # @.str.421
.L.str.421:
	.asciz	"c5852db2-7acb-cba3-7f81-e7ef3cd1d3b8CF>>ID:bf1,CHECKSUM:C677"
	.size	.L.str.421, 61

	.type	.L.str.422,@object              # @.str.422
.L.str.422:
	.asciz	"c5852db2-7acb-cba3-7f81-e7ef3cd1d3b8CF>>ID:bf2,CHECKSUM:C737"
	.size	.L.str.422, 61

	.type	.L.str.423,@object              # @.str.423
.L.str.423:
	.asciz	"c5852db2-7acb-cba3-7f81-e7ef3cd1d3b8CF>>ID:bf3,CHECKSUM:07F6"
	.size	.L.str.423, 61

	.type	.L.str.424,@object              # @.str.424
.L.str.424:
	.asciz	"c5852db2-7acb-cba3-7f81-e7ef3cd1d3b8CF>>ID:bf4,CHECKSUM:C5B7"
	.size	.L.str.424, 61

	.type	.L.str.425,@object              # @.str.425
.L.str.425:
	.asciz	"c5852db2-7acb-cba3-7f81-e7ef3cd1d3b8CF>>ID:bf5,CHECKSUM:0576"
	.size	.L.str.425, 61

	.type	.L.str.426,@object              # @.str.426
.L.str.426:
	.asciz	"c5852db2-7acb-cba3-7f81-e7ef3cd1d3b8CF>>ID:bf6,CHECKSUM:0436"
	.size	.L.str.426, 61

	.type	.L.str.427,@object              # @.str.427
.L.str.427:
	.asciz	"c5852db2-7acb-cba3-7f81-e7ef3cd1d3b8CF>>ID:bf7,CHECKSUM:C4F7"
	.size	.L.str.427, 61

	.type	.L.str.428,@object              # @.str.428
.L.str.428:
	.asciz	"c5852db2-7acb-cba3-7f81-e7ef3cd1d3b8CF>>ID:bf8,CHECKSUM:C0B7"
	.size	.L.str.428, 61

	.type	.L.str.429,@object              # @.str.429
.L.str.429:
	.asciz	"c5852db2-7acb-cba3-7f81-e7ef3cd1d3b8CF>>ID:bf9,CHECKSUM:0076"
	.size	.L.str.429, 61

	.type	.L.str.430,@object              # @.str.430
.L.str.430:
	.asciz	"c5852db2-7acb-cba3-7f81-e7ef3cd1d3b8CF>>ID:bfa,CHECKSUM:FA77"
	.size	.L.str.430, 61

	.type	.L.str.431,@object              # @.str.431
.L.str.431:
	.asciz	"c5852db2-7acb-cba3-7f81-e7ef3cd1d3b8CF>>ID:bfb,CHECKSUM:FB37"
	.size	.L.str.431, 61

	.type	.L.str.432,@object              # @.str.432
.L.str.432:
	.asciz	"c5852db2-7acb-cba3-7f81-e7ef3cd1d3b8CF>>ID:bfc,CHECKSUM:3BF6"
	.size	.L.str.432, 61

	.type	.L.str.433,@object              # @.str.433
.L.str.433:
	.asciz	"c5852db2-7acb-cba3-7f81-e7ef3cd1d3b8CF>>ID:bfd,CHECKSUM:F9B7"
	.size	.L.str.433, 61

	.type	.L.str.434,@object              # @.str.434
.L.str.434:
	.asciz	"c5852db2-7acb-cba3-7f81-e7ef3cd1d3b8CF>>ID:bfe,CHECKSUM:3976"
	.size	.L.str.434, 61

	.type	.L.str.435,@object              # @.str.435
.L.str.435:
	.asciz	"c5852db2-7acb-cba3-7f81-e7ef3cd1d3b8CF>>ID:bff,CHECKSUM:3836"
	.size	.L.str.435, 61

	.type	.L.str.436,@object              # @.str.436
.L.str.436:
	.asciz	"c5852db2-7acb-cba3-7f81-e7ef3cd1d3b8CF>>ID:c00,CHECKSUM:66D8"
	.size	.L.str.436, 61

	.type	.L.str.437,@object              # @.str.437
.L.str.437:
	.asciz	"c5852db2-7acb-cba3-7f81-e7ef3cd1d3b8CF>>ID:c01,CHECKSUM:A619"
	.size	.L.str.437, 61

	.type	.L.str.438,@object              # @.str.438
.L.str.438:
	.asciz	"c5852db2-7acb-cba3-7f81-e7ef3cd1d3b8FF>>functionName:main,AUTOGENERATED:T,ID:cbe,CHECKSUM:F983"
	.size	.L.str.438, 95

	.ident	"Ubuntu clang version 14.0.0-1ubuntu1.1"
	.ident	"Ubuntu clang version 14.0.0-1ubuntu1.1"
	.section	".note.GNU-stack","",@progbits
