	.text
	.file	"llvm-link"
	.globl	functie_voor_datastructuren     # -- Begin function functie_voor_datastructuren
	.p2align	4, 0x90
	.type	functie_voor_datastructuren,@function
functie_voor_datastructuren:            # @functie_voor_datastructuren
	.cfi_startproc
# %bb.0:
	pushl	%esi
	.cfi_def_cfa_offset 8
	subl	$8, %esp
	.cfi_def_cfa_offset 16
	.cfi_offset %esi, -8
	movl	16(%esp), %esi
	movl	$.L.str, (%esp)
	calll	printf@PLT
	movl	$0, (%esi)
	movl	$0, 4(%esi)
	movl	$0, 8(%esi)
	movl	$.L.str.1, (%esp)
	calll	printf@PLT
	addl	$8, %esp
	.cfi_def_cfa_offset 8
	popl	%esi
	.cfi_def_cfa_offset 4
	retl
.Lfunc_end0:
	.size	functie_voor_datastructuren, .Lfunc_end0-functie_voor_datastructuren
	.cfi_endproc
                                        # -- End function
	.globl	FF_function_208                 # -- Begin function FF_function_208
	.p2align	4, 0x90
	.type	FF_function_208,@function
FF_function_208:                        # @FF_function_208
	.cfi_startproc
# %bb.0:
	pushl	%esi
	.cfi_def_cfa_offset 8
	subl	$8, %esp
	.cfi_def_cfa_offset 16
	.cfi_offset %esi, -8
	movl	16(%esp), %esi
	movl	$.L.str.2, (%esp)
	calll	printf@PLT
	movl	$.L.str.1.3, (%esp)
	calll	printf@PLT
	movl	$0, (%esi)
	movl	$1056964608, 4(%esi)            # imm = 0x3F000000
	movl	$0, 8(%esi)
	movl	%esi, %eax
	addl	$8, %esp
	.cfi_def_cfa_offset 8
	popl	%esi
	.cfi_def_cfa_offset 4
	retl	$4
.Lfunc_end1:
	.size	FF_function_208, .Lfunc_end1-FF_function_208
	.cfi_endproc
                                        # -- End function
	.globl	FF_function_209                 # -- Begin function FF_function_209
	.p2align	4, 0x90
	.type	FF_function_209,@function
FF_function_209:                        # @FF_function_209
	.cfi_startproc
# %bb.0:
	pushl	%esi
	.cfi_def_cfa_offset 8
	subl	$8, %esp
	.cfi_def_cfa_offset 16
	.cfi_offset %esi, -8
	movl	16(%esp), %esi
	movl	$.L.str.2.4, (%esp)
	calll	printf@PLT
	movl	$.L.str.3, (%esp)
	calll	printf@PLT
	movl	$0, (%esi)
	movl	$1056964608, 4(%esi)            # imm = 0x3F000000
	movl	$0, 8(%esi)
	movl	%esi, %eax
	addl	$8, %esp
	.cfi_def_cfa_offset 8
	popl	%esi
	.cfi_def_cfa_offset 4
	retl	$4
.Lfunc_end2:
	.size	FF_function_209, .Lfunc_end2-FF_function_209
	.cfi_endproc
                                        # -- End function
	.globl	FF_function_210                 # -- Begin function FF_function_210
	.p2align	4, 0x90
	.type	FF_function_210,@function
FF_function_210:                        # @FF_function_210
	.cfi_startproc
# %bb.0:
	pushl	%esi
	.cfi_def_cfa_offset 8
	subl	$8, %esp
	.cfi_def_cfa_offset 16
	.cfi_offset %esi, -8
	movl	16(%esp), %esi
	movl	$.L.str.4, (%esp)
	calll	printf@PLT
	movl	$.L.str.5, (%esp)
	calll	printf@PLT
	movl	$0, (%esi)
	movl	$1056964608, 4(%esi)            # imm = 0x3F000000
	movl	$0, 8(%esi)
	movl	%esi, %eax
	addl	$8, %esp
	.cfi_def_cfa_offset 8
	popl	%esi
	.cfi_def_cfa_offset 4
	retl	$4
.Lfunc_end3:
	.size	FF_function_210, .Lfunc_end3-FF_function_210
	.cfi_endproc
                                        # -- End function
	.globl	FF_function_211                 # -- Begin function FF_function_211
	.p2align	4, 0x90
	.type	FF_function_211,@function
FF_function_211:                        # @FF_function_211
	.cfi_startproc
# %bb.0:
	pushl	%esi
	.cfi_def_cfa_offset 8
	subl	$8, %esp
	.cfi_def_cfa_offset 16
	.cfi_offset %esi, -8
	movl	16(%esp), %esi
	movl	$.L.str.6, (%esp)
	calll	printf@PLT
	movl	$.L.str.7, (%esp)
	calll	printf@PLT
	movl	$0, (%esi)
	movl	$1056964608, 4(%esi)            # imm = 0x3F000000
	movl	$0, 8(%esi)
	movl	%esi, %eax
	addl	$8, %esp
	.cfi_def_cfa_offset 8
	popl	%esi
	.cfi_def_cfa_offset 4
	retl	$4
.Lfunc_end4:
	.size	FF_function_211, .Lfunc_end4-FF_function_211
	.cfi_endproc
                                        # -- End function
	.globl	FF_function_212                 # -- Begin function FF_function_212
	.p2align	4, 0x90
	.type	FF_function_212,@function
FF_function_212:                        # @FF_function_212
	.cfi_startproc
# %bb.0:
	pushl	%esi
	.cfi_def_cfa_offset 8
	subl	$8, %esp
	.cfi_def_cfa_offset 16
	.cfi_offset %esi, -8
	movl	16(%esp), %esi
	movl	$.L.str.8, (%esp)
	calll	printf@PLT
	movl	$.L.str.9, (%esp)
	calll	printf@PLT
	movl	$0, (%esi)
	movl	$1056964608, 4(%esi)            # imm = 0x3F000000
	movl	$0, 8(%esi)
	movl	%esi, %eax
	addl	$8, %esp
	.cfi_def_cfa_offset 8
	popl	%esi
	.cfi_def_cfa_offset 4
	retl	$4
.Lfunc_end5:
	.size	FF_function_212, .Lfunc_end5-FF_function_212
	.cfi_endproc
                                        # -- End function
	.globl	FF_function_213                 # -- Begin function FF_function_213
	.p2align	4, 0x90
	.type	FF_function_213,@function
FF_function_213:                        # @FF_function_213
	.cfi_startproc
# %bb.0:
	pushl	%esi
	.cfi_def_cfa_offset 8
	subl	$8, %esp
	.cfi_def_cfa_offset 16
	.cfi_offset %esi, -8
	movl	16(%esp), %esi
	movl	$.L.str.10, (%esp)
	calll	printf@PLT
	movl	$.L.str.11, (%esp)
	calll	printf@PLT
	movl	$0, (%esi)
	movl	$1056964608, 4(%esi)            # imm = 0x3F000000
	movl	$0, 8(%esi)
	movl	%esi, %eax
	addl	$8, %esp
	.cfi_def_cfa_offset 8
	popl	%esi
	.cfi_def_cfa_offset 4
	retl	$4
.Lfunc_end6:
	.size	FF_function_213, .Lfunc_end6-FF_function_213
	.cfi_endproc
                                        # -- End function
	.globl	FF_function_214                 # -- Begin function FF_function_214
	.p2align	4, 0x90
	.type	FF_function_214,@function
FF_function_214:                        # @FF_function_214
	.cfi_startproc
# %bb.0:
	pushl	%esi
	.cfi_def_cfa_offset 8
	subl	$8, %esp
	.cfi_def_cfa_offset 16
	.cfi_offset %esi, -8
	movl	16(%esp), %esi
	movl	$.L.str.12, (%esp)
	calll	printf@PLT
	movl	$.L.str.13, (%esp)
	calll	printf@PLT
	movl	$0, (%esi)
	movl	$1056964608, 4(%esi)            # imm = 0x3F000000
	movl	$0, 8(%esi)
	movl	%esi, %eax
	addl	$8, %esp
	.cfi_def_cfa_offset 8
	popl	%esi
	.cfi_def_cfa_offset 4
	retl	$4
.Lfunc_end7:
	.size	FF_function_214, .Lfunc_end7-FF_function_214
	.cfi_endproc
                                        # -- End function
	.globl	FF_function_215                 # -- Begin function FF_function_215
	.p2align	4, 0x90
	.type	FF_function_215,@function
FF_function_215:                        # @FF_function_215
	.cfi_startproc
# %bb.0:
	pushl	%esi
	.cfi_def_cfa_offset 8
	subl	$8, %esp
	.cfi_def_cfa_offset 16
	.cfi_offset %esi, -8
	movl	16(%esp), %esi
	movl	$.L.str.14, (%esp)
	calll	printf@PLT
	movl	$.L.str.15, (%esp)
	calll	printf@PLT
	movl	$0, (%esi)
	movl	$1056964608, 4(%esi)            # imm = 0x3F000000
	movl	$0, 8(%esi)
	movl	%esi, %eax
	addl	$8, %esp
	.cfi_def_cfa_offset 8
	popl	%esi
	.cfi_def_cfa_offset 4
	retl	$4
.Lfunc_end8:
	.size	FF_function_215, .Lfunc_end8-FF_function_215
	.cfi_endproc
                                        # -- End function
	.globl	FF_function_216                 # -- Begin function FF_function_216
	.p2align	4, 0x90
	.type	FF_function_216,@function
FF_function_216:                        # @FF_function_216
	.cfi_startproc
# %bb.0:
	pushl	%esi
	.cfi_def_cfa_offset 8
	subl	$8, %esp
	.cfi_def_cfa_offset 16
	.cfi_offset %esi, -8
	movl	16(%esp), %esi
	movl	$.L.str.16, (%esp)
	calll	printf@PLT
	movl	$.L.str.17, (%esp)
	calll	printf@PLT
	movl	$0, (%esi)
	movl	$1056964608, 4(%esi)            # imm = 0x3F000000
	movl	$0, 8(%esi)
	movl	%esi, %eax
	addl	$8, %esp
	.cfi_def_cfa_offset 8
	popl	%esi
	.cfi_def_cfa_offset 4
	retl	$4
.Lfunc_end9:
	.size	FF_function_216, .Lfunc_end9-FF_function_216
	.cfi_endproc
                                        # -- End function
	.globl	FF_function_217                 # -- Begin function FF_function_217
	.p2align	4, 0x90
	.type	FF_function_217,@function
FF_function_217:                        # @FF_function_217
	.cfi_startproc
# %bb.0:
	pushl	%esi
	.cfi_def_cfa_offset 8
	subl	$8, %esp
	.cfi_def_cfa_offset 16
	.cfi_offset %esi, -8
	movl	16(%esp), %esi
	movl	$.L.str.18, (%esp)
	calll	printf@PLT
	movl	$.L.str.19, (%esp)
	calll	printf@PLT
	movl	$0, (%esi)
	movl	$1056964608, 4(%esi)            # imm = 0x3F000000
	movl	$0, 8(%esi)
	movl	%esi, %eax
	addl	$8, %esp
	.cfi_def_cfa_offset 8
	popl	%esi
	.cfi_def_cfa_offset 4
	retl	$4
.Lfunc_end10:
	.size	FF_function_217, .Lfunc_end10-FF_function_217
	.cfi_endproc
                                        # -- End function
	.globl	FF_function_219                 # -- Begin function FF_function_219
	.p2align	4, 0x90
	.type	FF_function_219,@function
FF_function_219:                        # @FF_function_219
	.cfi_startproc
# %bb.0:
	pushl	%edi
	.cfi_def_cfa_offset 8
	pushl	%esi
	.cfi_def_cfa_offset 12
	subl	$52, %esp
	.cfi_def_cfa_offset 64
	.cfi_offset %esi, -12
	.cfi_offset %edi, -8
	movl	64(%esp), %esi
	movl	$.L.str.20, (%esp)
	calll	printf@PLT
	leal	92(%esp), %eax
	movl	%eax, 36(%esp)
	movl	88(%esp), %eax
	movl	%eax, 8(%esi)
	movl	80(%esp), %eax
	movl	84(%esp), %ecx
	movl	%ecx, 4(%esi)
	movl	%eax, (%esi)
	leal	40(%esp), %edi
	movl	%edi, (%esp)
	movl	$1, 16(%esp)
	calll	FF_function_219
	subl	$4, %esp
	movl	%edi, (%esp)
	movl	$3, 24(%esp)
	movl	$2, 20(%esp)
	movl	$1, 16(%esp)
	calll	FF_function_219
	subl	$4, %esp
	movl	$.L.str.21, (%esp)
	calll	printf@PLT
	movl	%esi, %eax
	addl	$52, %esp
	.cfi_def_cfa_offset 12
	popl	%esi
	.cfi_def_cfa_offset 8
	popl	%edi
	.cfi_def_cfa_offset 4
	retl	$4
.Lfunc_end11:
	.size	FF_function_219, .Lfunc_end11-FF_function_219
	.cfi_endproc
                                        # -- End function
	.globl	FF_function_221                 # -- Begin function FF_function_221
	.p2align	4, 0x90
	.type	FF_function_221,@function
FF_function_221:                        # @FF_function_221
	.cfi_startproc
# %bb.0:
	pushl	%edi
	.cfi_def_cfa_offset 8
	pushl	%esi
	.cfi_def_cfa_offset 12
	subl	$52, %esp
	.cfi_def_cfa_offset 64
	.cfi_offset %esi, -12
	.cfi_offset %edi, -8
	movl	64(%esp), %esi
	movl	$.L.str.22, (%esp)
	calll	printf@PLT
	leal	92(%esp), %eax
	movl	%eax, 36(%esp)
	movl	88(%esp), %eax
	movl	%eax, 8(%esi)
	movl	80(%esp), %eax
	movl	84(%esp), %ecx
	movl	%ecx, 4(%esi)
	movl	%eax, (%esi)
	leal	40(%esp), %edi
	movl	%edi, (%esp)
	movl	$1, 16(%esp)
	calll	FF_function_221
	subl	$4, %esp
	movl	%edi, (%esp)
	movl	$3, 24(%esp)
	movl	$2, 20(%esp)
	movl	$1, 16(%esp)
	calll	FF_function_221
	subl	$4, %esp
	movl	$.L.str.23, (%esp)
	calll	printf@PLT
	movl	%esi, %eax
	addl	$52, %esp
	.cfi_def_cfa_offset 12
	popl	%esi
	.cfi_def_cfa_offset 8
	popl	%edi
	.cfi_def_cfa_offset 4
	retl	$4
.Lfunc_end12:
	.size	FF_function_221, .Lfunc_end12-FF_function_221
	.cfi_endproc
                                        # -- End function
	.globl	FF_function_223                 # -- Begin function FF_function_223
	.p2align	4, 0x90
	.type	FF_function_223,@function
FF_function_223:                        # @FF_function_223
	.cfi_startproc
# %bb.0:
	pushl	%edi
	.cfi_def_cfa_offset 8
	pushl	%esi
	.cfi_def_cfa_offset 12
	subl	$52, %esp
	.cfi_def_cfa_offset 64
	.cfi_offset %esi, -12
	.cfi_offset %edi, -8
	movl	64(%esp), %esi
	movl	$.L.str.24, (%esp)
	calll	printf@PLT
	leal	92(%esp), %eax
	movl	%eax, 36(%esp)
	movl	88(%esp), %eax
	movl	%eax, 8(%esi)
	movl	80(%esp), %eax
	movl	84(%esp), %ecx
	movl	%ecx, 4(%esi)
	movl	%eax, (%esi)
	leal	40(%esp), %edi
	movl	%edi, (%esp)
	movl	$1, 16(%esp)
	calll	FF_function_223
	subl	$4, %esp
	movl	%edi, (%esp)
	movl	$3, 24(%esp)
	movl	$2, 20(%esp)
	movl	$1, 16(%esp)
	calll	FF_function_223
	subl	$4, %esp
	movl	$.L.str.25, (%esp)
	calll	printf@PLT
	movl	%esi, %eax
	addl	$52, %esp
	.cfi_def_cfa_offset 12
	popl	%esi
	.cfi_def_cfa_offset 8
	popl	%edi
	.cfi_def_cfa_offset 4
	retl	$4
.Lfunc_end13:
	.size	FF_function_223, .Lfunc_end13-FF_function_223
	.cfi_endproc
                                        # -- End function
	.globl	FF_function_225                 # -- Begin function FF_function_225
	.p2align	4, 0x90
	.type	FF_function_225,@function
FF_function_225:                        # @FF_function_225
	.cfi_startproc
# %bb.0:
	pushl	%edi
	.cfi_def_cfa_offset 8
	pushl	%esi
	.cfi_def_cfa_offset 12
	subl	$52, %esp
	.cfi_def_cfa_offset 64
	.cfi_offset %esi, -12
	.cfi_offset %edi, -8
	movl	64(%esp), %esi
	movl	$.L.str.26, (%esp)
	calll	printf@PLT
	leal	88(%esp), %eax
	movl	%eax, 36(%esp)
	movl	84(%esp), %eax
	movl	%eax, 8(%esi)
	movl	76(%esp), %eax
	movl	80(%esp), %ecx
	movl	%ecx, 4(%esi)
	movl	%eax, (%esi)
	leal	40(%esp), %edi
	movl	%edi, (%esp)
	movl	$1, 12(%esp)
	calll	FF_function_225
	subl	$4, %esp
	movl	%edi, (%esp)
	movl	$3, 20(%esp)
	movl	$2, 16(%esp)
	movl	$1, 12(%esp)
	calll	FF_function_225
	subl	$4, %esp
	movl	$.L.str.27, (%esp)
	calll	printf@PLT
	movl	%esi, %eax
	addl	$52, %esp
	.cfi_def_cfa_offset 12
	popl	%esi
	.cfi_def_cfa_offset 8
	popl	%edi
	.cfi_def_cfa_offset 4
	retl	$4
.Lfunc_end14:
	.size	FF_function_225, .Lfunc_end14-FF_function_225
	.cfi_endproc
                                        # -- End function
	.globl	FF_function_228                 # -- Begin function FF_function_228
	.p2align	4, 0x90
	.type	FF_function_228,@function
FF_function_228:                        # @FF_function_228
	.cfi_startproc
# %bb.0:
	pushl	%esi
	.cfi_def_cfa_offset 8
	subl	$40, %esp
	.cfi_def_cfa_offset 48
	.cfi_offset %esi, -8
	movl	$.L.str.28, (%esp)
	calll	printf@PLT
	leal	64(%esp), %eax
	movl	%eax, 36(%esp)
	movl	60(%esp), %esi
	movl	$1, 12(%esp)
	calll	FF_function_228
	movl	$3, 20(%esp)
	movl	$2, 16(%esp)
	movl	$1, 12(%esp)
	calll	FF_function_228
	movl	$.L.str.29, (%esp)
	calll	printf@PLT
	movl	%esi, %eax
	addl	$40, %esp
	.cfi_def_cfa_offset 8
	popl	%esi
	.cfi_def_cfa_offset 4
	retl
.Lfunc_end15:
	.size	FF_function_228, .Lfunc_end15-FF_function_228
	.cfi_endproc
                                        # -- End function
	.globl	FF_function_232                 # -- Begin function FF_function_232
	.p2align	4, 0x90
	.type	FF_function_232,@function
FF_function_232:                        # @FF_function_232
	.cfi_startproc
# %bb.0:
	pushl	%edi
	.cfi_def_cfa_offset 8
	pushl	%esi
	.cfi_def_cfa_offset 12
	subl	$52, %esp
	.cfi_def_cfa_offset 64
	.cfi_offset %esi, -12
	.cfi_offset %edi, -8
	movl	64(%esp), %esi
	movl	$.L.str.30, (%esp)
	calll	printf@PLT
	leal	92(%esp), %eax
	movl	%eax, 36(%esp)
	movl	88(%esp), %eax
	movl	%eax, 8(%esi)
	movl	80(%esp), %eax
	movl	84(%esp), %ecx
	movl	%ecx, 4(%esi)
	movl	%eax, (%esi)
	leal	40(%esp), %edi
	movl	%edi, (%esp)
	movl	$1, 16(%esp)
	calll	FF_function_232
	subl	$4, %esp
	movl	%edi, (%esp)
	movl	$3, 24(%esp)
	movl	$2, 20(%esp)
	movl	$1, 16(%esp)
	calll	FF_function_232
	subl	$4, %esp
	movl	$.L.str.31, (%esp)
	calll	printf@PLT
	movl	%esi, %eax
	addl	$52, %esp
	.cfi_def_cfa_offset 12
	popl	%esi
	.cfi_def_cfa_offset 8
	popl	%edi
	.cfi_def_cfa_offset 4
	retl	$4
.Lfunc_end16:
	.size	FF_function_232, .Lfunc_end16-FF_function_232
	.cfi_endproc
                                        # -- End function
	.globl	FF_function_234                 # -- Begin function FF_function_234
	.p2align	4, 0x90
	.type	FF_function_234,@function
FF_function_234:                        # @FF_function_234
	.cfi_startproc
# %bb.0:
	pushl	%edi
	.cfi_def_cfa_offset 8
	pushl	%esi
	.cfi_def_cfa_offset 12
	subl	$36, %esp
	.cfi_def_cfa_offset 48
	.cfi_offset %esi, -12
	.cfi_offset %edi, -8
	movl	48(%esp), %esi
	movl	$.L.str.32, (%esp)
	calll	printf@PLT
	leal	68(%esp), %eax
	movl	%eax, 20(%esp)
	movl	64(%esp), %eax
	movl	%eax, 8(%esi)
	movl	56(%esp), %eax
	movl	60(%esp), %ecx
	movl	%ecx, 4(%esi)
	movl	%eax, (%esi)
	leal	24(%esp), %edi
	movl	%edi, (%esp)
	movl	$1, 8(%esp)
	calll	FF_function_234
	subl	$4, %esp
	movl	%edi, (%esp)
	movl	$3, 16(%esp)
	movl	$2, 12(%esp)
	movl	$1, 8(%esp)
	calll	FF_function_234
	subl	$4, %esp
	movl	$.L.str.33, (%esp)
	calll	printf@PLT
	movl	%esi, %eax
	addl	$36, %esp
	.cfi_def_cfa_offset 12
	popl	%esi
	.cfi_def_cfa_offset 8
	popl	%edi
	.cfi_def_cfa_offset 4
	retl	$4
.Lfunc_end17:
	.size	FF_function_234, .Lfunc_end17-FF_function_234
	.cfi_endproc
                                        # -- End function
	.globl	FF_function_236                 # -- Begin function FF_function_236
	.p2align	4, 0x90
	.type	FF_function_236,@function
FF_function_236:                        # @FF_function_236
	.cfi_startproc
# %bb.0:
	pushl	%esi
	.cfi_def_cfa_offset 8
	subl	$24, %esp
	.cfi_def_cfa_offset 32
	.cfi_offset %esi, -8
	movl	$.L.str.34, (%esp)
	calll	printf@PLT
	leal	44(%esp), %eax
	movl	%eax, 20(%esp)
	movl	40(%esp), %esi
	movl	$1, 8(%esp)
	calll	FF_function_236
	movl	$3, 16(%esp)
	movl	$2, 12(%esp)
	movl	$1, 8(%esp)
	calll	FF_function_236
	movl	$.L.str.35, (%esp)
	calll	printf@PLT
	movl	%esi, %eax
	addl	$24, %esp
	.cfi_def_cfa_offset 8
	popl	%esi
	.cfi_def_cfa_offset 4
	retl
.Lfunc_end18:
	.size	FF_function_236, .Lfunc_end18-FF_function_236
	.cfi_endproc
                                        # -- End function
	.globl	FF_function_238                 # -- Begin function FF_function_238
	.p2align	4, 0x90
	.type	FF_function_238,@function
FF_function_238:                        # @FF_function_238
	.cfi_startproc
# %bb.0:
	pushl	%edi
	.cfi_def_cfa_offset 8
	pushl	%esi
	.cfi_def_cfa_offset 12
	pushl	%eax
	.cfi_def_cfa_offset 16
	.cfi_offset %esi, -12
	.cfi_offset %edi, -8
	subl	$12, %esp
	.cfi_adjust_cfa_offset 12
	pushl	$.L.str.36
	.cfi_adjust_cfa_offset 4
	calll	printf@PLT
	addl	$16, %esp
	.cfi_adjust_cfa_offset -16
	leal	28(%esp), %eax
	movl	%eax, (%esp)
	movl	20(%esp), %esi
	movl	24(%esp), %edi
	subl	$8, %esp
	.cfi_adjust_cfa_offset 8
	pushl	$1
	.cfi_adjust_cfa_offset 4
	pushl	$0
	.cfi_adjust_cfa_offset 4
	calll	FF_function_238
	addl	$16, %esp
	.cfi_adjust_cfa_offset -16
	pushl	$3
	.cfi_adjust_cfa_offset 4
	pushl	$2
	.cfi_adjust_cfa_offset 4
	pushl	$1
	.cfi_adjust_cfa_offset 4
	pushl	$0
	.cfi_adjust_cfa_offset 4
	calll	FF_function_238
	addl	$4, %esp
	.cfi_adjust_cfa_offset -4
	pushl	$.L.str.37
	.cfi_adjust_cfa_offset 4
	calll	printf@PLT
	addl	$16, %esp
	.cfi_adjust_cfa_offset -16
	movl	%esi, %eax
	movl	%edi, %edx
	addl	$4, %esp
	.cfi_def_cfa_offset 12
	popl	%esi
	.cfi_def_cfa_offset 8
	popl	%edi
	.cfi_def_cfa_offset 4
	retl
.Lfunc_end19:
	.size	FF_function_238, .Lfunc_end19-FF_function_238
	.cfi_endproc
                                        # -- End function
	.globl	FF_function_241                 # -- Begin function FF_function_241
	.p2align	4, 0x90
	.type	FF_function_241,@function
FF_function_241:                        # @FF_function_241
	.cfi_startproc
# %bb.0:
	pushl	%esi
	.cfi_def_cfa_offset 8
	subl	$24, %esp
	.cfi_def_cfa_offset 32
	.cfi_offset %esi, -8
	movl	$.L.str.38, (%esp)
	calll	printf@PLT
	leal	40(%esp), %eax
	movl	%eax, 20(%esp)
	movzwl	36(%esp), %esi
	movl	$1, 4(%esp)
	calll	FF_function_241
	movl	$3, 12(%esp)
	movl	$2, 8(%esp)
	movl	$1, 4(%esp)
	calll	FF_function_241
	movl	$.L.str.39, (%esp)
	calll	printf@PLT
	movl	%esi, %eax
	addl	$24, %esp
	.cfi_def_cfa_offset 8
	popl	%esi
	.cfi_def_cfa_offset 4
	retl
.Lfunc_end20:
	.size	FF_function_241, .Lfunc_end20-FF_function_241
	.cfi_endproc
                                        # -- End function
	.globl	FF_function_243                 # -- Begin function FF_function_243
	.p2align	4, 0x90
	.type	FF_function_243,@function
FF_function_243:                        # @FF_function_243
	.cfi_startproc
# %bb.0:
	pushl	%esi
	.cfi_def_cfa_offset 8
	subl	$40, %esp
	.cfi_def_cfa_offset 48
	.cfi_offset %esi, -8
	movl	$.L.str.40, (%esp)
	calll	printf@PLT
	leal	64(%esp), %eax
	movl	%eax, 36(%esp)
	movl	60(%esp), %esi
	movl	$1, 12(%esp)
	calll	FF_function_243
	movl	$3, 20(%esp)
	movl	$2, 16(%esp)
	movl	$1, 12(%esp)
	calll	FF_function_243
	movl	$.L.str.41, (%esp)
	calll	printf@PLT
	movl	%esi, %eax
	addl	$40, %esp
	.cfi_def_cfa_offset 8
	popl	%esi
	.cfi_def_cfa_offset 4
	retl
.Lfunc_end21:
	.size	FF_function_243, .Lfunc_end21-FF_function_243
	.cfi_endproc
                                        # -- End function
	.globl	FF_function_247                 # -- Begin function FF_function_247
	.p2align	4, 0x90
	.type	FF_function_247,@function
FF_function_247:                        # @FF_function_247
	.cfi_startproc
# %bb.0:
	pushl	%edi
	.cfi_def_cfa_offset 8
	pushl	%esi
	.cfi_def_cfa_offset 12
	subl	$52, %esp
	.cfi_def_cfa_offset 64
	.cfi_offset %esi, -12
	.cfi_offset %edi, -8
	movl	64(%esp), %esi
	movl	$.L.str.42, (%esp)
	calll	printf@PLT
	leal	84(%esp), %eax
	movl	%eax, 36(%esp)
	movl	80(%esp), %eax
	movl	%eax, 8(%esi)
	movl	72(%esp), %eax
	movl	76(%esp), %ecx
	movl	%ecx, 4(%esi)
	movl	%eax, (%esi)
	movzwl	32(%esp), %eax
	movw	%ax, 4(%esp)
	leal	40(%esp), %edi
	movl	%edi, (%esp)
	movl	$1, 8(%esp)
	calll	FF_function_247
	subl	$4, %esp
	movzwl	24(%esp), %eax
	movw	%ax, 4(%esp)
	movl	%edi, (%esp)
	movl	$3, 16(%esp)
	movl	$2, 12(%esp)
	movl	$1, 8(%esp)
	calll	FF_function_247
	subl	$4, %esp
	movl	$.L.str.43, (%esp)
	calll	printf@PLT
	movl	%esi, %eax
	addl	$52, %esp
	.cfi_def_cfa_offset 12
	popl	%esi
	.cfi_def_cfa_offset 8
	popl	%edi
	.cfi_def_cfa_offset 4
	retl	$4
.Lfunc_end22:
	.size	FF_function_247, .Lfunc_end22-FF_function_247
	.cfi_endproc
                                        # -- End function
	.globl	FF_function_255                 # -- Begin function FF_function_255
	.p2align	4, 0x90
	.type	FF_function_255,@function
FF_function_255:                        # @FF_function_255
	.cfi_startproc
# %bb.0:
	subl	$44, %esp
	.cfi_def_cfa_offset 48
	movl	$.L.str.44, (%esp)
	calll	printf@PLT
	leal	64(%esp), %eax
	movl	%eax, 40(%esp)
	fldl	56(%esp)
	fstpl	32(%esp)                        # 8-byte Folded Spill
	movl	$1, 8(%esp)
	calll	FF_function_255
	fstp	%st(0)
	movl	$3, 16(%esp)
	movl	$2, 12(%esp)
	movl	$1, 8(%esp)
	calll	FF_function_255
	fstp	%st(0)
	movl	$.L.str.45, (%esp)
	calll	printf@PLT
	fldl	32(%esp)                        # 8-byte Folded Reload
	addl	$44, %esp
	.cfi_def_cfa_offset 4
	retl
.Lfunc_end23:
	.size	FF_function_255, .Lfunc_end23-FF_function_255
	.cfi_endproc
                                        # -- End function
	.globl	FF_function_266                 # -- Begin function FF_function_266
	.p2align	4, 0x90
	.type	FF_function_266,@function
FF_function_266:                        # @FF_function_266
	.cfi_startproc
# %bb.0:
	pushl	%edi
	.cfi_def_cfa_offset 8
	pushl	%esi
	.cfi_def_cfa_offset 12
	subl	$20, %esp
	.cfi_def_cfa_offset 32
	.cfi_offset %esi, -12
	.cfi_offset %edi, -8
	movl	$.L.str.46, (%esp)
	calll	printf@PLT
	leal	44(%esp), %eax
	movl	%eax, 16(%esp)
	movl	36(%esp), %esi
	movl	40(%esp), %edi
	movl	$1, 4(%esp)
	calll	FF_function_266
	movl	$3, 12(%esp)
	movl	$2, 8(%esp)
	movl	$1, 4(%esp)
	calll	FF_function_266
	movl	$.L.str.47, (%esp)
	calll	printf@PLT
	movl	%esi, %eax
	movl	%edi, %edx
	addl	$20, %esp
	.cfi_def_cfa_offset 12
	popl	%esi
	.cfi_def_cfa_offset 8
	popl	%edi
	.cfi_def_cfa_offset 4
	retl
.Lfunc_end24:
	.size	FF_function_266, .Lfunc_end24-FF_function_266
	.cfi_endproc
                                        # -- End function
	.globl	FF_function_270                 # -- Begin function FF_function_270
	.p2align	4, 0x90
	.type	FF_function_270,@function
FF_function_270:                        # @FF_function_270
	.cfi_startproc
# %bb.0:
	pushl	%esi
	.cfi_def_cfa_offset 8
	subl	$24, %esp
	.cfi_def_cfa_offset 32
	.cfi_offset %esi, -8
	movl	32(%esp), %esi
	subl	$12, %esp
	.cfi_adjust_cfa_offset 12
	pushl	$.L.str.48
	.cfi_adjust_cfa_offset 4
	calll	printf@PLT
	addl	$16, %esp
	.cfi_adjust_cfa_offset -16
	leal	44(%esp), %eax
	movl	%eax, 20(%esp)
	movl	40(%esp), %eax
	movl	%eax, (%esi)
	subl	$4, %esp
	.cfi_adjust_cfa_offset 4
	leal	20(%esp), %eax
	pushl	$1
	.cfi_adjust_cfa_offset 4
	pushl	$0
	.cfi_adjust_cfa_offset 4
	pushl	%eax
	.cfi_adjust_cfa_offset 4
	calll	FF_function_270
	.cfi_adjust_cfa_offset -4
	leal	20(%esp), %eax
	pushl	$3
	.cfi_adjust_cfa_offset 4
	pushl	$2
	.cfi_adjust_cfa_offset 4
	pushl	$1
	.cfi_adjust_cfa_offset 4
	pushl	$0
	.cfi_adjust_cfa_offset 4
	pushl	%eax
	.cfi_adjust_cfa_offset 4
	calll	FF_function_270
	.cfi_adjust_cfa_offset -4
	addl	$16, %esp
	.cfi_adjust_cfa_offset -16
	pushl	$.L.str.49
	.cfi_adjust_cfa_offset 4
	calll	printf@PLT
	addl	$16, %esp
	.cfi_adjust_cfa_offset -16
	movl	%esi, %eax
	addl	$24, %esp
	.cfi_def_cfa_offset 8
	popl	%esi
	.cfi_def_cfa_offset 4
	retl	$4
.Lfunc_end25:
	.size	FF_function_270, .Lfunc_end25-FF_function_270
	.cfi_endproc
                                        # -- End function
	.globl	FF_function_271                 # -- Begin function FF_function_271
	.p2align	4, 0x90
	.type	FF_function_271,@function
FF_function_271:                        # @FF_function_271
	.cfi_startproc
# %bb.0:
	pushl	%esi
	.cfi_def_cfa_offset 8
	subl	$8, %esp
	.cfi_def_cfa_offset 16
	.cfi_offset %esi, -8
	movl	16(%esp), %esi
	movl	$.L.str.50, (%esp)
	calll	printf@PLT
	calll	rand@PLT
	testl	%eax, %eax
	jle	.LBB26_1
# %bb.2:
	calll	rand@PLT
	testl	%eax, %eax
	jle	.LBB26_1
# %bb.3:
	calll	rand@PLT
	testl	%eax, %eax
	jle	.LBB26_1
# %bb.4:
	calll	rand@PLT
	testl	%eax, %eax
	jle	.LBB26_1
# %bb.5:
	calll	rand@PLT
	testl	%eax, %eax
	jle	.LBB26_1
# %bb.6:
	movl	$.L.str.51, (%esp)
	calll	printf@PLT
	movl	.L__const.FF_function_229.FF_x, %eax
	movl	%eax, (%esi)
	movl	.L__const.FF_function_229.FF_x+4, %eax
	movl	%eax, 4(%esi)
	movl	.L__const.FF_function_229.FF_x+8, %eax
	movl	%eax, 8(%esi)
	jmp	.LBB26_7
.LBB26_1:
	movl	$0, (%esi)
	movl	$1056964608, 4(%esi)            # imm = 0x3F000000
	movl	$0, 8(%esi)
.LBB26_7:
	movl	%esi, %eax
	addl	$8, %esp
	.cfi_def_cfa_offset 8
	popl	%esi
	.cfi_def_cfa_offset 4
	retl	$4
.Lfunc_end26:
	.size	FF_function_271, .Lfunc_end26-FF_function_271
	.cfi_endproc
                                        # -- End function
	.globl	FF_function_272                 # -- Begin function FF_function_272
	.p2align	4, 0x90
	.type	FF_function_272,@function
FF_function_272:                        # @FF_function_272
	.cfi_startproc
# %bb.0:
	pushl	%esi
	.cfi_def_cfa_offset 8
	subl	$8, %esp
	.cfi_def_cfa_offset 16
	.cfi_offset %esi, -8
	movl	16(%esp), %esi
	movl	$.L.str.52, (%esp)
	calll	printf@PLT
	calll	rand@PLT
	movl	$0, (%esi)
	movl	%esi, %eax
	addl	$8, %esp
	.cfi_def_cfa_offset 8
	popl	%esi
	.cfi_def_cfa_offset 4
	retl	$4
.Lfunc_end27:
	.size	FF_function_272, .Lfunc_end27-FF_function_272
	.cfi_endproc
                                        # -- End function
	.globl	FF_function_273                 # -- Begin function FF_function_273
	.p2align	4, 0x90
	.type	FF_function_273,@function
FF_function_273:                        # @FF_function_273
	.cfi_startproc
# %bb.0:
	pushl	%esi
	.cfi_def_cfa_offset 8
	subl	$8, %esp
	.cfi_def_cfa_offset 16
	.cfi_offset %esi, -8
	movl	16(%esp), %esi
	movl	$.L.str.53, (%esp)
	calll	printf@PLT
	movl	$0, 4(%esi)
	movl	$0, (%esi)
	movl	%esi, %eax
	addl	$8, %esp
	.cfi_def_cfa_offset 8
	popl	%esi
	.cfi_def_cfa_offset 4
	retl	$4
.Lfunc_end28:
	.size	FF_function_273, .Lfunc_end28-FF_function_273
	.cfi_endproc
                                        # -- End function
	.globl	FF_function_274                 # -- Begin function FF_function_274
	.p2align	4, 0x90
	.type	FF_function_274,@function
FF_function_274:                        # @FF_function_274
	.cfi_startproc
# %bb.0:
	pushl	%esi
	.cfi_def_cfa_offset 8
	subl	$8, %esp
	.cfi_def_cfa_offset 16
	.cfi_offset %esi, -8
	movl	16(%esp), %esi
	movl	$.L.str.54, (%esp)
	calll	printf@PLT
	movw	$0, (%esi)
	movl	$.L.str.55, (%esp)
	calll	printf@PLT
	movl	%esi, %eax
	addl	$8, %esp
	.cfi_def_cfa_offset 8
	popl	%esi
	.cfi_def_cfa_offset 4
	retl	$4
.Lfunc_end29:
	.size	FF_function_274, .Lfunc_end29-FF_function_274
	.cfi_endproc
                                        # -- End function
	.globl	FF_function_268                 # -- Begin function FF_function_268
	.p2align	4, 0x90
	.type	FF_function_268,@function
FF_function_268:                        # @FF_function_268
	.cfi_startproc
# %bb.0:
	pushl	%esi
	.cfi_def_cfa_offset 8
	subl	$24, %esp
	.cfi_def_cfa_offset 32
	.cfi_offset %esi, -8
	movl	32(%esp), %esi
	movl	$.L.str.56, (%esp)
	calll	printf@PLT
	leal	16(%esp), %eax
	movl	%eax, (%esp)
	movl	$0, 12(%esp)
	movl	$0, 8(%esp)
	movl	$0, 4(%esp)
	calll	FF_function_270
	subl	$4, %esp
	calll	rand@PLT
	testl	%eax, %eax
	jle	.LBB30_10
# %bb.1:
	movl	$.L.str.50, (%esp)
	calll	printf@PLT
	calll	rand@PLT
	testl	%eax, %eax
	jle	.LBB30_7
# %bb.2:
	calll	rand@PLT
	testl	%eax, %eax
	jle	.LBB30_7
# %bb.3:
	calll	rand@PLT
	testl	%eax, %eax
	jle	.LBB30_7
# %bb.4:
	calll	rand@PLT
	testl	%eax, %eax
	jle	.LBB30_7
# %bb.5:
	calll	rand@PLT
	testl	%eax, %eax
	jle	.LBB30_7
# %bb.6:
	movl	$.L.str.51, (%esp)
	calll	printf@PLT
.LBB30_7:
	calll	rand@PLT
	testl	%eax, %eax
	jle	.LBB30_10
# %bb.8:
	movl	$.L.str.52, (%esp)
	calll	printf@PLT
	calll	rand@PLT
	calll	rand@PLT
	testl	%eax, %eax
	jle	.LBB30_10
# %bb.9:
	movl	$.L.str.53, (%esp)
	calll	printf@PLT
	movl	$.L.str.54, (%esp)
	calll	printf@PLT
	movl	$.L.str.55, (%esp)
	calll	printf@PLT
	movl	$.L.str.57, (%esp)
	calll	printf@PLT
.LBB30_10:
	movw	$0, (%esi)
	movl	%esi, %eax
	addl	$24, %esp
	.cfi_def_cfa_offset 8
	popl	%esi
	.cfi_def_cfa_offset 4
	retl	$4
.Lfunc_end30:
	.size	FF_function_268, .Lfunc_end30-FF_function_268
	.cfi_endproc
                                        # -- End function
	.globl	FF_function_275                 # -- Begin function FF_function_275
	.p2align	4, 0x90
	.type	FF_function_275,@function
FF_function_275:                        # @FF_function_275
	.cfi_startproc
# %bb.0:
	subl	$12, %esp
	.cfi_def_cfa_offset 16
	movl	$.L.str.58, (%esp)
	calll	printf@PLT
	movl	$.L.str.59, (%esp)
	calll	printf@PLT
	xorl	%eax, %eax
	addl	$12, %esp
	.cfi_def_cfa_offset 4
	retl
.Lfunc_end31:
	.size	FF_function_275, .Lfunc_end31-FF_function_275
	.cfi_endproc
                                        # -- End function
	.globl	FF_function_276                 # -- Begin function FF_function_276
	.p2align	4, 0x90
	.type	FF_function_276,@function
FF_function_276:                        # @FF_function_276
	.cfi_startproc
# %bb.0:
	subl	$12, %esp
	.cfi_def_cfa_offset 16
	movl	$.L.str.60, (%esp)
	calll	printf@PLT
	xorl	%eax, %eax
	addl	$12, %esp
	.cfi_def_cfa_offset 4
	retl
.Lfunc_end32:
	.size	FF_function_276, .Lfunc_end32-FF_function_276
	.cfi_endproc
                                        # -- End function
	.globl	FF_function_277                 # -- Begin function FF_function_277
	.p2align	4, 0x90
	.type	FF_function_277,@function
FF_function_277:                        # @FF_function_277
	.cfi_startproc
# %bb.0:
	subl	$12, %esp
	.cfi_def_cfa_offset 16
	movl	$.L.str.61, (%esp)
	calll	printf@PLT
	movl	$.L.str.62, (%esp)
	calll	printf@PLT
	xorl	%eax, %eax
	xorl	%edx, %edx
	addl	$12, %esp
	.cfi_def_cfa_offset 4
	retl
.Lfunc_end33:
	.size	FF_function_277, .Lfunc_end33-FF_function_277
	.cfi_endproc
                                        # -- End function
	.globl	FF_function_278                 # -- Begin function FF_function_278
	.p2align	4, 0x90
	.type	FF_function_278,@function
FF_function_278:                        # @FF_function_278
	.cfi_startproc
# %bb.0:
	subl	$12, %esp
	.cfi_def_cfa_offset 16
	movl	$.L.str.63, (%esp)
	calll	printf@PLT
	movl	$.L.str.64, (%esp)
	calll	printf@PLT
	xorl	%eax, %eax
	xorl	%edx, %edx
	addl	$12, %esp
	.cfi_def_cfa_offset 4
	retl
.Lfunc_end34:
	.size	FF_function_278, .Lfunc_end34-FF_function_278
	.cfi_endproc
                                        # -- End function
	.globl	FF_function_280                 # -- Begin function FF_function_280
	.p2align	4, 0x90
	.type	FF_function_280,@function
FF_function_280:                        # @FF_function_280
	.cfi_startproc
# %bb.0:
	subl	$12, %esp
	.cfi_def_cfa_offset 16
	movl	$.L.str.65, (%esp)
	calll	printf@PLT
	movl	$.L.str.66, (%esp)
	calll	printf@PLT
	fldz
	addl	$12, %esp
	.cfi_def_cfa_offset 4
	retl
.Lfunc_end35:
	.size	FF_function_280, .Lfunc_end35-FF_function_280
	.cfi_endproc
                                        # -- End function
	.globl	FF_function_281                 # -- Begin function FF_function_281
	.p2align	4, 0x90
	.type	FF_function_281,@function
FF_function_281:                        # @FF_function_281
	.cfi_startproc
# %bb.0:
	pushl	%esi
	.cfi_def_cfa_offset 8
	subl	$8, %esp
	.cfi_def_cfa_offset 16
	.cfi_offset %esi, -8
	movl	16(%esp), %esi
	movl	$.L.str.67, (%esp)
	calll	printf@PLT
	movw	$0, (%esi)
	movl	$.L.str.68, (%esp)
	calll	printf@PLT
	movl	%esi, %eax
	addl	$8, %esp
	.cfi_def_cfa_offset 8
	popl	%esi
	.cfi_def_cfa_offset 4
	retl	$4
.Lfunc_end36:
	.size	FF_function_281, .Lfunc_end36-FF_function_281
	.cfi_endproc
                                        # -- End function
	.globl	FF_function_282                 # -- Begin function FF_function_282
	.p2align	4, 0x90
	.type	FF_function_282,@function
FF_function_282:                        # @FF_function_282
	.cfi_startproc
# %bb.0:
	pushl	%esi
	.cfi_def_cfa_offset 8
	subl	$8, %esp
	.cfi_def_cfa_offset 16
	.cfi_offset %esi, -8
	movl	16(%esp), %esi
	movl	$.L.str.69, (%esp)
	calll	printf@PLT
	calll	rand@PLT
	testl	%eax, %eax
	jle	.LBB37_1
# %bb.2:
	calll	rand@PLT
	testl	%eax, %eax
	jle	.LBB37_1
# %bb.3:
	movl	$.L.str.70, (%esp)
	calll	printf@PLT
	movl	.L__const.FF_function_229.FF_x, %eax
	movl	%eax, (%esi)
	movl	.L__const.FF_function_229.FF_x+4, %eax
	movl	%eax, 4(%esi)
	movl	.L__const.FF_function_229.FF_x+8, %eax
	movl	%eax, 8(%esi)
	jmp	.LBB37_4
.LBB37_1:
	movl	$0, (%esi)
	movl	$1056964608, 4(%esi)            # imm = 0x3F000000
	movl	$0, 8(%esi)
.LBB37_4:
	movl	%esi, %eax
	addl	$8, %esp
	.cfi_def_cfa_offset 8
	popl	%esi
	.cfi_def_cfa_offset 4
	retl	$4
.Lfunc_end37:
	.size	FF_function_282, .Lfunc_end37-FF_function_282
	.cfi_endproc
                                        # -- End function
	.globl	FF_function_279                 # -- Begin function FF_function_279
	.p2align	4, 0x90
	.type	FF_function_279,@function
FF_function_279:                        # @FF_function_279
	.cfi_startproc
# %bb.0:
	pushl	%esi
	.cfi_def_cfa_offset 8
	subl	$8, %esp
	.cfi_def_cfa_offset 16
	.cfi_offset %esi, -8
	movl	16(%esp), %esi
	movl	$.L.str.71, (%esp)
	calll	printf@PLT
	movl	$.L.str.65, (%esp)
	calll	printf@PLT
	movl	$.L.str.66, (%esp)
	calll	printf@PLT
	movl	$0, (%esi)
	movl	$1056964608, 4(%esi)            # imm = 0x3F000000
	movl	$0, 8(%esi)
	movl	%esi, %eax
	addl	$8, %esp
	.cfi_def_cfa_offset 8
	popl	%esi
	.cfi_def_cfa_offset 4
	retl	$4
.Lfunc_end38:
	.size	FF_function_279, .Lfunc_end38-FF_function_279
	.cfi_endproc
                                        # -- End function
	.globl	FF_function_284                 # -- Begin function FF_function_284
	.p2align	4, 0x90
	.type	FF_function_284,@function
FF_function_284:                        # @FF_function_284
	.cfi_startproc
# %bb.0:
	subl	$12, %esp
	.cfi_def_cfa_offset 16
	movl	$.L.str.72, (%esp)
	calll	printf@PLT
	calll	rand@PLT
	xorl	%eax, %eax
	addl	$12, %esp
	.cfi_def_cfa_offset 4
	retl
.Lfunc_end39:
	.size	FF_function_284, .Lfunc_end39-FF_function_284
	.cfi_endproc
                                        # -- End function
	.globl	FF_function_286                 # -- Begin function FF_function_286
	.p2align	4, 0x90
	.type	FF_function_286,@function
FF_function_286:                        # @FF_function_286
	.cfi_startproc
# %bb.0:
	subl	$12, %esp
	.cfi_def_cfa_offset 16
	movl	$.L.str.73, (%esp)
	calll	printf@PLT
	movl	$.L.str.74, (%esp)
	calll	printf@PLT
	fldz
	addl	$12, %esp
	.cfi_def_cfa_offset 4
	retl
.Lfunc_end40:
	.size	FF_function_286, .Lfunc_end40-FF_function_286
	.cfi_endproc
                                        # -- End function
	.globl	FF_function_285                 # -- Begin function FF_function_285
	.p2align	4, 0x90
	.type	FF_function_285,@function
FF_function_285:                        # @FF_function_285
	.cfi_startproc
# %bb.0:
	subl	$12, %esp
	.cfi_def_cfa_offset 16
	movl	$.L.str.75, (%esp)
	calll	printf@PLT
	movl	$.L.str.73, (%esp)
	calll	printf@PLT
	movl	$.L.str.74, (%esp)
	calll	printf@PLT
	movl	$.L.str.76, (%esp)
	calll	printf@PLT
	fldz
	addl	$12, %esp
	.cfi_def_cfa_offset 4
	retl
.Lfunc_end41:
	.size	FF_function_285, .Lfunc_end41-FF_function_285
	.cfi_endproc
                                        # -- End function
	.globl	FF_function_283                 # -- Begin function FF_function_283
	.p2align	4, 0x90
	.type	FF_function_283,@function
FF_function_283:                        # @FF_function_283
	.cfi_startproc
# %bb.0:
	subl	$12, %esp
	.cfi_def_cfa_offset 16
	movl	$.L.str.77, (%esp)
	calll	printf@PLT
	movl	$.L.str.72, (%esp)
	calll	printf@PLT
	calll	rand@PLT
	movl	$.L.str.75, (%esp)
	calll	printf@PLT
	movl	$.L.str.73, (%esp)
	calll	printf@PLT
	movl	$.L.str.74, (%esp)
	calll	printf@PLT
	movl	$.L.str.76, (%esp)
	calll	printf@PLT
	movl	$.L.str.78, (%esp)
	calll	printf@PLT
	fldz
	addl	$12, %esp
	.cfi_def_cfa_offset 4
	retl
.Lfunc_end42:
	.size	FF_function_283, .Lfunc_end42-FF_function_283
	.cfi_endproc
                                        # -- End function
	.globl	FF_function_267                 # -- Begin function FF_function_267
	.p2align	4, 0x90
	.type	FF_function_267,@function
FF_function_267:                        # @FF_function_267
	.cfi_startproc
# %bb.0:
	subl	$44, %esp
	.cfi_def_cfa_offset 48
	movl	$.L.str.79, (%esp)
	calll	printf@PLT
	movl	$.L.str.58, (%esp)
	calll	printf@PLT
	movl	$.L.str.59, (%esp)
	calll	printf@PLT
	movl	$.L.str.60, (%esp)
	calll	printf@PLT
	movl	$.L.str.61, (%esp)
	calll	printf@PLT
	movl	$.L.str.62, (%esp)
	calll	printf@PLT
	movl	$.L.str.63, (%esp)
	calll	printf@PLT
	movl	$.L.str.64, (%esp)
	calll	printf@PLT
	leal	40(%esp), %eax
	movl	%eax, (%esp)
	movl	$0, 8(%esp)
	calll	FF_function_268
	subl	$4, %esp
	fldz
	addl	$44, %esp
	.cfi_def_cfa_offset 4
	retl
.Lfunc_end43:
	.size	FF_function_267, .Lfunc_end43-FF_function_267
	.cfi_endproc
                                        # -- End function
	.globl	FF_function_288                 # -- Begin function FF_function_288
	.p2align	4, 0x90
	.type	FF_function_288,@function
FF_function_288:                        # @FF_function_288
	.cfi_startproc
# %bb.0:
	pushl	%esi
	.cfi_def_cfa_offset 8
	subl	$8, %esp
	.cfi_def_cfa_offset 16
	.cfi_offset %esi, -8
	movl	16(%esp), %esi
	movl	$.L.str.80, (%esp)
	calll	printf@PLT
	movw	$0, (%esi)
	movl	$.L.str.81, (%esp)
	calll	printf@PLT
	movl	%esi, %eax
	addl	$8, %esp
	.cfi_def_cfa_offset 8
	popl	%esi
	.cfi_def_cfa_offset 4
	retl	$4
.Lfunc_end44:
	.size	FF_function_288, .Lfunc_end44-FF_function_288
	.cfi_endproc
                                        # -- End function
	.globl	FF_function_289                 # -- Begin function FF_function_289
	.p2align	4, 0x90
	.type	FF_function_289,@function
FF_function_289:                        # @FF_function_289
	.cfi_startproc
# %bb.0:
	pushl	%esi
	.cfi_def_cfa_offset 8
	subl	$8, %esp
	.cfi_def_cfa_offset 16
	.cfi_offset %esi, -8
	movl	16(%esp), %esi
	movl	$.L.str.82, (%esp)
	calll	printf@PLT
	movl	.L__const.FF_function_229.FF_x, %eax
	movl	%eax, (%esi)
	movl	.L__const.FF_function_229.FF_x+4, %eax
	movl	%eax, 4(%esi)
	movl	.L__const.FF_function_229.FF_x+8, %eax
	movl	%eax, 8(%esi)
	movl	$.L.str.83, (%esp)
	calll	printf@PLT
	movl	%esi, %eax
	addl	$8, %esp
	.cfi_def_cfa_offset 8
	popl	%esi
	.cfi_def_cfa_offset 4
	retl	$4
.Lfunc_end45:
	.size	FF_function_289, .Lfunc_end45-FF_function_289
	.cfi_endproc
                                        # -- End function
	.globl	FF_function_290                 # -- Begin function FF_function_290
	.p2align	4, 0x90
	.type	FF_function_290,@function
FF_function_290:                        # @FF_function_290
	.cfi_startproc
# %bb.0:
	pushl	%esi
	.cfi_def_cfa_offset 8
	subl	$8, %esp
	.cfi_def_cfa_offset 16
	.cfi_offset %esi, -8
	movl	16(%esp), %esi
	movl	$.L.str.84, (%esp)
	calll	printf@PLT
	movl	$0, 4(%esi)
	movl	$0, (%esi)
	movl	%esi, %eax
	addl	$8, %esp
	.cfi_def_cfa_offset 8
	popl	%esi
	.cfi_def_cfa_offset 4
	retl	$4
.Lfunc_end46:
	.size	FF_function_290, .Lfunc_end46-FF_function_290
	.cfi_endproc
                                        # -- End function
	.globl	FF_function_292                 # -- Begin function FF_function_292
	.p2align	4, 0x90
	.type	FF_function_292,@function
FF_function_292:                        # @FF_function_292
	.cfi_startproc
# %bb.0:
	subl	$12, %esp
	.cfi_def_cfa_offset 16
	movl	$.L.str.85, (%esp)
	calll	printf@PLT
	calll	rand@PLT
	testl	%eax, %eax
	jle	.LBB47_2
# %bb.1:
	movl	$.L.str.86, (%esp)
	calll	printf@PLT
.LBB47_2:
	fldz
	addl	$12, %esp
	.cfi_def_cfa_offset 4
	retl
.Lfunc_end47:
	.size	FF_function_292, .Lfunc_end47-FF_function_292
	.cfi_endproc
                                        # -- End function
	.globl	FF_function_291                 # -- Begin function FF_function_291
	.p2align	4, 0x90
	.type	FF_function_291,@function
FF_function_291:                        # @FF_function_291
	.cfi_startproc
# %bb.0:
	subl	$12, %esp
	.cfi_def_cfa_offset 16
	movl	$.L.str.87, (%esp)
	calll	printf@PLT
	fldz
	addl	$12, %esp
	.cfi_def_cfa_offset 4
	retl
.Lfunc_end48:
	.size	FF_function_291, .Lfunc_end48-FF_function_291
	.cfi_endproc
                                        # -- End function
	.globl	FF_function_293                 # -- Begin function FF_function_293
	.p2align	4, 0x90
	.type	FF_function_293,@function
FF_function_293:                        # @FF_function_293
	.cfi_startproc
# %bb.0:
	subl	$12, %esp
	.cfi_def_cfa_offset 16
	movl	$.L.str.88, (%esp)
	calll	printf@PLT
	movl	$.L.str.89, (%esp)
	calll	printf@PLT
	fldz
	addl	$12, %esp
	.cfi_def_cfa_offset 4
	retl
.Lfunc_end49:
	.size	FF_function_293, .Lfunc_end49-FF_function_293
	.cfi_endproc
                                        # -- End function
	.globl	FF_function_287                 # -- Begin function FF_function_287
	.p2align	4, 0x90
	.type	FF_function_287,@function
FF_function_287:                        # @FF_function_287
	.cfi_startproc
# %bb.0:
	subl	$12, %esp
	.cfi_def_cfa_offset 16
	movl	$.L.str.90, (%esp)
	calll	printf@PLT
	movl	$.L.str.80, (%esp)
	calll	printf@PLT
	movl	$.L.str.81, (%esp)
	calll	printf@PLT
	fldz
	addl	$12, %esp
	.cfi_def_cfa_offset 4
	retl
.Lfunc_end50:
	.size	FF_function_287, .Lfunc_end50-FF_function_287
	.cfi_endproc
                                        # -- End function
	.globl	FF_function_264                 # -- Begin function FF_function_264
	.p2align	4, 0x90
	.type	FF_function_264,@function
FF_function_264:                        # @FF_function_264
	.cfi_startproc
# %bb.0:
	pushl	%esi
	.cfi_def_cfa_offset 8
	subl	$40, %esp
	.cfi_def_cfa_offset 48
	.cfi_offset %esi, -8
	movl	48(%esp), %esi
	movl	$.L.str.91, (%esp)
	calll	printf@PLT
	movl	$.L.str.90, (%esp)
	calll	printf@PLT
	movl	$.L.str.80, (%esp)
	calll	printf@PLT
	movl	$.L.str.81, (%esp)
	calll	printf@PLT
	movl	$.L.str.79, (%esp)
	calll	printf@PLT
	movl	$.L.str.58, (%esp)
	calll	printf@PLT
	movl	$.L.str.59, (%esp)
	calll	printf@PLT
	movl	$.L.str.60, (%esp)
	calll	printf@PLT
	movl	$.L.str.61, (%esp)
	calll	printf@PLT
	movl	$.L.str.62, (%esp)
	calll	printf@PLT
	movl	$.L.str.63, (%esp)
	calll	printf@PLT
	movl	$.L.str.64, (%esp)
	calll	printf@PLT
	leal	32(%esp), %eax
	movl	%eax, (%esp)
	movl	$0, 8(%esp)
	calll	FF_function_268
	subl	$4, %esp
	movl	$0, 8(%esp)
	movl	$0, 4(%esp)
	movl	$0, 12(%esp)
	calll	FF_function_266
	movl	$0, (%esi)
	movl	$.L.str.92, (%esp)
	calll	printf@PLT
	movl	%esi, %eax
	addl	$40, %esp
	.cfi_def_cfa_offset 8
	popl	%esi
	.cfi_def_cfa_offset 4
	retl	$4
.Lfunc_end51:
	.size	FF_function_264, .Lfunc_end51-FF_function_264
	.cfi_endproc
                                        # -- End function
	.globl	FF_function_263                 # -- Begin function FF_function_263
	.p2align	4, 0x90
	.type	FF_function_263,@function
FF_function_263:                        # @FF_function_263
	.cfi_startproc
# %bb.0:
	pushl	%esi
	.cfi_def_cfa_offset 8
	subl	$24, %esp
	.cfi_def_cfa_offset 32
	.cfi_offset %esi, -8
	movl	32(%esp), %esi
	movl	$.L.str.93, (%esp)
	calll	printf@PLT
	leal	16(%esp), %eax
	movl	%eax, (%esp)
	calll	FF_function_264
	subl	$4, %esp
	movl	.L__const.FF_function_229.FF_x+8, %eax
	movl	%eax, 8(%esi)
	movl	.L__const.FF_function_229.FF_x+4, %eax
	movl	%eax, 4(%esi)
	movl	.L__const.FF_function_229.FF_x, %eax
	movl	%eax, (%esi)
	movl	$.L.str.94, (%esp)
	calll	printf@PLT
	movl	%esi, %eax
	addl	$24, %esp
	.cfi_def_cfa_offset 8
	popl	%esi
	.cfi_def_cfa_offset 4
	retl	$4
.Lfunc_end52:
	.size	FF_function_263, .Lfunc_end52-FF_function_263
	.cfi_endproc
                                        # -- End function
	.globl	FF_function_262                 # -- Begin function FF_function_262
	.p2align	4, 0x90
	.type	FF_function_262,@function
FF_function_262:                        # @FF_function_262
	.cfi_startproc
# %bb.0:
	subl	$28, %esp
	.cfi_def_cfa_offset 32
	movl	$.L.str.95, (%esp)
	calll	printf@PLT
	movl	$.L.str.93, (%esp)
	calll	printf@PLT
	leal	24(%esp), %eax
	movl	%eax, (%esp)
	calll	FF_function_264
	subl	$4, %esp
	movl	$.L.str.94, (%esp)
	calll	printf@PLT
	xorl	%eax, %eax
	xorl	%edx, %edx
	addl	$28, %esp
	.cfi_def_cfa_offset 4
	retl
.Lfunc_end53:
	.size	FF_function_262, .Lfunc_end53-FF_function_262
	.cfi_endproc
                                        # -- End function
	.globl	FF_function_261                 # -- Begin function FF_function_261
	.p2align	4, 0x90
	.type	FF_function_261,@function
FF_function_261:                        # @FF_function_261
	.cfi_startproc
# %bb.0:
	subl	$28, %esp
	.cfi_def_cfa_offset 32
	movl	$.L.str.96, (%esp)
	calll	printf@PLT
	movl	$.L.str.95, (%esp)
	calll	printf@PLT
	movl	$.L.str.93, (%esp)
	calll	printf@PLT
	leal	24(%esp), %eax
	movl	%eax, (%esp)
	calll	FF_function_264
	subl	$4, %esp
	movl	$.L.str.94, (%esp)
	calll	printf@PLT
	movl	$.L.str.97, (%esp)
	calll	printf@PLT
	fldz
	addl	$28, %esp
	.cfi_def_cfa_offset 4
	retl
.Lfunc_end54:
	.size	FF_function_261, .Lfunc_end54-FF_function_261
	.cfi_endproc
                                        # -- End function
	.globl	FF_function_260                 # -- Begin function FF_function_260
	.p2align	4, 0x90
	.type	FF_function_260,@function
FF_function_260:                        # @FF_function_260
	.cfi_startproc
# %bb.0:
	subl	$28, %esp
	.cfi_def_cfa_offset 32
	movl	$.L.str.98, (%esp)
	calll	printf@PLT
	movl	$.L.str.96, (%esp)
	calll	printf@PLT
	movl	$.L.str.95, (%esp)
	calll	printf@PLT
	movl	$.L.str.93, (%esp)
	calll	printf@PLT
	leal	24(%esp), %eax
	movl	%eax, (%esp)
	calll	FF_function_264
	subl	$4, %esp
	movl	$.L.str.94, (%esp)
	calll	printf@PLT
	movl	$.L.str.97, (%esp)
	calll	printf@PLT
	movl	$.L.str.99, (%esp)
	calll	printf@PLT
	xorl	%eax, %eax
	addl	$28, %esp
	.cfi_def_cfa_offset 4
	retl
.Lfunc_end55:
	.size	FF_function_260, .Lfunc_end55-FF_function_260
	.cfi_endproc
                                        # -- End function
	.globl	FF_function_259                 # -- Begin function FF_function_259
	.p2align	4, 0x90
	.type	FF_function_259,@function
FF_function_259:                        # @FF_function_259
	.cfi_startproc
# %bb.0:
	subl	$28, %esp
	.cfi_def_cfa_offset 32
	movl	$.L.str.100, (%esp)
	calll	printf@PLT
	movl	$.L.str.98, (%esp)
	calll	printf@PLT
	movl	$.L.str.96, (%esp)
	calll	printf@PLT
	movl	$.L.str.95, (%esp)
	calll	printf@PLT
	movl	$.L.str.93, (%esp)
	calll	printf@PLT
	leal	24(%esp), %eax
	movl	%eax, (%esp)
	calll	FF_function_264
	subl	$4, %esp
	movl	$.L.str.94, (%esp)
	calll	printf@PLT
	movl	$.L.str.97, (%esp)
	calll	printf@PLT
	movl	$.L.str.99, (%esp)
	calll	printf@PLT
	movl	$.L.str.101, (%esp)
	calll	printf@PLT
	xorl	%eax, %eax
	addl	$28, %esp
	.cfi_def_cfa_offset 4
	retl
.Lfunc_end56:
	.size	FF_function_259, .Lfunc_end56-FF_function_259
	.cfi_endproc
                                        # -- End function
	.globl	FF_function_258                 # -- Begin function FF_function_258
	.p2align	4, 0x90
	.type	FF_function_258,@function
FF_function_258:                        # @FF_function_258
	.cfi_startproc
# %bb.0:
	pushl	%esi
	.cfi_def_cfa_offset 8
	subl	$24, %esp
	.cfi_def_cfa_offset 32
	.cfi_offset %esi, -8
	movl	32(%esp), %esi
	movl	$.L.str.102, (%esp)
	calll	printf@PLT
	movl	$.L.str.100, (%esp)
	calll	printf@PLT
	movl	$.L.str.98, (%esp)
	calll	printf@PLT
	movl	$.L.str.96, (%esp)
	calll	printf@PLT
	movl	$.L.str.95, (%esp)
	calll	printf@PLT
	movl	$.L.str.93, (%esp)
	calll	printf@PLT
	leal	16(%esp), %eax
	movl	%eax, (%esp)
	calll	FF_function_264
	subl	$4, %esp
	movl	$.L.str.94, (%esp)
	calll	printf@PLT
	movl	$.L.str.97, (%esp)
	calll	printf@PLT
	movl	$.L.str.99, (%esp)
	calll	printf@PLT
	movl	$.L.str.101, (%esp)
	calll	printf@PLT
	movw	$0, (%esi)
	movl	$.L.str.103, (%esp)
	calll	printf@PLT
	movl	%esi, %eax
	addl	$24, %esp
	.cfi_def_cfa_offset 8
	popl	%esi
	.cfi_def_cfa_offset 4
	retl	$4
.Lfunc_end57:
	.size	FF_function_258, .Lfunc_end57-FF_function_258
	.cfi_endproc
                                        # -- End function
	.globl	FF_function_257                 # -- Begin function FF_function_257
	.p2align	4, 0x90
	.type	FF_function_257,@function
FF_function_257:                        # @FF_function_257
	.cfi_startproc
# %bb.0:
	pushl	%esi
	.cfi_def_cfa_offset 8
	subl	$24, %esp
	.cfi_def_cfa_offset 32
	.cfi_offset %esi, -8
	movl	32(%esp), %esi
	movl	$.L.str.104, (%esp)
	calll	printf@PLT
	leal	16(%esp), %eax
	movl	%eax, (%esp)
	calll	FF_function_258
	subl	$4, %esp
	movw	$0, (%esi)
	movl	$.L.str.105, (%esp)
	calll	printf@PLT
	movl	%esi, %eax
	addl	$24, %esp
	.cfi_def_cfa_offset 8
	popl	%esi
	.cfi_def_cfa_offset 4
	retl	$4
.Lfunc_end58:
	.size	FF_function_257, .Lfunc_end58-FF_function_257
	.cfi_endproc
                                        # -- End function
	.globl	FF_function_256                 # -- Begin function FF_function_256
	.p2align	4, 0x90
	.type	FF_function_256,@function
FF_function_256:                        # @FF_function_256
	.cfi_startproc
# %bb.0:
	subl	$28, %esp
	.cfi_def_cfa_offset 32
	movl	$.L.str.106, (%esp)
	calll	printf@PLT
	movl	$.L.str.104, (%esp)
	calll	printf@PLT
	leal	24(%esp), %eax
	movl	%eax, (%esp)
	calll	FF_function_258
	subl	$4, %esp
	movl	$.L.str.105, (%esp)
	calll	printf@PLT
	movl	$.L.str.107, (%esp)
	calll	printf@PLT
	xorl	%eax, %eax
	xorl	%edx, %edx
	addl	$28, %esp
	.cfi_def_cfa_offset 4
	retl
.Lfunc_end59:
	.size	FF_function_256, .Lfunc_end59-FF_function_256
	.cfi_endproc
                                        # -- End function
	.globl	FF_function_253                 # -- Begin function FF_function_253
	.p2align	4, 0x90
	.type	FF_function_253,@function
FF_function_253:                        # @FF_function_253
	.cfi_startproc
# %bb.0:
	pushl	%esi
	.cfi_def_cfa_offset 8
	subl	$24, %esp
	.cfi_def_cfa_offset 32
	.cfi_offset %esi, -8
	movl	32(%esp), %esi
	movl	$.L.str.108, (%esp)
	calll	printf@PLT
	movl	$.L.str.106, (%esp)
	calll	printf@PLT
	movl	$.L.str.104, (%esp)
	calll	printf@PLT
	leal	16(%esp), %eax
	movl	%eax, (%esp)
	calll	FF_function_258
	subl	$4, %esp
	movl	$.L.str.105, (%esp)
	calll	printf@PLT
	movl	$.L.str.107, (%esp)
	calll	printf@PLT
	movl	$0, 12(%esp)
	movl	$0, 8(%esp)
	calll	FF_function_255
	fstp	%st(0)
	movw	$0, (%esi)
	movl	$.L.str.109, (%esp)
	calll	printf@PLT
	movl	%esi, %eax
	addl	$24, %esp
	.cfi_def_cfa_offset 8
	popl	%esi
	.cfi_def_cfa_offset 4
	retl	$4
.Lfunc_end60:
	.size	FF_function_253, .Lfunc_end60-FF_function_253
	.cfi_endproc
                                        # -- End function
	.globl	FF_function_252                 # -- Begin function FF_function_252
	.p2align	4, 0x90
	.type	FF_function_252,@function
FF_function_252:                        # @FF_function_252
	.cfi_startproc
# %bb.0:
	pushl	%esi
	.cfi_def_cfa_offset 8
	subl	$24, %esp
	.cfi_def_cfa_offset 32
	.cfi_offset %esi, -8
	movl	32(%esp), %esi
	movl	$.L.str.110, (%esp)
	calll	printf@PLT
	movl	$.L.str.108, (%esp)
	calll	printf@PLT
	movl	$.L.str.106, (%esp)
	calll	printf@PLT
	movl	$.L.str.104, (%esp)
	calll	printf@PLT
	leal	16(%esp), %eax
	movl	%eax, (%esp)
	calll	FF_function_258
	subl	$4, %esp
	movl	$.L.str.105, (%esp)
	calll	printf@PLT
	movl	$.L.str.107, (%esp)
	calll	printf@PLT
	movl	$0, 12(%esp)
	movl	$0, 8(%esp)
	calll	FF_function_255
	fstp	%st(0)
	movl	$.L.str.109, (%esp)
	calll	printf@PLT
	movl	.L__const.FF_function_229.FF_x, %eax
	movl	%eax, (%esi)
	movl	.L__const.FF_function_229.FF_x+4, %eax
	movl	%eax, 4(%esi)
	movl	.L__const.FF_function_229.FF_x+8, %eax
	movl	%eax, 8(%esi)
	movl	$.L.str.111, (%esp)
	calll	printf@PLT
	movl	%esi, %eax
	addl	$24, %esp
	.cfi_def_cfa_offset 8
	popl	%esi
	.cfi_def_cfa_offset 4
	retl	$4
.Lfunc_end61:
	.size	FF_function_252, .Lfunc_end61-FF_function_252
	.cfi_endproc
                                        # -- End function
	.globl	FF_function_251                 # -- Begin function FF_function_251
	.p2align	4, 0x90
	.type	FF_function_251,@function
FF_function_251:                        # @FF_function_251
	.cfi_startproc
# %bb.0:
	pushl	%esi
	.cfi_def_cfa_offset 8
	subl	$24, %esp
	.cfi_def_cfa_offset 32
	.cfi_offset %esi, -8
	movl	32(%esp), %esi
	movl	$.L.str.112, (%esp)
	calll	printf@PLT
	movl	$.L.str.110, (%esp)
	calll	printf@PLT
	movl	$.L.str.108, (%esp)
	calll	printf@PLT
	movl	$.L.str.106, (%esp)
	calll	printf@PLT
	movl	$.L.str.104, (%esp)
	calll	printf@PLT
	leal	16(%esp), %eax
	movl	%eax, (%esp)
	calll	FF_function_258
	subl	$4, %esp
	movl	$.L.str.105, (%esp)
	calll	printf@PLT
	movl	$.L.str.107, (%esp)
	calll	printf@PLT
	movl	$0, 12(%esp)
	movl	$0, 8(%esp)
	calll	FF_function_255
	fstp	%st(0)
	movl	$.L.str.109, (%esp)
	calll	printf@PLT
	movl	$.L.str.111, (%esp)
	calll	printf@PLT
	movl	$0, (%esi)
	movl	$.L.str.113, (%esp)
	calll	printf@PLT
	movl	%esi, %eax
	addl	$24, %esp
	.cfi_def_cfa_offset 8
	popl	%esi
	.cfi_def_cfa_offset 4
	retl	$4
.Lfunc_end62:
	.size	FF_function_251, .Lfunc_end62-FF_function_251
	.cfi_endproc
                                        # -- End function
	.globl	FF_function_250                 # -- Begin function FF_function_250
	.p2align	4, 0x90
	.type	FF_function_250,@function
FF_function_250:                        # @FF_function_250
	.cfi_startproc
# %bb.0:
	pushl	%esi
	.cfi_def_cfa_offset 8
	subl	$24, %esp
	.cfi_def_cfa_offset 32
	.cfi_offset %esi, -8
	movl	32(%esp), %esi
	movl	$.L.str.114, (%esp)
	calll	printf@PLT
	leal	16(%esp), %eax
	movl	%eax, (%esp)
	calll	FF_function_251
	subl	$4, %esp
	movw	$0, (%esi)
	movl	$.L.str.115, (%esp)
	calll	printf@PLT
	movl	%esi, %eax
	addl	$24, %esp
	.cfi_def_cfa_offset 8
	popl	%esi
	.cfi_def_cfa_offset 4
	retl	$4
.Lfunc_end63:
	.size	FF_function_250, .Lfunc_end63-FF_function_250
	.cfi_endproc
                                        # -- End function
	.globl	FF_function_249                 # -- Begin function FF_function_249
	.p2align	4, 0x90
	.type	FF_function_249,@function
FF_function_249:                        # @FF_function_249
	.cfi_startproc
# %bb.0:
	subl	$12, %esp
	.cfi_def_cfa_offset 16
	movl	$.L.str.116, (%esp)
	calll	printf@PLT
	movl	$.L.str.114, (%esp)
	calll	printf@PLT
	leal	8(%esp), %eax
	movl	%eax, (%esp)
	calll	FF_function_251
	subl	$4, %esp
	movl	$.L.str.115, (%esp)
	calll	printf@PLT
	movl	$.L.str.117, (%esp)
	calll	printf@PLT
	xorl	%eax, %eax
	addl	$12, %esp
	.cfi_def_cfa_offset 4
	retl
.Lfunc_end64:
	.size	FF_function_249, .Lfunc_end64-FF_function_249
	.cfi_endproc
                                        # -- End function
	.globl	FF_function_248                 # -- Begin function FF_function_248
	.p2align	4, 0x90
	.type	FF_function_248,@function
FF_function_248:                        # @FF_function_248
	.cfi_startproc
# %bb.0:
	pushl	%esi
	.cfi_def_cfa_offset 8
	subl	$24, %esp
	.cfi_def_cfa_offset 32
	.cfi_offset %esi, -8
	movl	32(%esp), %esi
	movl	$.L.str.118, (%esp)
	calll	printf@PLT
	movl	$.L.str.116, (%esp)
	calll	printf@PLT
	movl	$.L.str.114, (%esp)
	calll	printf@PLT
	leal	16(%esp), %eax
	movl	%eax, (%esp)
	calll	FF_function_251
	subl	$4, %esp
	movl	$.L.str.115, (%esp)
	calll	printf@PLT
	movl	$.L.str.117, (%esp)
	calll	printf@PLT
	movw	$0, (%esi)
	movl	%esi, %eax
	addl	$24, %esp
	.cfi_def_cfa_offset 8
	popl	%esi
	.cfi_def_cfa_offset 4
	retl	$4
.Lfunc_end65:
	.size	FF_function_248, .Lfunc_end65-FF_function_248
	.cfi_endproc
                                        # -- End function
	.globl	FF_function_245                 # -- Begin function FF_function_245
	.p2align	4, 0x90
	.type	FF_function_245,@function
FF_function_245:                        # @FF_function_245
	.cfi_startproc
# %bb.0:
	pushl	%edi
	.cfi_def_cfa_offset 8
	pushl	%esi
	.cfi_def_cfa_offset 12
	subl	$36, %esp
	.cfi_def_cfa_offset 48
	.cfi_offset %esi, -12
	.cfi_offset %edi, -8
	movl	48(%esp), %esi
	movl	$.L.str.119, (%esp)
	calll	printf@PLT
	movl	$.L.str.118, (%esp)
	calll	printf@PLT
	movl	$.L.str.116, (%esp)
	calll	printf@PLT
	movl	$.L.str.114, (%esp)
	calll	printf@PLT
	leal	24(%esp), %edi
	movl	%edi, (%esp)
	calll	FF_function_251
	subl	$4, %esp
	movl	$.L.str.115, (%esp)
	calll	printf@PLT
	movl	$.L.str.117, (%esp)
	calll	printf@PLT
	movzwl	16(%esp), %eax
	movw	%ax, 4(%esp)
	movl	%edi, (%esp)
	movl	$0, 12(%esp)
	movl	$0, 8(%esp)
	calll	FF_function_247
	subl	$4, %esp
	movl	.L__const.FF_function_229.FF_x+8, %eax
	movl	%eax, 8(%esi)
	movl	.L__const.FF_function_229.FF_x+4, %eax
	movl	%eax, 4(%esi)
	movl	.L__const.FF_function_229.FF_x, %eax
	movl	%eax, (%esi)
	movl	$.L.str.120, (%esp)
	calll	printf@PLT
	movl	%esi, %eax
	addl	$36, %esp
	.cfi_def_cfa_offset 12
	popl	%esi
	.cfi_def_cfa_offset 8
	popl	%edi
	.cfi_def_cfa_offset 4
	retl	$4
.Lfunc_end66:
	.size	FF_function_245, .Lfunc_end66-FF_function_245
	.cfi_endproc
                                        # -- End function
	.globl	FF_function_244                 # -- Begin function FF_function_244
	.p2align	4, 0x90
	.type	FF_function_244,@function
FF_function_244:                        # @FF_function_244
	.cfi_startproc
# %bb.0:
	pushl	%edi
	.cfi_def_cfa_offset 8
	pushl	%esi
	.cfi_def_cfa_offset 12
	subl	$36, %esp
	.cfi_def_cfa_offset 48
	.cfi_offset %esi, -12
	.cfi_offset %edi, -8
	movl	48(%esp), %esi
	movl	$.L.str.121, (%esp)
	calll	printf@PLT
	movl	$.L.str.119, (%esp)
	calll	printf@PLT
	movl	$.L.str.118, (%esp)
	calll	printf@PLT
	movl	$.L.str.116, (%esp)
	calll	printf@PLT
	movl	$.L.str.114, (%esp)
	calll	printf@PLT
	leal	24(%esp), %edi
	movl	%edi, (%esp)
	calll	FF_function_251
	subl	$4, %esp
	movl	$.L.str.115, (%esp)
	calll	printf@PLT
	movl	$.L.str.117, (%esp)
	calll	printf@PLT
	movzwl	16(%esp), %eax
	movw	%ax, 4(%esp)
	movl	%edi, (%esp)
	movl	$0, 12(%esp)
	movl	$0, 8(%esp)
	calll	FF_function_247
	subl	$4, %esp
	movl	$.L.str.120, (%esp)
	calll	printf@PLT
	movl	.L__const.FF_function_229.FF_x+8, %eax
	movl	%eax, 8(%esi)
	movl	.L__const.FF_function_229.FF_x+4, %eax
	movl	%eax, 4(%esi)
	movl	.L__const.FF_function_229.FF_x, %eax
	movl	%eax, (%esi)
	movl	$.L.str.122, (%esp)
	calll	printf@PLT
	movl	%esi, %eax
	addl	$36, %esp
	.cfi_def_cfa_offset 12
	popl	%esi
	.cfi_def_cfa_offset 8
	popl	%edi
	.cfi_def_cfa_offset 4
	retl	$4
.Lfunc_end67:
	.size	FF_function_244, .Lfunc_end67-FF_function_244
	.cfi_endproc
                                        # -- End function
	.globl	FF_function_239                 # -- Begin function FF_function_239
	.p2align	4, 0x90
	.type	FF_function_239,@function
FF_function_239:                        # @FF_function_239
	.cfi_startproc
# %bb.0:
	pushl	%esi
	.cfi_def_cfa_offset 8
	subl	$56, %esp
	.cfi_def_cfa_offset 64
	.cfi_offset %esi, -8
	movl	$.L.str.123, (%esp)
	calll	printf@PLT
	movl	$.L.str.121, (%esp)
	calll	printf@PLT
	movl	$.L.str.119, (%esp)
	calll	printf@PLT
	movl	$.L.str.118, (%esp)
	calll	printf@PLT
	movl	$.L.str.116, (%esp)
	calll	printf@PLT
	movl	$.L.str.114, (%esp)
	calll	printf@PLT
	leal	40(%esp), %esi
	movl	%esi, (%esp)
	calll	FF_function_251
	subl	$4, %esp
	movl	$.L.str.115, (%esp)
	calll	printf@PLT
	movl	$.L.str.117, (%esp)
	calll	printf@PLT
	movzwl	32(%esp), %eax
	movw	%ax, 4(%esp)
	movl	%esi, (%esp)
	movl	$0, 12(%esp)
	movl	$0, 8(%esp)
	calll	FF_function_247
	subl	$4, %esp
	movl	$.L.str.120, (%esp)
	calll	printf@PLT
	movl	$.L.str.122, (%esp)
	calll	printf@PLT
	movl	$0, 16(%esp)
	movl	$0, 12(%esp)
	calll	FF_function_243
	movl	$0, 8(%esp)
	movl	$0, 4(%esp)
	calll	FF_function_241
	movl	$.L.str.124, (%esp)
	calll	printf@PLT
	xorl	%eax, %eax
	addl	$56, %esp
	.cfi_def_cfa_offset 8
	popl	%esi
	.cfi_def_cfa_offset 4
	retl
.Lfunc_end68:
	.size	FF_function_239, .Lfunc_end68-FF_function_239
	.cfi_endproc
                                        # -- End function
	.globl	FF_function_230                 # -- Begin function FF_function_230
	.p2align	4, 0x90
	.type	FF_function_230,@function
FF_function_230:                        # @FF_function_230
	.cfi_startproc
# %bb.0:
	pushl	%esi
	.cfi_def_cfa_offset 8
	subl	$72, %esp
	.cfi_def_cfa_offset 80
	.cfi_offset %esi, -8
	movl	80(%esp), %esi
	movl	$.L.str.125, (%esp)
	calll	printf@PLT
	movl	$0, (%esp)
	calll	FF_function_239
	movl	$0, 8(%esp)
	movl	$0, 4(%esp)
	movl	$0, 12(%esp)
	movl	$0, (%esp)
	calll	FF_function_238
	movl	$0, 12(%esp)
	movl	$0, 8(%esp)
	calll	FF_function_236
	leal	56(%esp), %eax
	movl	%eax, (%esp)
	movl	$0, 12(%esp)
	movl	$0, 8(%esp)
	calll	FF_function_234
	subl	$4, %esp
	leal	40(%esp), %eax
	movl	%eax, (%esp)
	movl	$0, 20(%esp)
	movl	$0, 16(%esp)
	movl	$0, 24(%esp)
	calll	FF_function_232
	subl	$4, %esp
	movl	.L__const.FF_function_229.FF_x+8, %eax
	movl	%eax, 8(%esi)
	movl	.L__const.FF_function_229.FF_x+4, %eax
	movl	%eax, 4(%esi)
	movl	.L__const.FF_function_229.FF_x, %eax
	movl	%eax, (%esi)
	movl	$.L.str.126, (%esp)
	calll	printf@PLT
	movl	%esi, %eax
	addl	$72, %esp
	.cfi_def_cfa_offset 8
	popl	%esi
	.cfi_def_cfa_offset 4
	retl	$4
.Lfunc_end69:
	.size	FF_function_230, .Lfunc_end69-FF_function_230
	.cfi_endproc
                                        # -- End function
	.globl	FF_function_229                 # -- Begin function FF_function_229
	.p2align	4, 0x90
	.type	FF_function_229,@function
FF_function_229:                        # @FF_function_229
	.cfi_startproc
# %bb.0:
	pushl	%esi
	.cfi_def_cfa_offset 8
	subl	$72, %esp
	.cfi_def_cfa_offset 80
	.cfi_offset %esi, -8
	movl	80(%esp), %esi
	movl	$.L.str.127, (%esp)
	calll	printf@PLT
	movl	$.L.str.125, (%esp)
	calll	printf@PLT
	movl	$0, (%esp)
	calll	FF_function_239
	movl	$0, 8(%esp)
	movl	$0, 4(%esp)
	movl	$0, 12(%esp)
	movl	$0, (%esp)
	calll	FF_function_238
	movl	$0, 12(%esp)
	movl	$0, 8(%esp)
	calll	FF_function_236
	leal	56(%esp), %eax
	movl	%eax, (%esp)
	movl	$0, 12(%esp)
	movl	$0, 8(%esp)
	calll	FF_function_234
	subl	$4, %esp
	leal	40(%esp), %eax
	movl	%eax, (%esp)
	movl	$0, 20(%esp)
	movl	$0, 16(%esp)
	movl	$0, 24(%esp)
	calll	FF_function_232
	subl	$4, %esp
	movl	$.L.str.126, (%esp)
	calll	printf@PLT
	movl	.L__const.FF_function_229.FF_x+8, %eax
	movl	%eax, 8(%esi)
	movl	.L__const.FF_function_229.FF_x+4, %eax
	movl	%eax, 4(%esi)
	movl	.L__const.FF_function_229.FF_x, %eax
	movl	%eax, (%esi)
	movl	$.L.str.128, (%esp)
	calll	printf@PLT
	movl	%esi, %eax
	addl	$72, %esp
	.cfi_def_cfa_offset 8
	popl	%esi
	.cfi_def_cfa_offset 4
	retl	$4
.Lfunc_end70:
	.size	FF_function_229, .Lfunc_end70-FF_function_229
	.cfi_endproc
                                        # -- End function
	.globl	FF_function_226                 # -- Begin function FF_function_226
	.p2align	4, 0x90
	.type	FF_function_226,@function
FF_function_226:                        # @FF_function_226
	.cfi_startproc
# %bb.0:
	subl	$60, %esp
	.cfi_def_cfa_offset 64
	movl	$.L.str.129, (%esp)
	calll	printf@PLT
	movl	$.L.str.127, (%esp)
	calll	printf@PLT
	movl	$.L.str.125, (%esp)
	calll	printf@PLT
	movl	$0, (%esp)
	calll	FF_function_239
	movl	$0, 8(%esp)
	movl	$0, 4(%esp)
	movl	$0, 12(%esp)
	movl	$0, (%esp)
	calll	FF_function_238
	movl	$0, 12(%esp)
	movl	$0, 8(%esp)
	calll	FF_function_236
	leal	48(%esp), %eax
	movl	%eax, (%esp)
	movl	$0, 12(%esp)
	movl	$0, 8(%esp)
	calll	FF_function_234
	subl	$4, %esp
	leal	32(%esp), %eax
	movl	%eax, (%esp)
	movl	$0, 20(%esp)
	movl	$0, 16(%esp)
	movl	$0, 24(%esp)
	calll	FF_function_232
	subl	$4, %esp
	movl	$.L.str.126, (%esp)
	calll	printf@PLT
	movl	$.L.str.128, (%esp)
	calll	printf@PLT
	movl	$0, 16(%esp)
	movl	$0, 12(%esp)
	movl	$0, 20(%esp)
	calll	FF_function_228
	movl	$.L.str.130, (%esp)
	calll	printf@PLT
	fldz
	addl	$60, %esp
	.cfi_def_cfa_offset 4
	retl
.Lfunc_end71:
	.size	FF_function_226, .Lfunc_end71-FF_function_226
	.cfi_endproc
                                        # -- End function
	.globl	FF_function_295                 # -- Begin function FF_function_295
	.p2align	4, 0x90
	.type	FF_function_295,@function
FF_function_295:                        # @FF_function_295
	.cfi_startproc
# %bb.0:
	subl	$12, %esp
	.cfi_def_cfa_offset 16
	movl	$.L.str.131, (%esp)
	calll	printf@PLT
	movl	$.L.str.132, (%esp)
	calll	printf@PLT
	xorl	%eax, %eax
	addl	$12, %esp
	.cfi_def_cfa_offset 4
	retl
.Lfunc_end72:
	.size	FF_function_295, .Lfunc_end72-FF_function_295
	.cfi_endproc
                                        # -- End function
	.globl	CF_function_294                 # -- Begin function CF_function_294
	.p2align	4, 0x90
	.type	CF_function_294,@function
CF_function_294:                        # @CF_function_294
	.cfi_startproc
# %bb.0:
	pushl	%esi
	.cfi_def_cfa_offset 8
	subl	$24, %esp
	.cfi_def_cfa_offset 32
	.cfi_offset %esi, -8
	movl	$.L.str.133, (%esp)
	calll	printf@PLT
	movl	$.L.str.134, (%esp)
	calll	printf@PLT
	movl	$.L.str.135, (%esp)
	calll	printf@PLT
	movl	$.L.str.136, (%esp)
	calll	printf@PLT
	movl	stdin, %eax
	movl	%eax, (%esp)
	calll	getc@PLT
	cmpl	$23, %eax
	je	.LBB73_36
# %bb.1:
	leal	16(%esp), %esi
.LBB73_2:                               # =>This Loop Header: Depth=1
                                        #     Child Loop BB73_5 Depth 2
                                        #       Child Loop BB73_6 Depth 3
                                        #     Child Loop BB73_13 Depth 2
                                        #       Child Loop BB73_14 Depth 3
                                        #     Child Loop BB73_26 Depth 2
                                        #       Child Loop BB73_27 Depth 3
	movl	stdin, %eax
	movl	%eax, (%esp)
	calll	getc@PLT
	cmpl	$97, %eax
	je	.LBB73_38
# %bb.3:                                #   in Loop: Header=BB73_2 Depth=1
	movl	stdin, %eax
	movl	%eax, (%esp)
	calll	getc@PLT
	cmpl	$19, %eax
	je	.LBB73_36
# %bb.4:                                #   in Loop: Header=BB73_2 Depth=1
	movl	$0, (%esp)
	calll	FF_function_238
	movl	$.L.str.137, (%esp)
	calll	printf@PLT
	movl	$.L.str.138, (%esp)
	calll	printf@PLT
	movl	stdin, %eax
	movl	%eax, (%esp)
	calll	getc@PLT
	movl	$.L.str.138, (%esp)
	calll	printf@PLT
	movl	stdin, %eax
	movl	%eax, (%esp)
	calll	getc@PLT
	movl	$.L.str.138, (%esp)
	calll	printf@PLT
	movl	stdin, %eax
	movl	%eax, (%esp)
	calll	getc@PLT
	movl	$.L.str.138, (%esp)
	calll	printf@PLT
	movl	stdin, %eax
	movl	%eax, (%esp)
	calll	getc@PLT
	movl	$.L.str.138, (%esp)
	calll	printf@PLT
	movl	stdin, %eax
	movl	%eax, (%esp)
	calll	getc@PLT
	movl	$.L.str.139, (%esp)
	calll	printf@PLT
	movl	$.L.str.140, (%esp)
	calll	printf@PLT
	movl	$.L.str.141, (%esp)
.LBB73_5:                               #   Parent Loop BB73_2 Depth=1
                                        # =>  This Loop Header: Depth=2
                                        #       Child Loop BB73_6 Depth 3
	calll	printf@PLT
.LBB73_6:                               #   Parent Loop BB73_2 Depth=1
                                        #     Parent Loop BB73_5 Depth=2
                                        # =>    This Inner Loop Header: Depth=3
	movl	$.L.str.142, (%esp)
	calll	printf@PLT
	movl	$.L.str.131, (%esp)
	calll	printf@PLT
	movl	$.L.str.132, (%esp)
	calll	printf@PLT
	movl	stdin, %eax
	movl	%eax, (%esp)
	calll	getc@PLT
	cmpl	$23, %eax
	je	.LBB73_12
# %bb.7:                                #   in Loop: Header=BB73_6 Depth=3
	movl	stdin, %eax
	movl	%eax, (%esp)
	calll	getc@PLT
	cmpl	$73, %eax
	je	.LBB73_8
# %bb.10:                               #   in Loop: Header=BB73_6 Depth=3
	movl	$.L.str.144, (%esp)
	calll	printf@PLT
	movl	stdin, %eax
	movl	%eax, (%esp)
	calll	getc@PLT
	cmpl	$17, %eax
	je	.LBB73_6
# %bb.11:                               #   in Loop: Header=BB73_5 Depth=2
	movl	$.L.str.145, (%esp)
	jmp	.LBB73_5
	.p2align	4, 0x90
.LBB73_12:                              #   in Loop: Header=BB73_2 Depth=1
	movl	$.L.str.146, (%esp)
	calll	printf@PLT
	movl	$.L.str.147, (%esp)
	calll	printf@PLT
	movl	$.L.str.148, (%esp)
.LBB73_13:                              #   Parent Loop BB73_2 Depth=1
                                        # =>  This Loop Header: Depth=2
                                        #       Child Loop BB73_14 Depth 3
	calll	printf@PLT
.LBB73_14:                              #   Parent Loop BB73_2 Depth=1
                                        #     Parent Loop BB73_13 Depth=2
                                        # =>    This Inner Loop Header: Depth=3
	movl	$.L.str.149, (%esp)
	calll	printf@PLT
	movl	$.L.str.150, (%esp)
	calll	printf@PLT
	movl	stdin, %eax
	movl	%eax, (%esp)
	calll	getc@PLT
	cmpl	$23, %eax
	je	.LBB73_24
# %bb.15:                               #   in Loop: Header=BB73_14 Depth=3
	movl	stdin, %eax
	movl	%eax, (%esp)
	calll	getc@PLT
	cmpl	$31, %eax
	je	.LBB73_37
# %bb.16:                               #   in Loop: Header=BB73_14 Depth=3
	movl	stdin, %eax
	movl	%eax, (%esp)
	calll	getc@PLT
	cmpl	$19, %eax
	je	.LBB73_24
# %bb.17:                               #   in Loop: Header=BB73_14 Depth=3
	movl	stdin, %eax
	movl	%eax, (%esp)
	calll	getc@PLT
	cmpl	$83, %eax
	je	.LBB73_18
# %bb.19:                               #   in Loop: Header=BB73_14 Depth=3
	movl	stdin, %eax
	movl	%eax, (%esp)
	calll	getc@PLT
	cmpl	$73, %eax
	je	.LBB73_20
# %bb.21:                               #   in Loop: Header=BB73_14 Depth=3
	movl	$.L.str.60, (%esp)
	calll	printf@PLT
	movl	stdin, %eax
	movl	%eax, (%esp)
	calll	getc@PLT
	cmpl	$67, %eax
	je	.LBB73_14
# %bb.22:                               #   in Loop: Header=BB73_14 Depth=3
	movl	stdin, %eax
	movl	%eax, (%esp)
	calll	getc@PLT
	cmpl	$17, %eax
	je	.LBB73_14
# %bb.23:                               #   in Loop: Header=BB73_13 Depth=2
	movl	$.L.str.153, (%esp)
	jmp	.LBB73_13
	.p2align	4, 0x90
.LBB73_24:                              #   in Loop: Header=BB73_2 Depth=1
	movl	$.L.str.154, (%esp)
	calll	printf@PLT
	movl	$.L.str.155, %eax
.LBB73_25:                              #   in Loop: Header=BB73_2 Depth=1
	movl	%eax, (%esp)
	calll	printf@PLT
	movl	$.L.str.156, (%esp)
.LBB73_26:                              #   Parent Loop BB73_2 Depth=1
                                        # =>  This Loop Header: Depth=2
                                        #       Child Loop BB73_27 Depth 3
	calll	printf@PLT
.LBB73_27:                              #   Parent Loop BB73_2 Depth=1
                                        #     Parent Loop BB73_26 Depth=2
                                        # =>    This Inner Loop Header: Depth=3
	movl	$.L.str.157, (%esp)
	calll	printf@PLT
	calll	FF_function_266
	movl	stdin, %eax
	movl	%eax, (%esp)
	calll	getc@PLT
	cmpl	$23, %eax
	je	.LBB73_34
# %bb.28:                               #   in Loop: Header=BB73_27 Depth=3
	movl	stdin, %eax
	movl	%eax, (%esp)
	calll	getc@PLT
	cmpl	$83, %eax
	je	.LBB73_29
# %bb.30:                               #   in Loop: Header=BB73_27 Depth=3
	movl	stdin, %eax
	movl	%eax, (%esp)
	calll	getc@PLT
	cmpl	$73, %eax
	je	.LBB73_31
# %bb.32:                               #   in Loop: Header=BB73_27 Depth=3
	movl	$.L.str.116, (%esp)
	calll	printf@PLT
	movl	$.L.str.114, (%esp)
	calll	printf@PLT
	movl	%esi, (%esp)
	calll	FF_function_251
	subl	$4, %esp
	movl	$.L.str.115, (%esp)
	calll	printf@PLT
	movl	$.L.str.117, (%esp)
	calll	printf@PLT
	movl	stdin, %eax
	movl	%eax, (%esp)
	calll	getc@PLT
	cmpl	$67, %eax
	je	.LBB73_27
# %bb.33:                               #   in Loop: Header=BB73_26 Depth=2
	movl	$.L.str.160, (%esp)
	jmp	.LBB73_26
	.p2align	4, 0x90
.LBB73_34:                              #   in Loop: Header=BB73_2 Depth=1
	movl	$.L.str.161, (%esp)
	calll	printf@PLT
	movl	$.L.str.58, (%esp)
	calll	printf@PLT
	movl	$.L.str.59, (%esp)
	jmp	.LBB73_35
.LBB73_29:                              #   in Loop: Header=BB73_2 Depth=1
	movl	$.L.str.158, (%esp)
.LBB73_35:                              #   in Loop: Header=BB73_2 Depth=1
	calll	printf@PLT
	movl	$.L.str.162, (%esp)
	calll	printf@PLT
	movl	$.L.str.163, (%esp)
	calll	printf@PLT
	movl	stdin, %eax
	movl	%eax, (%esp)
	calll	getc@PLT
	movl	$.L.str.163, (%esp)
	calll	printf@PLT
	movl	stdin, %eax
	movl	%eax, (%esp)
	calll	getc@PLT
	movl	$.L.str.163, (%esp)
	calll	printf@PLT
	movl	stdin, %eax
	movl	%eax, (%esp)
	calll	getc@PLT
	movl	$.L.str.163, (%esp)
	calll	printf@PLT
	movl	stdin, %eax
	movl	%eax, (%esp)
	calll	getc@PLT
	movl	$.L.str.163, (%esp)
	calll	printf@PLT
	movl	stdin, %eax
	movl	%eax, (%esp)
	calll	getc@PLT
	movl	$.L.str.163, (%esp)
	calll	printf@PLT
	movl	stdin, %eax
	movl	%eax, (%esp)
	calll	getc@PLT
	movl	$.L.str.163, (%esp)
	calll	printf@PLT
	movl	stdin, %eax
	movl	%eax, (%esp)
	calll	getc@PLT
	movl	$.L.str.163, (%esp)
	calll	printf@PLT
	movl	stdin, %eax
	movl	%eax, (%esp)
	calll	getc@PLT
	movl	$.L.str.163, (%esp)
	calll	printf@PLT
	movl	stdin, %eax
	movl	%eax, (%esp)
	calll	getc@PLT
	movl	$.L.str.164, (%esp)
	calll	printf@PLT
	movl	$.L.str.165, (%esp)
	calll	printf@PLT
	movl	$.L.str.166, (%esp)
	calll	printf@PLT
	movl	$.L.str.135, (%esp)
	calll	printf@PLT
	movl	$.L.str.136, (%esp)
	calll	printf@PLT
	movl	stdin, %eax
	movl	%eax, (%esp)
	calll	getc@PLT
	cmpl	$23, %eax
	jne	.LBB73_2
	jmp	.LBB73_36
.LBB73_18:                              #   in Loop: Header=BB73_2 Depth=1
	movl	$.L.str.151, %eax
	jmp	.LBB73_25
.LBB73_8:
	movl	$.L.str.143, %eax
	jmp	.LBB73_9
.LBB73_31:
	movl	$.L.str.159, %eax
	jmp	.LBB73_9
.LBB73_20:
	movl	$.L.str.152, %eax
.LBB73_9:
	movl	%eax, (%esp)
	calll	printf@PLT
.LBB73_36:
	movl	$.L.str.167, (%esp)
	calll	printf@PLT
	movl	$.L.str.168, (%esp)
	calll	printf@PLT
	movl	$.L.str.169, (%esp)
	calll	printf@PLT
.LBB73_37:
	xorl	%eax, %eax
	addl	$24, %esp
	.cfi_def_cfa_offset 8
	popl	%esi
	.cfi_def_cfa_offset 4
	retl
.LBB73_38:
	.cfi_def_cfa_offset 32
	movl	$1923, (%esp)                   # imm = 0x783
	calll	exit@PLT
.Lfunc_end73:
	.size	CF_function_294, .Lfunc_end73-CF_function_294
	.cfi_endproc
                                        # -- End function
	.globl	CF_function_296                 # -- Begin function CF_function_296
	.p2align	4, 0x90
	.type	CF_function_296,@function
CF_function_296:                        # @CF_function_296
	.cfi_startproc
# %bb.0:
	pushl	%edi
	.cfi_def_cfa_offset 8
	pushl	%esi
	.cfi_def_cfa_offset 12
	subl	$20, %esp
	.cfi_def_cfa_offset 32
	.cfi_offset %esi, -12
	.cfi_offset %edi, -8
	movl	$.L.str.170, (%esp)
	calll	printf@PLT
	movl	$.L.str.171, (%esp)
	calll	printf@PLT
	movl	$.L.str.172, (%esp)
	calll	printf@PLT
	movl	$.L.str.173, (%esp)
	calll	printf@PLT
	movl	stdin, %eax
	movl	%eax, (%esp)
	calll	getc@PLT
	cmpl	$97, %eax
	je	.LBB74_33
# %bb.1:
	movl	32(%esp), %esi
	leal	16(%esp), %edi
	jmp	.LBB74_2
	.p2align	4, 0x90
.LBB74_32:                              #   in Loop: Header=BB74_2 Depth=1
	movl	$.L.str.172, (%esp)
	calll	printf@PLT
	movl	$.L.str.173, (%esp)
	calll	printf@PLT
	movl	stdin, %eax
	movl	%eax, (%esp)
	calll	getc@PLT
	cmpl	$97, %eax
	je	.LBB74_33
.LBB74_2:                               # =>This Loop Header: Depth=1
                                        #     Child Loop BB74_6 Depth 2
                                        #       Child Loop BB74_7 Depth 3
                                        #         Child Loop BB74_11 Depth 4
                                        #           Child Loop BB74_12 Depth 5
	movl	stdin, %eax
	movl	%eax, (%esp)
	calll	getc@PLT
	cmpl	$31, %eax
	je	.LBB74_17
# %bb.3:                                #   in Loop: Header=BB74_2 Depth=1
	movl	stdin, %eax
	movl	%eax, (%esp)
	calll	getc@PLT
	cmpl	$19, %eax
	je	.LBB74_16
# %bb.4:                                #   in Loop: Header=BB74_2 Depth=1
	movl	$.L.str.174, (%esp)
	calll	printf@PLT
	movl	$.L.str.98, (%esp)
	calll	printf@PLT
	movl	$.L.str.96, (%esp)
	calll	printf@PLT
	movl	$.L.str.95, (%esp)
	calll	printf@PLT
	movl	$.L.str.93, (%esp)
	calll	printf@PLT
	movl	%edi, (%esp)
	calll	FF_function_264
	subl	$4, %esp
	movl	$.L.str.94, (%esp)
	calll	printf@PLT
	movl	$.L.str.97, (%esp)
	calll	printf@PLT
	movl	$.L.str.99, (%esp)
	calll	printf@PLT
	movl	$.L.str.175, (%esp)
	calll	printf@PLT
	movl	$.L.str.176, (%esp)
	calll	printf@PLT
	movl	$.L.str.177, (%esp)
	calll	printf@PLT
	movl	$.L.str.87, (%esp)
	calll	printf@PLT
	movl	$.L.str.178, (%esp)
	calll	printf@PLT
	movl	$.L.str.179, (%esp)
	calll	printf@PLT
	movl	$.L.str.116, (%esp)
	calll	printf@PLT
	movl	$.L.str.114, (%esp)
	calll	printf@PLT
	movl	%edi, (%esp)
	calll	FF_function_251
	subl	$4, %esp
	movl	$.L.str.115, (%esp)
	calll	printf@PLT
	movl	$.L.str.117, (%esp)
	calll	printf@PLT
	movl	$.L.str.95, (%esp)
	calll	printf@PLT
	movl	$.L.str.93, (%esp)
	calll	printf@PLT
	movl	%edi, (%esp)
	calll	FF_function_264
	subl	$4, %esp
	movl	$.L.str.94, (%esp)
	calll	printf@PLT
	movl	$.L.str.180, (%esp)
	calll	printf@PLT
	movl	$.L.str.181, (%esp)
	calll	printf@PLT
	movl	$.L.str.182, (%esp)
	calll	printf@PLT
	movl	$.L.str.183, (%esp)
	calll	printf@PLT
	movl	$.L.str.184, (%esp)
	calll	printf@PLT
	movl	stdin, %eax
	movl	%eax, (%esp)
	calll	getc@PLT
	cmpl	$79, %eax
	jne	.LBB74_28
# %bb.5:                                #   in Loop: Header=BB74_2 Depth=1
	movl	$.L.str.185, (%esp)
.LBB74_6:                               #   Parent Loop BB74_2 Depth=1
                                        # =>  This Loop Header: Depth=2
                                        #       Child Loop BB74_7 Depth 3
                                        #         Child Loop BB74_11 Depth 4
                                        #           Child Loop BB74_12 Depth 5
	calll	printf@PLT
.LBB74_7:                               #   Parent Loop BB74_2 Depth=1
                                        #     Parent Loop BB74_6 Depth=2
                                        # =>    This Loop Header: Depth=3
                                        #         Child Loop BB74_11 Depth 4
                                        #           Child Loop BB74_12 Depth 5
	movl	$.L.str.186, (%esp)
	calll	printf@PLT
	movl	$.L.str.187, (%esp)
	calll	printf@PLT
	movl	stdin, %eax
	movl	%eax, (%esp)
	calll	getc@PLT
	cmpl	$97, %eax
	je	.LBB74_33
# %bb.8:                                #   in Loop: Header=BB74_7 Depth=3
	movl	stdin, %eax
	movl	%eax, (%esp)
	calll	getc@PLT
	cmpl	$83, %eax
	je	.LBB74_9
# %bb.10:                               #   in Loop: Header=BB74_7 Depth=3
	movl	$.L.str.90, (%esp)
	calll	printf@PLT
	movl	$.L.str.80, (%esp)
	calll	printf@PLT
	movl	$.L.str.81, (%esp)
	calll	printf@PLT
	movl	$.L.str.189, (%esp)
.LBB74_11:                              #   Parent Loop BB74_2 Depth=1
                                        #     Parent Loop BB74_6 Depth=2
                                        #       Parent Loop BB74_7 Depth=3
                                        # =>      This Loop Header: Depth=4
                                        #           Child Loop BB74_12 Depth 5
	calll	printf@PLT
.LBB74_12:                              #   Parent Loop BB74_2 Depth=1
                                        #     Parent Loop BB74_6 Depth=2
                                        #       Parent Loop BB74_7 Depth=3
                                        #         Parent Loop BB74_11 Depth=4
                                        # =>        This Inner Loop Header: Depth=5
	movl	$.L.str.190, (%esp)
	calll	printf@PLT
	movl	$.L.str.191, (%esp)
	calll	printf@PLT
	movl	stdin, %eax
	movl	%eax, (%esp)
	calll	getc@PLT
	cmpl	$19, %eax
	je	.LBB74_20
# %bb.13:                               #   in Loop: Header=BB74_12 Depth=5
	movl	stdin, %eax
	movl	%eax, (%esp)
	calll	getc@PLT
	cmpl	$73, %eax
	je	.LBB74_14
# %bb.18:                               #   in Loop: Header=BB74_12 Depth=5
	movl	$.L.str.73, (%esp)
	calll	printf@PLT
	movl	$.L.str.74, (%esp)
	calll	printf@PLT
	calll	FF_function_266
	movl	stdin, %eax
	movl	%eax, (%esp)
	calll	getc@PLT
	cmpl	$17, %eax
	je	.LBB74_12
# %bb.19:                               #   in Loop: Header=BB74_11 Depth=4
	movl	$.L.str.58, (%esp)
	calll	printf@PLT
	movl	$.L.str.59, (%esp)
	jmp	.LBB74_11
	.p2align	4, 0x90
.LBB74_20:                              #   in Loop: Header=BB74_7 Depth=3
	movl	$.L.str.193, (%esp)
	calll	printf@PLT
	movl	$.L.str.95, (%esp)
	calll	printf@PLT
	movl	$.L.str.93, (%esp)
	calll	printf@PLT
	movl	%edi, (%esp)
	calll	FF_function_264
	subl	$4, %esp
	movl	$.L.str.94, (%esp)
	calll	printf@PLT
	movl	stdin, %eax
	movl	%eax, (%esp)
	calll	getc@PLT
	cmpl	$79, %eax
	je	.LBB74_21
# %bb.26:                               #   in Loop: Header=BB74_7 Depth=3
	movl	$.L.str.200, (%esp)
	calll	printf@PLT
	movl	$.L.str.201, (%esp)
	calll	printf@PLT
	movl	$.L.str.202, (%esp)
	calll	printf@PLT
	movl	$2565, 4(%esp)                  # imm = 0xA05
	movl	$.L.str.203, (%esp)
	calll	printf@PLT
	movl	stdin, %eax
	movl	%eax, (%esp)
	calll	getc@PLT
	movl	$2564, 4(%esp)                  # imm = 0xA04
	movl	$.L.str.203, (%esp)
	calll	printf@PLT
	movl	stdin, %eax
	movl	%eax, (%esp)
	calll	getc@PLT
	movl	$2563, 4(%esp)                  # imm = 0xA03
	movl	$.L.str.203, (%esp)
	calll	printf@PLT
	movl	stdin, %eax
	movl	%eax, (%esp)
	calll	getc@PLT
	movl	$2562, 4(%esp)                  # imm = 0xA02
	movl	$.L.str.203, (%esp)
	calll	printf@PLT
	movl	stdin, %eax
	movl	%eax, (%esp)
	calll	getc@PLT
	movl	$2561, 4(%esp)                  # imm = 0xA01
	movl	$.L.str.203, (%esp)
	calll	printf@PLT
	movl	stdin, %eax
	movl	%eax, (%esp)
	calll	getc@PLT
	movl	$2560, 4(%esp)                  # imm = 0xA00
	movl	$.L.str.203, (%esp)
	calll	printf@PLT
	movl	stdin, %eax
	movl	%eax, (%esp)
	calll	getc@PLT
	movl	$2559, 4(%esp)                  # imm = 0x9FF
	movl	$.L.str.203, (%esp)
	calll	printf@PLT
	movl	stdin, %eax
	movl	%eax, (%esp)
	calll	getc@PLT
	movl	$2558, 4(%esp)                  # imm = 0x9FE
	movl	$.L.str.203, (%esp)
	calll	printf@PLT
	movl	stdin, %eax
	movl	%eax, (%esp)
	calll	getc@PLT
	movl	$2557, 4(%esp)                  # imm = 0x9FD
	movl	$.L.str.203, (%esp)
	calll	printf@PLT
	movl	stdin, %eax
	movl	%eax, (%esp)
	calll	getc@PLT
	movl	$2556, 4(%esp)                  # imm = 0x9FC
	movl	$.L.str.203, (%esp)
	calll	printf@PLT
	movl	stdin, %eax
	movl	%eax, (%esp)
	calll	getc@PLT
	movl	$2555, 4(%esp)                  # imm = 0x9FB
	movl	$.L.str.203, (%esp)
	calll	printf@PLT
	movl	stdin, %eax
	movl	%eax, (%esp)
	calll	getc@PLT
	movl	$2554, 4(%esp)                  # imm = 0x9FA
	movl	$.L.str.203, (%esp)
	calll	printf@PLT
	movl	stdin, %eax
	movl	%eax, (%esp)
	calll	getc@PLT
	movl	$.L.str.204, (%esp)
	calll	printf@PLT
	movl	$.L.str.205, (%esp)
	calll	printf@PLT
	movl	$.L.str.206, (%esp)
	calll	printf@PLT
	movl	$2951, 4(%esp)                  # imm = 0xB87
	movl	$.L.str.207, (%esp)
	calll	printf@PLT
	movl	stdin, %eax
	movl	%eax, (%esp)
	calll	getc@PLT
	movl	$2956, 4(%esp)                  # imm = 0xB8C
	movl	$.L.str.207, (%esp)
	calll	printf@PLT
	movl	stdin, %eax
	movl	%eax, (%esp)
	calll	getc@PLT
	movl	$2961, 4(%esp)                  # imm = 0xB91
	movl	$.L.str.207, (%esp)
	calll	printf@PLT
	movl	stdin, %eax
	movl	%eax, (%esp)
	calll	getc@PLT
	movl	$2966, 4(%esp)                  # imm = 0xB96
	movl	$.L.str.207, (%esp)
	calll	printf@PLT
	movl	stdin, %eax
	movl	%eax, (%esp)
	calll	getc@PLT
	movl	$2971, 4(%esp)                  # imm = 0xB9B
	movl	$.L.str.207, (%esp)
	calll	printf@PLT
	movl	stdin, %eax
	movl	%eax, (%esp)
	calll	getc@PLT
	movl	$2976, 4(%esp)                  # imm = 0xBA0
	movl	$.L.str.207, (%esp)
	calll	printf@PLT
	movl	stdin, %eax
	movl	%eax, (%esp)
	calll	getc@PLT
	movl	$2981, 4(%esp)                  # imm = 0xBA5
	movl	$.L.str.207, (%esp)
	calll	printf@PLT
	movl	stdin, %eax
	movl	%eax, (%esp)
	calll	getc@PLT
	movl	$2986, 4(%esp)                  # imm = 0xBAA
	movl	$.L.str.207, (%esp)
	calll	printf@PLT
	movl	stdin, %eax
	movl	%eax, (%esp)
	calll	getc@PLT
	movl	$2991, 4(%esp)                  # imm = 0xBAF
	movl	$.L.str.207, (%esp)
	calll	printf@PLT
	movl	stdin, %eax
	movl	%eax, (%esp)
	calll	getc@PLT
	movl	$2996, 4(%esp)                  # imm = 0xBB4
	movl	$.L.str.207, (%esp)
	calll	printf@PLT
	movl	stdin, %eax
	movl	%eax, (%esp)
	calll	getc@PLT
	movl	$3001, 4(%esp)                  # imm = 0xBB9
	movl	$.L.str.207, (%esp)
	calll	printf@PLT
	movl	stdin, %eax
	movl	%eax, (%esp)
	calll	getc@PLT
	movl	$3006, 4(%esp)                  # imm = 0xBBE
	movl	$.L.str.207, (%esp)
	calll	printf@PLT
	movl	stdin, %eax
	movl	%eax, (%esp)
	calll	getc@PLT
	movl	$3011, 4(%esp)                  # imm = 0xBC3
	movl	$.L.str.207, (%esp)
	calll	printf@PLT
	movl	stdin, %eax
	movl	%eax, (%esp)
	calll	getc@PLT
	movl	$3016, 4(%esp)                  # imm = 0xBC8
	movl	$.L.str.207, (%esp)
	calll	printf@PLT
	movl	stdin, %eax
	movl	%eax, (%esp)
	calll	getc@PLT
	movl	$3021, 4(%esp)                  # imm = 0xBCD
	movl	$.L.str.207, (%esp)
	calll	printf@PLT
	movl	stdin, %eax
	movl	%eax, (%esp)
	calll	getc@PLT
	movl	$3026, 4(%esp)                  # imm = 0xBD2
	movl	$.L.str.207, (%esp)
	calll	printf@PLT
	movl	stdin, %eax
	movl	%eax, (%esp)
	calll	getc@PLT
	movl	$3031, 4(%esp)                  # imm = 0xBD7
	movl	$.L.str.207, (%esp)
	calll	printf@PLT
	movl	stdin, %eax
	movl	%eax, (%esp)
	calll	getc@PLT
	movl	$3036, 4(%esp)                  # imm = 0xBDC
	movl	$.L.str.207, (%esp)
	calll	printf@PLT
	movl	stdin, %eax
	movl	%eax, (%esp)
	calll	getc@PLT
	movl	$.L.str.208, (%esp)
	calll	printf@PLT
	movl	$.L.str.209, (%esp)
	calll	printf@PLT
	movl	$.L.str.210, (%esp)
	calll	printf@PLT
	movl	$.L.str.211, (%esp)
	calll	printf@PLT
	movl	stdin, %eax
	movl	%eax, (%esp)
	calll	getc@PLT
	movl	$.L.str.211, (%esp)
	calll	printf@PLT
	movl	stdin, %eax
	movl	%eax, (%esp)
	calll	getc@PLT
	movl	$.L.str.211, (%esp)
	calll	printf@PLT
	movl	stdin, %eax
	movl	%eax, (%esp)
	calll	getc@PLT
	movl	$.L.str.211, (%esp)
	calll	printf@PLT
	movl	stdin, %eax
	movl	%eax, (%esp)
	calll	getc@PLT
	movl	$.L.str.211, (%esp)
	calll	printf@PLT
	movl	stdin, %eax
	movl	%eax, (%esp)
	calll	getc@PLT
	movl	$.L.str.211, (%esp)
	calll	printf@PLT
	movl	stdin, %eax
	movl	%eax, (%esp)
	calll	getc@PLT
	movl	$.L.str.212, (%esp)
	calll	printf@PLT
	movl	$.L.str.213, (%esp)
	calll	printf@PLT
	movl	stdin, %eax
	movl	%eax, (%esp)
	calll	getc@PLT
	cmpl	$17, %eax
	je	.LBB74_7
# %bb.27:                               #   in Loop: Header=BB74_6 Depth=2
	movl	$.L.str.214, (%esp)
	jmp	.LBB74_6
	.p2align	4, 0x90
.LBB74_28:                              #   in Loop: Header=BB74_2 Depth=1
	movl	$.L.str.215, (%esp)
	calll	printf@PLT
	movl	$.L.str.116, (%esp)
	calll	printf@PLT
	movl	$.L.str.114, (%esp)
	calll	printf@PLT
	movl	%edi, (%esp)
	calll	FF_function_251
	subl	$4, %esp
	movl	$.L.str.115, (%esp)
	calll	printf@PLT
	movl	$.L.str.117, (%esp)
.LBB74_29:                              #   in Loop: Header=BB74_2 Depth=1
	calll	printf@PLT
	movl	stdin, %eax
	movl	%eax, (%esp)
	calll	getc@PLT
	cmpl	$67, %eax
	je	.LBB74_32
# %bb.30:                               #   in Loop: Header=BB74_2 Depth=1
	movl	stdin, %eax
	movl	%eax, (%esp)
	calll	getc@PLT
	cmpl	$17, %eax
	je	.LBB74_32
# %bb.31:                               #   in Loop: Header=BB74_2 Depth=1
	movl	$.L.str.73, (%esp)
	calll	printf@PLT
	movl	$.L.str.74, (%esp)
	calll	printf@PLT
	jmp	.LBB74_32
.LBB74_9:                               #   in Loop: Header=BB74_2 Depth=1
	movl	$.L.str.188, (%esp)
	jmp	.LBB74_29
.LBB74_14:
	movl	$.L.str.192, %eax
.LBB74_15:
	movl	%eax, (%esp)
	calll	printf@PLT
.LBB74_16:
	movl	$.L.str.216, (%esp)
	calll	printf@PLT
	movl	$.L.str.217, (%esp)
	calll	printf@PLT
	movl	$.L.str.218, (%esp)
	calll	printf@PLT
	movw	$0, (%esi)
.LBB74_17:
	movl	%esi, %eax
	addl	$20, %esp
	.cfi_def_cfa_offset 12
	popl	%esi
	.cfi_def_cfa_offset 8
	popl	%edi
	.cfi_def_cfa_offset 4
	retl	$4
.LBB74_21:
	.cfi_def_cfa_offset 32
	movl	$.L.str.194, (%esp)
	.p2align	4, 0x90
.LBB74_22:                              # =>This Inner Loop Header: Depth=1
	calll	printf@PLT
	movl	$.L.str.195, (%esp)
	calll	printf@PLT
	movl	$.L.str.196, (%esp)
	calll	printf@PLT
	movl	stdin, %eax
	movl	%eax, (%esp)
	calll	getc@PLT
	cmpl	$31, %eax
	je	.LBB74_17
# %bb.23:                               #   in Loop: Header=BB74_22 Depth=1
	movl	stdin, %eax
	movl	%eax, (%esp)
	calll	getc@PLT
	cmpl	$73, %eax
	je	.LBB74_24
# %bb.25:                               #   in Loop: Header=BB74_22 Depth=1
	movl	$.L.str.198, (%esp)
	calll	printf@PLT
	movl	$.L.str.199, (%esp)
	jmp	.LBB74_22
.LBB74_24:
	movl	$.L.str.197, %eax
	jmp	.LBB74_15
.LBB74_33:
	movl	$1923, (%esp)                   # imm = 0x783
	calll	exit@PLT
.Lfunc_end74:
	.size	CF_function_296, .Lfunc_end74-CF_function_296
	.cfi_endproc
                                        # -- End function
	.globl	FF_function_298                 # -- Begin function FF_function_298
	.p2align	4, 0x90
	.type	FF_function_298,@function
FF_function_298:                        # @FF_function_298
	.cfi_startproc
# %bb.0:
	pushl	%esi
	.cfi_def_cfa_offset 8
	subl	$24, %esp
	.cfi_def_cfa_offset 32
	.cfi_offset %esi, -8
	movl	$.L.str.219, (%esp)
	calll	printf@PLT
	movl	$0, 12(%esp)
	movl	$0, 8(%esp)
	movl	$0, 20(%esp)
	movl	$0, 16(%esp)
	calll	FF_function_236
	movl	%eax, %esi
	movl	$.L.str.220, (%esp)
	calll	printf@PLT
	movl	%esi, %eax
	addl	$24, %esp
	.cfi_def_cfa_offset 8
	popl	%esi
	.cfi_def_cfa_offset 4
	retl
.Lfunc_end75:
	.size	FF_function_298, .Lfunc_end75-FF_function_298
	.cfi_endproc
                                        # -- End function
	.section	.rodata.cst4,"aM",@progbits,4
	.p2align	2                               # -- Begin function CF_function_297
.LCPI76_0:
	.long	0x40000000                      # float 2
.LCPI76_2:
	.long	0x46184c00                      # float 9747
.LCPI76_3:
	.long	0x40fc7ae1                      # float 7.88999987
.LCPI76_4:
	.long	0x45da7800                      # float 6991
	.section	.rodata.cst8,"aM",@progbits,8
	.p2align	3
.LCPI76_1:
	.quad	0x400ea3d70a3d70a4              # double 3.8300000000000001
	.text
	.globl	CF_function_297
	.p2align	4, 0x90
	.type	CF_function_297,@function
CF_function_297:                        # @CF_function_297
	.cfi_startproc
# %bb.0:
	pushl	%ebx
	.cfi_def_cfa_offset 8
	pushl	%edi
	.cfi_def_cfa_offset 12
	pushl	%esi
	.cfi_def_cfa_offset 16
	subl	$64, %esp
	.cfi_def_cfa_offset 80
	.cfi_offset %esi, -16
	.cfi_offset %edi, -12
	.cfi_offset %ebx, -8
	movl	80(%esp), %esi
	movl	$.L.str.221, (%esp)
	calll	printf@PLT
	movl	$.L.str.222, (%esp)
	calll	printf@PLT
	flds	.LCPI76_0
	leal	56(%esp), %edi
	flds	.LCPI76_2
	fstps	32(%esp)                        # 4-byte Folded Spill
	.p2align	4, 0x90
.LBB76_1:                               # =>This Inner Loop Header: Depth=1
	fstl	36(%esp)                        # 8-byte Folded Spill
	fstpl	4(%esp)
	movl	$.L.str.223, (%esp)
	calll	printf@PLT
	movl	$.L.str.219, (%esp)
	calll	printf@PLT
	movl	$0, 12(%esp)
	movl	$0, 8(%esp)
	movl	$0, 20(%esp)
	movl	$0, 16(%esp)
	calll	FF_function_236
	movl	$.L.str.220, (%esp)
	calll	printf@PLT
	movl	stdin, %eax
	movl	%eax, (%esp)
	calll	getc@PLT
	cmpl	$23, %eax
	fldz
	je	.LBB76_52
# %bb.2:                                #   in Loop: Header=BB76_1 Depth=1
	fstp	%st(0)
	movl	stdin, %eax
	movl	%eax, (%esp)
	calll	getc@PLT
	cmpl	$31, %eax
	je	.LBB76_54
# %bb.3:                                #   in Loop: Header=BB76_1 Depth=1
	movl	stdin, %eax
	movl	%eax, (%esp)
	calll	getc@PLT
	cmpl	$83, %eax
	je	.LBB76_4
# %bb.5:                                #   in Loop: Header=BB76_1 Depth=1
	movl	$.L.str.225, (%esp)
	calll	printf@PLT
	movl	stdin, %eax
	movl	%eax, (%esp)
	calll	getc@PLT
	cmpl	$79, %eax
	je	.LBB76_6
# %bb.51:                               #   in Loop: Header=BB76_1 Depth=1
	movl	$.L.str.274, (%esp)
	calll	printf@PLT
	movl	$.L.str.275, (%esp)
	calll	printf@PLT
	movl	$.L.str.58, (%esp)
	calll	printf@PLT
	movl	$.L.str.59, (%esp)
	calll	printf@PLT
	movl	$.L.str.116, (%esp)
	calll	printf@PLT
	movl	$.L.str.114, (%esp)
	calll	printf@PLT
	movl	%edi, (%esp)
	calll	FF_function_251
	subl	$4, %esp
	movl	$.L.str.115, (%esp)
	calll	printf@PLT
	movl	$.L.str.117, (%esp)
	calll	printf@PLT
	fldl	36(%esp)                        # 8-byte Folded Reload
	fmull	.LCPI76_1
	fstps	52(%esp)
	flds	52(%esp)
	flds	32(%esp)                        # 4-byte Folded Reload
	fxch	%st(1)
	fucomi	%st(1), %st
	fstp	%st(1)
	jne	.LBB76_1
	jp	.LBB76_1
	jmp	.LBB76_52
.LBB76_4:
	movl	$.L.str.224, %eax
	jmp	.LBB76_53
.LBB76_6:
	movl	$.L.str.226, (%esp)
	calll	printf@PLT
	movl	$.L.str.227, (%esp)
	calll	printf@PLT
	movl	$.L.str.131, (%esp)
	calll	printf@PLT
	movl	$.L.str.132, (%esp)
	calll	printf@PLT
	movl	stdin, %eax
	movl	%eax, (%esp)
	calll	getc@PLT
	cmpl	$31, %eax
	je	.LBB76_54
# %bb.7:
	flds	.LCPI76_3
	fstps	44(%esp)                        # 4-byte Folded Spill
	flds	.LCPI76_4
	fstps	32(%esp)                        # 4-byte Folded Spill
.LBB76_8:                               # =>This Loop Header: Depth=1
                                        #     Child Loop BB76_10 Depth 2
                                        #       Child Loop BB76_14 Depth 3
                                        #         Child Loop BB76_15 Depth 4
                                        #       Child Loop BB76_25 Depth 3
                                        #       Child Loop BB76_34 Depth 3
                                        #         Child Loop BB76_35 Depth 4
	movl	$.L.str.65, (%esp)
	calll	printf@PLT
	movl	$.L.str.66, (%esp)
	calll	printf@PLT
	movl	$.L.str.228, (%esp)
	calll	printf@PLT
	movl	$6955, 4(%esp)                  # imm = 0x1B2B
	movl	$.L.str.229, (%esp)
	calll	printf@PLT
	movl	$.L.str.230, (%esp)
	calll	printf@PLT
	movl	stdin, %eax
	movl	%eax, (%esp)
	calll	getc@PLT
	cmpl	$23, %eax
	jne	.LBB76_9
.LBB76_48:                              #   in Loop: Header=BB76_8 Depth=1
	movl	$.L.str.272, (%esp)
	calll	printf@PLT
	movl	$0, 8(%esp)
	movl	$0, 4(%esp)
	movl	$0, (%esp)
	calll	FF_function_238
	movl	$.L.str.95, (%esp)
	calll	printf@PLT
	movl	$.L.str.93, (%esp)
	calll	printf@PLT
	movl	%edi, (%esp)
	calll	FF_function_264
	subl	$4, %esp
	movl	$.L.str.94, (%esp)
	calll	printf@PLT
	movl	stdin, %eax
	movl	%eax, (%esp)
	calll	getc@PLT
	cmpl	$67, %eax
	je	.LBB76_50
# %bb.49:                               #   in Loop: Header=BB76_8 Depth=1
	movl	$.L.str.273, (%esp)
	calll	printf@PLT
.LBB76_50:                              #   in Loop: Header=BB76_8 Depth=1
	movl	$.L.str.227, (%esp)
	calll	printf@PLT
	movl	$.L.str.131, (%esp)
	calll	printf@PLT
	movl	$.L.str.132, (%esp)
	calll	printf@PLT
	movl	stdin, %eax
	movl	%eax, (%esp)
	calll	getc@PLT
	cmpl	$31, %eax
	jne	.LBB76_8
	jmp	.LBB76_54
.LBB76_9:                               # %.preheader9
                                        #   in Loop: Header=BB76_8 Depth=1
	movl	$6955, %ebx                     # imm = 0x1B2B
.LBB76_10:                              #   Parent Loop BB76_8 Depth=1
                                        # =>  This Loop Header: Depth=2
                                        #       Child Loop BB76_14 Depth 3
                                        #         Child Loop BB76_15 Depth 4
                                        #       Child Loop BB76_25 Depth 3
                                        #       Child Loop BB76_34 Depth 3
                                        #         Child Loop BB76_35 Depth 4
	movl	stdin, %eax
	movl	%eax, (%esp)
	calll	getc@PLT
	cmpl	$97, %eax
	je	.LBB76_55
# %bb.11:                               #   in Loop: Header=BB76_10 Depth=2
	movl	stdin, %eax
	movl	%eax, (%esp)
	calll	getc@PLT
	cmpl	$31, %eax
	je	.LBB76_54
# %bb.12:                               #   in Loop: Header=BB76_10 Depth=2
	movl	$.L.str.231, (%esp)
	calll	printf@PLT
	movl	stdin, %eax
	movl	%eax, (%esp)
	calll	getc@PLT
	cmpl	$79, %eax
	jne	.LBB76_23
# %bb.13:                               #   in Loop: Header=BB76_10 Depth=2
	movl	$.L.str.232, (%esp)
	.p2align	4, 0x90
.LBB76_14:                              #   Parent Loop BB76_8 Depth=1
                                        #     Parent Loop BB76_10 Depth=2
                                        # =>    This Loop Header: Depth=3
                                        #         Child Loop BB76_15 Depth 4
	calll	printf@PLT
.LBB76_15:                              #   Parent Loop BB76_8 Depth=1
                                        #     Parent Loop BB76_10 Depth=2
                                        #       Parent Loop BB76_14 Depth=3
                                        # =>      This Inner Loop Header: Depth=4
	movl	$.L.str.233, (%esp)
	calll	printf@PLT
	movl	$0, (%esp)
	calll	CF_function_294
	movl	stdin, %eax
	movl	%eax, (%esp)
	calll	getc@PLT
	cmpl	$97, %eax
	je	.LBB76_55
# %bb.16:                               #   in Loop: Header=BB76_15 Depth=4
	movl	stdin, %eax
	movl	%eax, (%esp)
	calll	getc@PLT
	cmpl	$83, %eax
	je	.LBB76_17
# %bb.18:                               #   in Loop: Header=BB76_15 Depth=4
	movl	stdin, %eax
	movl	%eax, (%esp)
	calll	getc@PLT
	cmpl	$73, %eax
	je	.LBB76_19
# %bb.21:                               #   in Loop: Header=BB76_15 Depth=4
	calll	FF_function_243
	movl	stdin, %eax
	movl	%eax, (%esp)
	calll	getc@PLT
	cmpl	$67, %eax
	je	.LBB76_15
# %bb.22:                               #   in Loop: Header=BB76_14 Depth=3
	movl	$.L.str.60, (%esp)
	jmp	.LBB76_14
.LBB76_23:                              #   in Loop: Header=BB76_10 Depth=2
	movl	$.L.str.236, (%esp)
	calll	printf@PLT
	movl	$.L.str.237, %eax
	jmp	.LBB76_24
.LBB76_17:                              #   in Loop: Header=BB76_10 Depth=2
	movl	$.L.str.234, %eax
.LBB76_24:                              #   in Loop: Header=BB76_10 Depth=2
	movl	%eax, (%esp)
	calll	printf@PLT
	movl	$.L.str.238, (%esp)
	calll	printf@PLT
	movl	$.L.str.239, (%esp)
	calll	printf@PLT
	movl	stdin, %eax
	movl	%eax, (%esp)
	calll	getc@PLT
	movl	$.L.str.239, (%esp)
	calll	printf@PLT
	movl	stdin, %eax
	movl	%eax, (%esp)
	calll	getc@PLT
	movl	$.L.str.239, (%esp)
	calll	printf@PLT
	movl	stdin, %eax
	movl	%eax, (%esp)
	calll	getc@PLT
	movl	$.L.str.239, (%esp)
	calll	printf@PLT
	movl	stdin, %eax
	movl	%eax, (%esp)
	calll	getc@PLT
	movl	$.L.str.239, (%esp)
	calll	printf@PLT
	movl	stdin, %eax
	movl	%eax, (%esp)
	calll	getc@PLT
	movl	$.L.str.239, (%esp)
	calll	printf@PLT
	movl	stdin, %eax
	movl	%eax, (%esp)
	calll	getc@PLT
	movl	$.L.str.239, (%esp)
	calll	printf@PLT
	movl	stdin, %eax
	movl	%eax, (%esp)
	calll	getc@PLT
	movl	$.L.str.239, (%esp)
	calll	printf@PLT
	movl	stdin, %eax
	movl	%eax, (%esp)
	calll	getc@PLT
	movl	$.L.str.239, (%esp)
	calll	printf@PLT
	movl	stdin, %eax
	movl	%eax, (%esp)
	calll	getc@PLT
	movl	$.L.str.239, (%esp)
	calll	printf@PLT
	movl	stdin, %eax
	movl	%eax, (%esp)
	calll	getc@PLT
	movl	$.L.str.239, (%esp)
	calll	printf@PLT
	movl	stdin, %eax
	movl	%eax, (%esp)
	calll	getc@PLT
	movl	$.L.str.239, (%esp)
	calll	printf@PLT
	movl	stdin, %eax
	movl	%eax, (%esp)
	calll	getc@PLT
	movl	$.L.str.239, (%esp)
	calll	printf@PLT
	movl	stdin, %eax
	movl	%eax, (%esp)
	calll	getc@PLT
	movl	$.L.str.240, (%esp)
	calll	printf@PLT
	movl	$.L.str.72, (%esp)
	calll	printf@PLT
	calll	rand@PLT
	movl	$.L.str.241, (%esp)
	calll	printf@PLT
	movl	$2685, 4(%esp)                  # imm = 0xA7D
	movl	$.L.str.242, (%esp)
	calll	printf@PLT
	movl	stdin, %eax
	movl	%eax, (%esp)
	calll	getc@PLT
	movl	$2686, 4(%esp)                  # imm = 0xA7E
	movl	$.L.str.242, (%esp)
	calll	printf@PLT
	movl	stdin, %eax
	movl	%eax, (%esp)
	calll	getc@PLT
	movl	$2687, 4(%esp)                  # imm = 0xA7F
	movl	$.L.str.242, (%esp)
	calll	printf@PLT
	movl	stdin, %eax
	movl	%eax, (%esp)
	calll	getc@PLT
	movl	$2688, 4(%esp)                  # imm = 0xA80
	movl	$.L.str.242, (%esp)
	calll	printf@PLT
	movl	stdin, %eax
	movl	%eax, (%esp)
	calll	getc@PLT
	movl	$2689, 4(%esp)                  # imm = 0xA81
	movl	$.L.str.242, (%esp)
	calll	printf@PLT
	movl	stdin, %eax
	movl	%eax, (%esp)
	calll	getc@PLT
	movl	$2690, 4(%esp)                  # imm = 0xA82
	movl	$.L.str.242, (%esp)
	calll	printf@PLT
	movl	stdin, %eax
	movl	%eax, (%esp)
	calll	getc@PLT
	movl	$2691, 4(%esp)                  # imm = 0xA83
	movl	$.L.str.242, (%esp)
	calll	printf@PLT
	movl	stdin, %eax
	movl	%eax, (%esp)
	calll	getc@PLT
	movl	$2692, 4(%esp)                  # imm = 0xA84
	movl	$.L.str.242, (%esp)
	calll	printf@PLT
	movl	stdin, %eax
	movl	%eax, (%esp)
	calll	getc@PLT
	movl	$2693, 4(%esp)                  # imm = 0xA85
	movl	$.L.str.242, (%esp)
	calll	printf@PLT
	movl	stdin, %eax
	movl	%eax, (%esp)
	calll	getc@PLT
	movl	$2694, 4(%esp)                  # imm = 0xA86
	movl	$.L.str.242, (%esp)
	calll	printf@PLT
	movl	stdin, %eax
	movl	%eax, (%esp)
	calll	getc@PLT
	movl	$2695, 4(%esp)                  # imm = 0xA87
	movl	$.L.str.242, (%esp)
	calll	printf@PLT
	movl	stdin, %eax
	movl	%eax, (%esp)
	calll	getc@PLT
	movl	$2696, 4(%esp)                  # imm = 0xA88
	movl	$.L.str.242, (%esp)
	calll	printf@PLT
	movl	stdin, %eax
	movl	%eax, (%esp)
	calll	getc@PLT
	movl	$.L.str.243, (%esp)
	calll	printf@PLT
	movl	$.L.str.244, (%esp)
	calll	printf@PLT
	movl	$.L.str.245, (%esp)
	calll	printf@PLT
	movl	$1084301865, 8(%esp)            # imm = 0x40A12229
	movl	$0, 4(%esp)
	movl	$.L.str.246, (%esp)
	calll	printf@PLT
	movl	stdin, %eax
	movl	%eax, (%esp)
	calll	getc@PLT
	movl	$1084299945, 8(%esp)            # imm = 0x40A11AA9
	movl	$0, 4(%esp)
	movl	$.L.str.246, (%esp)
	calll	printf@PLT
	movl	stdin, %eax
	movl	%eax, (%esp)
	calll	getc@PLT
	movl	$1084298025, 8(%esp)            # imm = 0x40A11329
	movl	$0, 4(%esp)
	movl	$.L.str.246, (%esp)
	calll	printf@PLT
	movl	stdin, %eax
	movl	%eax, (%esp)
	calll	getc@PLT
	movl	$1084296105, 8(%esp)            # imm = 0x40A10BA9
	movl	$0, 4(%esp)
	movl	$.L.str.246, (%esp)
	calll	printf@PLT
	movl	stdin, %eax
	movl	%eax, (%esp)
	calll	getc@PLT
	movl	$1084294185, 8(%esp)            # imm = 0x40A10429
	movl	$0, 4(%esp)
	movl	$.L.str.246, (%esp)
	calll	printf@PLT
	movl	stdin, %eax
	movl	%eax, (%esp)
	calll	getc@PLT
	movl	$1084292265, 8(%esp)            # imm = 0x40A0FCA9
	movl	$0, 4(%esp)
	movl	$.L.str.246, (%esp)
	calll	printf@PLT
	movl	stdin, %eax
	movl	%eax, (%esp)
	calll	getc@PLT
	movl	$1084290345, 8(%esp)            # imm = 0x40A0F529
	movl	$0, 4(%esp)
	movl	$.L.str.246, (%esp)
	calll	printf@PLT
	movl	stdin, %eax
	movl	%eax, (%esp)
	calll	getc@PLT
	movl	$1084288425, 8(%esp)            # imm = 0x40A0EDA9
	movl	$0, 4(%esp)
	movl	$.L.str.246, (%esp)
	calll	printf@PLT
	movl	stdin, %eax
	movl	%eax, (%esp)
	calll	getc@PLT
	movl	$1084286505, 8(%esp)            # imm = 0x40A0E629
	movl	$0, 4(%esp)
	movl	$.L.str.246, (%esp)
	calll	printf@PLT
	movl	stdin, %eax
	movl	%eax, (%esp)
	calll	getc@PLT
	movl	$.L.str.247, (%esp)
	calll	printf@PLT
	movl	$.L.str.248, (%esp)
	calll	printf@PLT
	movl	$.L.str.249, (%esp)
	calll	printf@PLT
	movl	$1084624650, 8(%esp)            # imm = 0x40A60F0A
	movl	$1073741824, 4(%esp)            # imm = 0x40000000
	movl	$.L.str.250, (%esp)
	calll	printf@PLT
	movl	stdin, %eax
	movl	%eax, (%esp)
	calll	getc@PLT
	movl	$1084625162, 8(%esp)            # imm = 0x40A6110A
	movl	$1073741824, 4(%esp)            # imm = 0x40000000
	movl	$.L.str.250, (%esp)
	calll	printf@PLT
	movl	stdin, %eax
	movl	%eax, (%esp)
	calll	getc@PLT
	movl	$1084625674, 8(%esp)            # imm = 0x40A6130A
	movl	$1073741824, 4(%esp)            # imm = 0x40000000
	movl	$.L.str.250, (%esp)
	calll	printf@PLT
	movl	stdin, %eax
	movl	%eax, (%esp)
	calll	getc@PLT
	movl	$1084626186, 8(%esp)            # imm = 0x40A6150A
	movl	$1073741824, 4(%esp)            # imm = 0x40000000
	movl	$.L.str.250, (%esp)
	calll	printf@PLT
	movl	stdin, %eax
	movl	%eax, (%esp)
	calll	getc@PLT
	movl	$1084626698, 8(%esp)            # imm = 0x40A6170A
	movl	$1073741824, 4(%esp)            # imm = 0x40000000
	movl	$.L.str.250, (%esp)
	calll	printf@PLT
	movl	stdin, %eax
	movl	%eax, (%esp)
	calll	getc@PLT
	movl	$1084627210, 8(%esp)            # imm = 0x40A6190A
	movl	$1073741824, 4(%esp)            # imm = 0x40000000
	movl	$.L.str.250, (%esp)
	calll	printf@PLT
	movl	stdin, %eax
	movl	%eax, (%esp)
	calll	getc@PLT
	movl	$1084627722, 8(%esp)            # imm = 0x40A61B0A
	movl	$1073741824, 4(%esp)            # imm = 0x40000000
	movl	$.L.str.250, (%esp)
	calll	printf@PLT
	movl	stdin, %eax
	movl	%eax, (%esp)
	calll	getc@PLT
	movl	$1084628234, 8(%esp)            # imm = 0x40A61D0A
	movl	$1073741824, 4(%esp)            # imm = 0x40000000
	movl	$.L.str.250, (%esp)
	calll	printf@PLT
	movl	stdin, %eax
	movl	%eax, (%esp)
	calll	getc@PLT
	movl	$1084628746, 8(%esp)            # imm = 0x40A61F0A
	movl	$1073741824, 4(%esp)            # imm = 0x40000000
	movl	$.L.str.250, (%esp)
	calll	printf@PLT
	movl	stdin, %eax
	movl	%eax, (%esp)
	calll	getc@PLT
	movl	$1084629258, 8(%esp)            # imm = 0x40A6210A
	movl	$1073741824, 4(%esp)            # imm = 0x40000000
	movl	$.L.str.250, (%esp)
	calll	printf@PLT
	movl	stdin, %eax
	movl	%eax, (%esp)
	calll	getc@PLT
	movl	$.L.str.251, (%esp)
	calll	printf@PLT
	movl	$.L.str.252, (%esp)
	calll	printf@PLT
	movl	$.L.str.253, (%esp)
	calll	printf@PLT
	flds	44(%esp)                        # 4-byte Folded Reload
	jmp	.LBB76_25
	.p2align	4, 0x90
.LBB76_31:                              #   in Loop: Header=BB76_25 Depth=3
	calll	FF_function_241
	movl	stdin, %eax
	movl	%eax, (%esp)
	calll	getc@PLT
	movl	%eax, 48(%esp)
	fldl	36(%esp)                        # 8-byte Folded Reload
	fiaddl	48(%esp)
.LBB76_32:                              #   in Loop: Header=BB76_25 Depth=3
	flds	32(%esp)                        # 4-byte Folded Reload
	fxch	%st(1)
	fucomi	%st(1), %st
	fstp	%st(1)
	jne	.LBB76_25
	jnp	.LBB76_33
.LBB76_25:                              #   Parent Loop BB76_8 Depth=1
                                        #     Parent Loop BB76_10 Depth=2
                                        # =>    This Inner Loop Header: Depth=3
	fstl	36(%esp)                        # 8-byte Folded Spill
	fstpl	4(%esp)
	movl	$.L.str.254, (%esp)
	calll	printf@PLT
	movl	$.L.str.255, (%esp)
	calll	printf@PLT
	movl	stdin, %eax
	movl	%eax, (%esp)
	calll	getc@PLT
	cmpl	$23, %eax
	fldz
	je	.LBB76_33
# %bb.26:                               #   in Loop: Header=BB76_25 Depth=3
	fstp	%st(0)
	movl	stdin, %eax
	movl	%eax, (%esp)
	calll	getc@PLT
	cmpl	$97, %eax
	je	.LBB76_55
# %bb.27:                               #   in Loop: Header=BB76_25 Depth=3
	movl	stdin, %eax
	movl	%eax, (%esp)
	calll	getc@PLT
	cmpl	$73, %eax
	je	.LBB76_28
# %bb.29:                               #   in Loop: Header=BB76_25 Depth=3
	movl	$.L.str.131, (%esp)
	calll	printf@PLT
	movl	$.L.str.132, (%esp)
	calll	printf@PLT
	movl	stdin, %eax
	movl	%eax, (%esp)
	calll	getc@PLT
	cmpl	$67, %eax
	jne	.LBB76_31
# %bb.30:                               #   in Loop: Header=BB76_25 Depth=3
	fldl	36(%esp)                        # 8-byte Folded Reload
	jmp	.LBB76_32
.LBB76_33:                              #   in Loop: Header=BB76_10 Depth=2
	fstp	%st(0)
	movl	$.L.str.257, (%esp)
	calll	printf@PLT
	movl	$.L.str.258, (%esp)
	calll	printf@PLT
	movl	$.L.str.259, (%esp)
.LBB76_34:                              #   Parent Loop BB76_8 Depth=1
                                        #     Parent Loop BB76_10 Depth=2
                                        # =>    This Loop Header: Depth=3
                                        #         Child Loop BB76_35 Depth 4
	calll	printf@PLT
.LBB76_35:                              #   Parent Loop BB76_8 Depth=1
                                        #     Parent Loop BB76_10 Depth=2
                                        #       Parent Loop BB76_34 Depth=3
                                        # =>      This Inner Loop Header: Depth=4
	movl	$.L.str.260, (%esp)
	calll	printf@PLT
	movl	$.L.str.261, (%esp)
	calll	printf@PLT
	movl	stdin, %eax
	movl	%eax, (%esp)
	calll	getc@PLT
	cmpl	$23, %eax
	je	.LBB76_44
# %bb.36:                               #   in Loop: Header=BB76_35 Depth=4
	movl	stdin, %eax
	movl	%eax, (%esp)
	calll	getc@PLT
	cmpl	$31, %eax
	je	.LBB76_54
# %bb.37:                               #   in Loop: Header=BB76_35 Depth=4
	movl	stdin, %eax
	movl	%eax, (%esp)
	calll	getc@PLT
	cmpl	$19, %eax
	je	.LBB76_44
# %bb.38:                               #   in Loop: Header=BB76_35 Depth=4
	movl	stdin, %eax
	movl	%eax, (%esp)
	calll	getc@PLT
	cmpl	$83, %eax
	je	.LBB76_39
# %bb.40:                               #   in Loop: Header=BB76_35 Depth=4
	movl	stdin, %eax
	movl	%eax, (%esp)
	calll	getc@PLT
	cmpl	$73, %eax
	je	.LBB76_41
# %bb.42:                               #   in Loop: Header=BB76_35 Depth=4
	movl	$.L.str.264, (%esp)
	calll	printf@PLT
	movl	stdin, %eax
	movl	%eax, (%esp)
	calll	getc@PLT
	cmpl	$67, %eax
	je	.LBB76_35
# %bb.43:                               #   in Loop: Header=BB76_34 Depth=3
	movl	$.L.str.265, (%esp)
	jmp	.LBB76_34
.LBB76_44:                              #   in Loop: Header=BB76_10 Depth=2
	movl	$.L.str.266, (%esp)
	calll	printf@PLT
	movl	$.L.str.267, %eax
.LBB76_45:                              #   in Loop: Header=BB76_10 Depth=2
	movl	%eax, (%esp)
	calll	printf@PLT
	movl	$.L.str.268, (%esp)
	calll	printf@PLT
	movl	$2136, 4(%esp)                  # imm = 0x858
	movl	$.L.str.269, (%esp)
	calll	printf@PLT
	movl	stdin, %eax
	movl	%eax, (%esp)
	calll	getc@PLT
	movl	$2137, 4(%esp)                  # imm = 0x859
	movl	$.L.str.269, (%esp)
	calll	printf@PLT
	movl	stdin, %eax
	movl	%eax, (%esp)
	calll	getc@PLT
	movl	$2138, 4(%esp)                  # imm = 0x85A
	movl	$.L.str.269, (%esp)
	calll	printf@PLT
	movl	stdin, %eax
	movl	%eax, (%esp)
	calll	getc@PLT
	movl	$2139, 4(%esp)                  # imm = 0x85B
	movl	$.L.str.269, (%esp)
	calll	printf@PLT
	movl	stdin, %eax
	movl	%eax, (%esp)
	calll	getc@PLT
	movl	$2140, 4(%esp)                  # imm = 0x85C
	movl	$.L.str.269, (%esp)
	calll	printf@PLT
	movl	stdin, %eax
	movl	%eax, (%esp)
	calll	getc@PLT
	movl	$.L.str.270, (%esp)
	calll	printf@PLT
	movl	$.L.str.271, (%esp)
	calll	printf@PLT
	movl	stdin, %eax
	movl	%eax, (%esp)
	calll	getc@PLT
	cmpl	$17, %eax
	je	.LBB76_47
# %bb.46:                               #   in Loop: Header=BB76_10 Depth=2
	movl	$.L.str.60, (%esp)
	calll	printf@PLT
.LBB76_47:                              #   in Loop: Header=BB76_10 Depth=2
	decl	%ebx
	movl	%ebx, 4(%esp)
	movl	$.L.str.229, (%esp)
	calll	printf@PLT
	movl	$.L.str.230, (%esp)
	calll	printf@PLT
	movl	stdin, %eax
	movl	%eax, (%esp)
	calll	getc@PLT
	cmpl	$23, %eax
	jne	.LBB76_10
	jmp	.LBB76_48
.LBB76_39:                              #   in Loop: Header=BB76_10 Depth=2
	movl	$.L.str.262, %eax
	jmp	.LBB76_45
.LBB76_28:
	movl	$.L.str.256, %eax
	jmp	.LBB76_20
.LBB76_19:
	movl	$.L.str.235, %eax
.LBB76_20:
	movl	%eax, (%esp)
	calll	printf@PLT
	fldz
.LBB76_52:
	fstp	%st(0)
	movl	$.L.str.276, (%esp)
	calll	printf@PLT
	movl	$.L.str.277, %eax
.LBB76_53:
	movl	%eax, (%esp)
	calll	printf@PLT
	movl	$.L.str.278, (%esp)
	calll	printf@PLT
	movl	$0, 4(%esi)
	movl	$0, (%esi)
.LBB76_54:
	movl	%esi, %eax
	addl	$64, %esp
	.cfi_def_cfa_offset 16
	popl	%esi
	.cfi_def_cfa_offset 12
	popl	%edi
	.cfi_def_cfa_offset 8
	popl	%ebx
	.cfi_def_cfa_offset 4
	retl	$4
.LBB76_41:
	.cfi_def_cfa_offset 80
	movl	$.L.str.263, %eax
	jmp	.LBB76_20
.LBB76_55:
	movl	$1923, (%esp)                   # imm = 0x783
	calll	exit@PLT
.Lfunc_end76:
	.size	CF_function_297, .Lfunc_end76-CF_function_297
	.cfi_endproc
                                        # -- End function
	.globl	CF_function_299                 # -- Begin function CF_function_299
	.p2align	4, 0x90
	.type	CF_function_299,@function
CF_function_299:                        # @CF_function_299
	.cfi_startproc
# %bb.0:
	pushl	%ebx
	.cfi_def_cfa_offset 8
	pushl	%edi
	.cfi_def_cfa_offset 12
	pushl	%esi
	.cfi_def_cfa_offset 16
	subl	$32, %esp
	.cfi_def_cfa_offset 48
	.cfi_offset %esi, -16
	.cfi_offset %edi, -12
	.cfi_offset %ebx, -8
	movl	48(%esp), %esi
	movl	$.L.str.279, (%esp)
	calll	printf@PLT
	movl	stdin, %eax
	movl	%eax, (%esp)
	calll	getc@PLT
	cmpl	$79, %eax
	jne	.LBB77_23
# %bb.1:
	movl	$.L.str.280, (%esp)
	calll	printf@PLT
	movl	$.L.str.281, (%esp)
	calll	printf@PLT
	movl	$.L.str.282, (%esp)
	calll	printf@PLT
	movl	stdin, %eax
	movl	%eax, (%esp)
	calll	getc@PLT
	cmpl	$97, %eax
	je	.LBB77_34
# %bb.2:
	leal	24(%esp), %edi
.LBB77_3:                               # =>This Loop Header: Depth=1
                                        #     Child Loop BB77_4 Depth 2
                                        #       Child Loop BB77_11 Depth 3
                                        #         Child Loop BB77_14 Depth 4
                                        #           Child Loop BB77_15 Depth 5
                                        #             Child Loop BB77_21 Depth 6
	movl	$.L.str.72, (%esp)
	calll	printf@PLT
	calll	rand@PLT
	movl	$.L.str.283, (%esp)
	calll	printf@PLT
.LBB77_4:                               #   Parent Loop BB77_3 Depth=1
                                        # =>  This Loop Header: Depth=2
                                        #       Child Loop BB77_11 Depth 3
                                        #         Child Loop BB77_14 Depth 4
                                        #           Child Loop BB77_15 Depth 5
                                        #             Child Loop BB77_21 Depth 6
	movl	$.L.str.284, (%esp)
	calll	printf@PLT
	movl	$0, (%esp)
	calll	CF_function_294
	movl	stdin, %eax
	movl	%eax, (%esp)
	calll	getc@PLT
	cmpl	$23, %eax
	je	.LBB77_32
# %bb.5:                                #   in Loop: Header=BB77_4 Depth=2
	movl	stdin, %eax
	movl	%eax, (%esp)
	calll	getc@PLT
	cmpl	$97, %eax
	je	.LBB77_34
# %bb.6:                                #   in Loop: Header=BB77_4 Depth=2
	movl	stdin, %eax
	movl	%eax, (%esp)
	calll	getc@PLT
	cmpl	$31, %eax
	je	.LBB77_24
# %bb.7:                                #   in Loop: Header=BB77_4 Depth=2
	movl	stdin, %eax
	movl	%eax, (%esp)
	calll	getc@PLT
	cmpl	$19, %eax
	je	.LBB77_32
# %bb.8:                                #   in Loop: Header=BB77_4 Depth=2
	movl	stdin, %eax
	movl	%eax, (%esp)
	calll	getc@PLT
	cmpl	$83, %eax
	je	.LBB77_9
# %bb.10:                               #   in Loop: Header=BB77_4 Depth=2
	movl	$.L.str.286, (%esp)
	calll	printf@PLT
	movl	$.L.str.287, (%esp)
	jmp	.LBB77_11
	.p2align	4, 0x90
.LBB77_29:                              #   in Loop: Header=BB77_11 Depth=3
	movl	$.L.str.306, (%esp)
	calll	printf@PLT
	movl	$.L.str.307, (%esp)
	calll	printf@PLT
	movl	$.L.str.100, (%esp)
	calll	printf@PLT
	movl	$.L.str.98, (%esp)
	calll	printf@PLT
	movl	$.L.str.96, (%esp)
	calll	printf@PLT
	movl	$.L.str.95, (%esp)
	calll	printf@PLT
	movl	$.L.str.93, (%esp)
	calll	printf@PLT
	movl	%edi, (%esp)
	calll	FF_function_264
	subl	$4, %esp
	movl	$.L.str.94, (%esp)
	calll	printf@PLT
	movl	$.L.str.97, (%esp)
	calll	printf@PLT
	movl	$.L.str.99, (%esp)
	calll	printf@PLT
	movl	$.L.str.101, (%esp)
.LBB77_11:                              #   Parent Loop BB77_3 Depth=1
                                        #     Parent Loop BB77_4 Depth=2
                                        # =>    This Loop Header: Depth=3
                                        #         Child Loop BB77_14 Depth 4
                                        #           Child Loop BB77_15 Depth 5
                                        #             Child Loop BB77_21 Depth 6
	calll	printf@PLT
	movl	$.L.str.288, (%esp)
	calll	printf@PLT
	movl	$.L.str.77, (%esp)
	calll	printf@PLT
	movl	$.L.str.72, (%esp)
	calll	printf@PLT
	calll	rand@PLT
	movl	$.L.str.75, (%esp)
	calll	printf@PLT
	movl	$.L.str.73, (%esp)
	calll	printf@PLT
	movl	$.L.str.74, (%esp)
	calll	printf@PLT
	movl	$.L.str.76, (%esp)
	calll	printf@PLT
	movl	$.L.str.78, (%esp)
	calll	printf@PLT
	movl	stdin, %eax
	movl	%eax, (%esp)
	calll	getc@PLT
	cmpl	$23, %eax
	je	.LBB77_30
# %bb.12:                               #   in Loop: Header=BB77_11 Depth=3
	movl	stdin, %eax
	movl	%eax, (%esp)
	calll	getc@PLT
	cmpl	$31, %eax
	je	.LBB77_24
# %bb.13:                               #   in Loop: Header=BB77_11 Depth=3
	movl	$.L.str.289, (%esp)
	calll	printf@PLT
	movl	$.L.str.290, (%esp)
.LBB77_14:                              #   Parent Loop BB77_3 Depth=1
                                        #     Parent Loop BB77_4 Depth=2
                                        #       Parent Loop BB77_11 Depth=3
                                        # =>      This Loop Header: Depth=4
                                        #           Child Loop BB77_15 Depth 5
                                        #             Child Loop BB77_21 Depth 6
	calll	printf@PLT
.LBB77_15:                              #   Parent Loop BB77_3 Depth=1
                                        #     Parent Loop BB77_4 Depth=2
                                        #       Parent Loop BB77_11 Depth=3
                                        #         Parent Loop BB77_14 Depth=4
                                        # =>        This Loop Header: Depth=5
                                        #             Child Loop BB77_21 Depth 6
	movl	$.L.str.291, (%esp)
	calll	printf@PLT
	movl	$.L.str.292, (%esp)
	calll	printf@PLT
	movl	stdin, %eax
	movl	%eax, (%esp)
	calll	getc@PLT
	cmpl	$23, %eax
	je	.LBB77_29
# %bb.16:                               #   in Loop: Header=BB77_15 Depth=5
	movl	stdin, %eax
	movl	%eax, (%esp)
	calll	getc@PLT
	cmpl	$97, %eax
	je	.LBB77_34
# %bb.17:                               #   in Loop: Header=BB77_15 Depth=5
	movl	stdin, %eax
	movl	%eax, (%esp)
	calll	getc@PLT
	cmpl	$31, %eax
	je	.LBB77_24
# %bb.18:                               #   in Loop: Header=BB77_15 Depth=5
	movl	$.L.str.293, (%esp)
	calll	printf@PLT
	movl	stdin, %eax
	movl	%eax, (%esp)
	calll	getc@PLT
	cmpl	$79, %eax
	jne	.LBB77_26
# %bb.19:                               #   in Loop: Header=BB77_15 Depth=5
	movl	$.L.str.294, (%esp)
	calll	printf@PLT
	movl	$.L.str.295, (%esp)
	calll	printf@PLT
	movl	$.L.str.296, (%esp)
	calll	printf@PLT
	movl	stdin, %eax
	movl	%eax, (%esp)
	calll	getc@PLT
	movl	$.L.str.297, %ebx
	cmpl	$83, %eax
	je	.LBB77_27
	.p2align	4, 0x90
.LBB77_21:                              #   Parent Loop BB77_3 Depth=1
                                        #     Parent Loop BB77_4 Depth=2
                                        #       Parent Loop BB77_11 Depth=3
                                        #         Parent Loop BB77_14 Depth=4
                                        #           Parent Loop BB77_15 Depth=5
                                        # =>          This Inner Loop Header: Depth=6
	movl	stdin, %eax
	movl	%eax, (%esp)
	calll	getc@PLT
	cmpl	$73, %eax
	je	.LBB77_22
# %bb.25:                               #   in Loop: Header=BB77_21 Depth=6
	movl	$.L.str.299, (%esp)
	calll	printf@PLT
	movl	$.L.str.77, (%esp)
	calll	printf@PLT
	movl	$.L.str.72, (%esp)
	calll	printf@PLT
	calll	rand@PLT
	movl	$.L.str.75, (%esp)
	calll	printf@PLT
	movl	$.L.str.73, (%esp)
	calll	printf@PLT
	movl	$.L.str.74, (%esp)
	calll	printf@PLT
	movl	$.L.str.76, (%esp)
	calll	printf@PLT
	movl	$.L.str.78, (%esp)
	calll	printf@PLT
	movl	$.L.str.295, (%esp)
	calll	printf@PLT
	movl	$.L.str.296, (%esp)
	calll	printf@PLT
	movl	stdin, %eax
	movl	%eax, (%esp)
	calll	getc@PLT
	cmpl	$83, %eax
	jne	.LBB77_21
	jmp	.LBB77_27
	.p2align	4, 0x90
.LBB77_26:                              #   in Loop: Header=BB77_15 Depth=5
	movl	$.L.str.300, (%esp)
	calll	printf@PLT
	movl	$.L.str.301, %ebx
.LBB77_27:                              #   in Loop: Header=BB77_15 Depth=5
	movl	%ebx, (%esp)
	calll	printf@PLT
	movl	$.L.str.302, (%esp)
	calll	printf@PLT
	movl	$.L.str.303, (%esp)
	calll	printf@PLT
	movl	stdin, %eax
	movl	%eax, (%esp)
	calll	getc@PLT
	movl	$.L.str.303, (%esp)
	calll	printf@PLT
	movl	stdin, %eax
	movl	%eax, (%esp)
	calll	getc@PLT
	movl	$.L.str.303, (%esp)
	calll	printf@PLT
	movl	stdin, %eax
	movl	%eax, (%esp)
	calll	getc@PLT
	movl	$.L.str.303, (%esp)
	calll	printf@PLT
	movl	stdin, %eax
	movl	%eax, (%esp)
	calll	getc@PLT
	movl	$.L.str.303, (%esp)
	calll	printf@PLT
	movl	stdin, %eax
	movl	%eax, (%esp)
	calll	getc@PLT
	movl	$.L.str.303, (%esp)
	calll	printf@PLT
	movl	stdin, %eax
	movl	%eax, (%esp)
	calll	getc@PLT
	movl	$.L.str.303, (%esp)
	calll	printf@PLT
	movl	stdin, %eax
	movl	%eax, (%esp)
	calll	getc@PLT
	movl	$.L.str.303, (%esp)
	calll	printf@PLT
	movl	stdin, %eax
	movl	%eax, (%esp)
	calll	getc@PLT
	movl	$.L.str.303, (%esp)
	calll	printf@PLT
	movl	stdin, %eax
	movl	%eax, (%esp)
	calll	getc@PLT
	movl	$.L.str.303, (%esp)
	calll	printf@PLT
	movl	stdin, %eax
	movl	%eax, (%esp)
	calll	getc@PLT
	movl	$.L.str.303, (%esp)
	calll	printf@PLT
	movl	stdin, %eax
	movl	%eax, (%esp)
	calll	getc@PLT
	movl	$.L.str.303, (%esp)
	calll	printf@PLT
	movl	stdin, %eax
	movl	%eax, (%esp)
	calll	getc@PLT
	movl	$.L.str.303, (%esp)
	calll	printf@PLT
	movl	stdin, %eax
	movl	%eax, (%esp)
	calll	getc@PLT
	movl	$.L.str.303, (%esp)
	calll	printf@PLT
	movl	stdin, %eax
	movl	%eax, (%esp)
	calll	getc@PLT
	movl	$.L.str.303, (%esp)
	calll	printf@PLT
	movl	stdin, %eax
	movl	%eax, (%esp)
	calll	getc@PLT
	movl	$.L.str.303, (%esp)
	calll	printf@PLT
	movl	stdin, %eax
	movl	%eax, (%esp)
	calll	getc@PLT
	movl	$.L.str.304, (%esp)
	calll	printf@PLT
	movl	$.L.str.131, (%esp)
	calll	printf@PLT
	movl	$.L.str.132, (%esp)
	calll	printf@PLT
	movl	stdin, %eax
	movl	%eax, (%esp)
	calll	getc@PLT
	cmpl	$67, %eax
	je	.LBB77_15
# %bb.28:                               #   in Loop: Header=BB77_14 Depth=4
	movl	$.L.str.305, (%esp)
	jmp	.LBB77_14
.LBB77_30:                              #   in Loop: Header=BB77_4 Depth=2
	movl	$.L.str.308, (%esp)
	calll	printf@PLT
	movl	$.L.str.309, (%esp)
	calll	printf@PLT
	movl	stdin, %eax
	movl	%eax, (%esp)
	calll	getc@PLT
	cmpl	$67, %eax
	je	.LBB77_4
# %bb.31:                               #   in Loop: Header=BB77_4 Depth=2
	calll	FF_function_259
	jmp	.LBB77_4
	.p2align	4, 0x90
.LBB77_32:                              #   in Loop: Header=BB77_3 Depth=1
	movl	$.L.str.310, (%esp)
	calll	printf@PLT
	movl	$.L.str.311, %eax
.LBB77_33:                              #   in Loop: Header=BB77_3 Depth=1
	movl	%eax, (%esp)
	calll	printf@PLT
	movl	$.L.str.312, (%esp)
	calll	printf@PLT
	movl	$.L.str.281, (%esp)
	calll	printf@PLT
	movl	$.L.str.282, (%esp)
	calll	printf@PLT
	movl	stdin, %eax
	movl	%eax, (%esp)
	calll	getc@PLT
	cmpl	$97, %eax
	jne	.LBB77_3
	jmp	.LBB77_34
.LBB77_9:                               #   in Loop: Header=BB77_3 Depth=1
	movl	$.L.str.285, %eax
	jmp	.LBB77_33
.LBB77_22:
	movl	$.L.str.298, (%esp)
	calll	printf@PLT
.LBB77_23:
	movl	$.L.str.313, (%esp)
	calll	printf@PLT
	movl	$.L.str.314, (%esp)
	calll	printf@PLT
	movl	$.L.str.315, (%esp)
	calll	printf@PLT
	movl	$0, (%esi)
.LBB77_24:
	movl	%esi, %eax
	addl	$32, %esp
	.cfi_def_cfa_offset 16
	popl	%esi
	.cfi_def_cfa_offset 12
	popl	%edi
	.cfi_def_cfa_offset 8
	popl	%ebx
	.cfi_def_cfa_offset 4
	retl	$4
.LBB77_34:
	.cfi_def_cfa_offset 48
	movl	$1923, (%esp)                   # imm = 0x783
	calll	exit@PLT
.Lfunc_end77:
	.size	CF_function_299, .Lfunc_end77-CF_function_299
	.cfi_endproc
                                        # -- End function
	.globl	main                            # -- Begin function main
	.p2align	4, 0x90
	.type	main,@function
main:                                   # @main
	.cfi_startproc
# %bb.0:
	pushl	%ebx
	.cfi_def_cfa_offset 8
	pushl	%edi
	.cfi_def_cfa_offset 12
	pushl	%esi
	.cfi_def_cfa_offset 16
	subl	$96, %esp
	.cfi_def_cfa_offset 112
	.cfi_offset %esi, -16
	.cfi_offset %edi, -12
	.cfi_offset %ebx, -8
	movl	$.L.str.316, (%esp)
	calll	printf@PLT
	movl	$.L.str.317, (%esp)
	calll	printf@PLT
	calll	functie_voor_datastructuren
	movl	$0, (%esp)
	calll	FF_function_226
	fstp	%st(0)
	leal	48(%esp), %eax
	movl	%eax, (%esp)
	movl	$0, 16(%esp)
	movl	$0, 12(%esp)
	movl	$0, 24(%esp)
	movl	$0, 20(%esp)
	calll	FF_function_225
	subl	$4, %esp
	leal	64(%esp), %eax
	movl	%eax, (%esp)
	movl	$0, 20(%esp)
	movl	$0, 16(%esp)
	calll	FF_function_223
	subl	$4, %esp
	leal	80(%esp), %eax
	movl	%eax, (%esp)
	movl	$0, 20(%esp)
	movl	$0, 16(%esp)
	calll	FF_function_221
	subl	$4, %esp
	leal	32(%esp), %edi
	movl	%edi, (%esp)
	movl	$0, 20(%esp)
	movl	$0, 16(%esp)
	movl	$0, 24(%esp)
	calll	FF_function_219
	subl	$4, %esp
	movl	$.L.str.318, (%esp)
	calll	printf@PLT
	movl	$.L.str.319, (%esp)
	calll	printf@PLT
	movl	$.L.str.320, (%esp)
	calll	printf@PLT
	calll	FF_function_228
	movl	$.L.str.321, (%esp)
	calll	printf@PLT
	movl	%edi, (%esp)
	calll	FF_function_251
	subl	$4, %esp
	movl	$.L.str.322, (%esp)
	calll	printf@PLT
	movl	$5181, %esi                     # imm = 0x143D
	movl	$-1431655765, %ebx              # imm = 0xAAAAAAAB
	.p2align	4, 0x90
.LBB78_1:                               # =>This Inner Loop Header: Depth=1
	movl	%esi, 4(%esp)
	movl	$.L.str.323, (%esp)
	calll	printf@PLT
	movl	$.L.str.63, (%esp)
	calll	printf@PLT
	movl	$.L.str.64, (%esp)
	calll	printf@PLT
	movl	$.L.str.116, (%esp)
	calll	printf@PLT
	movl	$.L.str.114, (%esp)
	calll	printf@PLT
	movl	%edi, (%esp)
	calll	FF_function_251
	subl	$4, %esp
	movl	$.L.str.115, (%esp)
	calll	printf@PLT
	movl	$.L.str.117, (%esp)
	calll	printf@PLT
	movl	stdin, %eax
	movl	%eax, (%esp)
	calll	getc@PLT
	cmpl	$23, %eax
	je	.LBB78_6
# %bb.2:                                #   in Loop: Header=BB78_1 Depth=1
	movl	stdin, %eax
	movl	%eax, (%esp)
	calll	getc@PLT
	cmpl	$31, %eax
	je	.LBB78_9
# %bb.3:                                #   in Loop: Header=BB78_1 Depth=1
	movl	stdin, %eax
	movl	%eax, (%esp)
	calll	getc@PLT
	cmpl	$19, %eax
	je	.LBB78_6
# %bb.4:                                #   in Loop: Header=BB78_1 Depth=1
	movl	$.L.str.75, (%esp)
	calll	printf@PLT
	movl	$.L.str.73, (%esp)
	calll	printf@PLT
	movl	$.L.str.74, (%esp)
	calll	printf@PLT
	movl	$.L.str.76, (%esp)
	calll	printf@PLT
	movl	$.L.str.106, (%esp)
	calll	printf@PLT
	movl	$.L.str.104, (%esp)
	calll	printf@PLT
	movl	%edi, (%esp)
	calll	FF_function_258
	subl	$4, %esp
	movl	$.L.str.105, (%esp)
	calll	printf@PLT
	movl	$.L.str.107, (%esp)
	calll	printf@PLT
	movl	stdin, %eax
	movl	%eax, (%esp)
	calll	getc@PLT
	cmpl	$67, %eax
	je	.LBB78_1
# %bb.5:                                #   in Loop: Header=BB78_1 Depth=1
	calll	FF_function_236
	movl	%esi, %eax
	mull	%ebx
	shrl	%edx
	cmpl	$14, %esi
	movl	%edx, %esi
	ja	.LBB78_1
.LBB78_6:
	movl	$.L.str.324, (%esp)
	calll	printf@PLT
	movl	$.L.str.325, (%esp)
	calll	printf@PLT
	movl	$0, (%esp)
	calll	CF_function_294
	movl	%edi, (%esp)
	calll	CF_function_296
	subl	$4, %esp
	movl	$.L.str.58, (%esp)
	calll	printf@PLT
	movl	$.L.str.59, (%esp)
	calll	printf@PLT
	movl	$.L.str.326, (%esp)
	calll	printf@PLT
	movl	$.L.str.106, (%esp)
	calll	printf@PLT
	movl	$.L.str.104, (%esp)
	calll	printf@PLT
	movl	%edi, (%esp)
	calll	FF_function_258
	subl	$4, %esp
	movl	$.L.str.105, (%esp)
	calll	printf@PLT
	movl	$.L.str.107, (%esp)
	calll	printf@PLT
	movl	$.L.str.327, (%esp)
	calll	printf@PLT
	movl	$.L.str.328, (%esp)
	calll	printf@PLT
	movl	$.L.str.329, (%esp)
	calll	printf@PLT
	movl	$.L.str.330, (%esp)
	calll	printf@PLT
	movl	$.L.str.331, (%esp)
	calll	printf@PLT
	calll	FF_function_241
	movl	$.L.str.332, (%esp)
	calll	printf@PLT
	movl	$.L.str.333, (%esp)
	calll	printf@PLT
	movl	$.L.str.334, (%esp)
	calll	printf@PLT
	movl	$.L.str.61, (%esp)
	calll	printf@PLT
	movl	$.L.str.62, (%esp)
	calll	printf@PLT
	movl	$.L.str.335, (%esp)
	calll	printf@PLT
	movl	$.L.str.336, (%esp)
	calll	printf@PLT
	movl	$.L.str.337, (%esp)
	calll	printf@PLT
	movl	$.L.str.63, (%esp)
	calll	printf@PLT
	movl	$.L.str.64, (%esp)
	calll	printf@PLT
	movl	$.L.str.338, (%esp)
	calll	printf@PLT
	movl	$.L.str.96, (%esp)
	calll	printf@PLT
	movl	$.L.str.95, (%esp)
	calll	printf@PLT
	movl	$.L.str.93, (%esp)
	calll	printf@PLT
	movl	%edi, (%esp)
	calll	FF_function_264
	subl	$4, %esp
	movl	$.L.str.94, (%esp)
	calll	printf@PLT
	movl	$.L.str.97, (%esp)
	calll	printf@PLT
	movl	$.L.str.88, (%esp)
	calll	printf@PLT
	movl	$.L.str.89, (%esp)
	calll	printf@PLT
	movl	$.L.str.61, (%esp)
	calll	printf@PLT
	movl	$.L.str.62, (%esp)
	calll	printf@PLT
	movl	$.L.str.77, (%esp)
	calll	printf@PLT
	movl	$.L.str.72, (%esp)
	calll	printf@PLT
	calll	rand@PLT
	movl	$.L.str.75, (%esp)
	calll	printf@PLT
	movl	$.L.str.73, (%esp)
	calll	printf@PLT
	movl	$.L.str.74, (%esp)
	calll	printf@PLT
	movl	$.L.str.76, (%esp)
	calll	printf@PLT
	movl	$.L.str.78, (%esp)
	calll	printf@PLT
	movl	$.L.str.85, (%esp)
	calll	printf@PLT
	calll	rand@PLT
	testl	%eax, %eax
	jle	.LBB78_8
# %bb.7:
	movl	$.L.str.86, (%esp)
	calll	printf@PLT
.LBB78_8:
	movl	$.L.str.58, (%esp)
	calll	printf@PLT
	movl	$.L.str.59, (%esp)
	calll	printf@PLT
	movl	$.L.str.339, (%esp)
	calll	printf@PLT
	movl	$.L.str.340, (%esp)
	calll	printf@PLT
	movl	$.L.str.341, (%esp)
	calll	printf@PLT
	movl	$.L.str.342, (%esp)
	calll	printf@PLT
	movl	$.L.str.343, (%esp)
	calll	printf@PLT
	movl	$.L.str.344, (%esp)
	calll	printf@PLT
	movl	$.L.str.345, (%esp)
	calll	printf@PLT
	movl	$.L.str.77, (%esp)
	calll	printf@PLT
	movl	$.L.str.72, (%esp)
	calll	printf@PLT
	calll	rand@PLT
	movl	$.L.str.75, (%esp)
	calll	printf@PLT
	movl	$.L.str.73, (%esp)
	calll	printf@PLT
	movl	$.L.str.74, (%esp)
	calll	printf@PLT
	movl	$.L.str.76, (%esp)
	calll	printf@PLT
	movl	$.L.str.78, (%esp)
	calll	printf@PLT
	movl	$.L.str.63, (%esp)
	calll	printf@PLT
	movl	$.L.str.64, (%esp)
	calll	printf@PLT
	movl	$.L.str.346, (%esp)
	calll	printf@PLT
	movl	$.L.str.347, (%esp)
	calll	printf@PLT
	calll	FF_function_241
	movl	$.L.str.348, (%esp)
	calll	printf@PLT
	movl	$.L.str.349, (%esp)
	calll	printf@PLT
	movl	$.L.str.90, (%esp)
	calll	printf@PLT
	movl	$.L.str.80, (%esp)
	calll	printf@PLT
	movl	$.L.str.81, (%esp)
	calll	printf@PLT
	movl	$.L.str.350, (%esp)
	calll	printf@PLT
	movl	%edi, (%esp)
	calll	CF_function_297
	subl	$4, %esp
	movl	$.L.str.351, (%esp)
	calll	printf@PLT
	movl	$.L.str.63, (%esp)
	calll	printf@PLT
	movl	$.L.str.64, (%esp)
	calll	printf@PLT
	movl	$.L.str.116, (%esp)
	calll	printf@PLT
	movl	$.L.str.114, (%esp)
	calll	printf@PLT
	movl	%edi, (%esp)
	calll	FF_function_251
	subl	$4, %esp
	movl	$.L.str.115, (%esp)
	calll	printf@PLT
	movl	$.L.str.117, (%esp)
	calll	printf@PLT
	movl	$.L.str.352, (%esp)
	calll	printf@PLT
	movl	$.L.str.116, (%esp)
	calll	printf@PLT
	movl	$.L.str.114, (%esp)
	calll	printf@PLT
	movl	%edi, (%esp)
	calll	FF_function_251
	subl	$4, %esp
	movl	$.L.str.115, (%esp)
	calll	printf@PLT
	movl	$.L.str.117, (%esp)
	calll	printf@PLT
	movl	$.L.str.353, (%esp)
	calll	printf@PLT
	movl	$.L.str.354, (%esp)
	calll	printf@PLT
	movl	$.L.str.80, (%esp)
	calll	printf@PLT
	movl	$.L.str.81, (%esp)
	calll	printf@PLT
	movl	$.L.str.355, (%esp)
	calll	printf@PLT
	movl	$.L.str.60, (%esp)
	calll	printf@PLT
	movl	$.L.str.356, (%esp)
	calll	printf@PLT
	movl	$.L.str.357, (%esp)
	calll	printf@PLT
	movl	$.L.str.358, (%esp)
	calll	printf@PLT
	movl	$.L.str.359, (%esp)
	calll	printf@PLT
	movl	$.L.str.360, (%esp)
	calll	printf@PLT
	movl	$.L.str.60, (%esp)
	calll	printf@PLT
	movl	$.L.str.361, (%esp)
	calll	printf@PLT
	movl	$.L.str.362, (%esp)
	calll	printf@PLT
	movl	$.L.str.219, (%esp)
	calll	printf@PLT
	movl	$0, 12(%esp)
	movl	$0, 8(%esp)
	movl	$0, 20(%esp)
	movl	$0, 16(%esp)
	calll	FF_function_236
	movl	$.L.str.220, (%esp)
	calll	printf@PLT
	movl	$.L.str.363, (%esp)
	calll	printf@PLT
	movl	$.L.str.364, (%esp)
	calll	printf@PLT
	movl	$.L.str.365, (%esp)
	calll	printf@PLT
	movl	$.L.str.366, (%esp)
	calll	printf@PLT
	movl	$.L.str.367, (%esp)
	calll	printf@PLT
	movl	$.L.str.368, (%esp)
	calll	printf@PLT
	movl	$0, (%esp)
	calll	FF_function_238
	movl	$.L.str.369, (%esp)
	calll	printf@PLT
	movl	$.L.str.370, (%esp)
	calll	printf@PLT
	movl	$.L.str.371, (%esp)
	calll	printf@PLT
	movl	$.L.str.372, (%esp)
	calll	printf@PLT
	movl	$.L.str.79, (%esp)
	calll	printf@PLT
	movl	$.L.str.58, (%esp)
	calll	printf@PLT
	movl	$.L.str.59, (%esp)
	calll	printf@PLT
	movl	$.L.str.60, (%esp)
	calll	printf@PLT
	movl	$.L.str.61, (%esp)
	calll	printf@PLT
	movl	$.L.str.62, (%esp)
	calll	printf@PLT
	movl	$.L.str.63, (%esp)
	calll	printf@PLT
	movl	$.L.str.64, (%esp)
	calll	printf@PLT
	movl	%edi, (%esp)
	movl	$0, 8(%esp)
	calll	FF_function_268
	subl	$4, %esp
	calll	FF_function_241
	movl	$.L.str.373, (%esp)
	calll	printf@PLT
	movl	$.L.str.374, (%esp)
	calll	printf@PLT
	movl	%edi, (%esp)
	calll	CF_function_299
	subl	$4, %esp
	movl	$.L.str.375, (%esp)
	calll	printf@PLT
.LBB78_9:
	xorl	%eax, %eax
	addl	$96, %esp
	.cfi_def_cfa_offset 16
	popl	%esi
	.cfi_def_cfa_offset 12
	popl	%edi
	.cfi_def_cfa_offset 8
	popl	%ebx
	.cfi_def_cfa_offset 4
	retl
.Lfunc_end78:
	.size	main, .Lfunc_end78-main
	.cfi_endproc
                                        # -- End function
	.type	.L.str,@object                  # @.str
	.section	.rodata.str1.1,"aMS",@progbits,1
.L.str:
	.asciz	"c5852db2-7acb-cba3-7f81-e7ef3cd1d3b8FF>>callable:1,functionName:functie_voor_datastructuren,AUTOGENERATED:T,ID:a5f,CHECKSUM:F728"
	.size	.L.str, 129

	.type	.L.str.1,@object                # @.str.1
.L.str.1:
	.asciz	"c5852db2-7acb-cba3-7f81-e7ef3cd1d3b8FF>>functionName:functie_voor_datastructuren,AUTOGENERATED:T,ID:a60,CHECKSUM:1E74"
	.size	.L.str.1, 118

	.type	.L.str.2,@object                # @.str.2
.L.str.2:
	.asciz	"c5852db2-7acb-cba3-7f81-e7ef3cd1d3b8FF>>callable:0,functionName:FF_function_208,AUTOGENERATED:T,ID:a61,CHECKSUM:6720"
	.size	.L.str.2, 117

	.type	.L.str.1.3,@object              # @.str.1.3
.L.str.1.3:
	.asciz	"c5852db2-7acb-cba3-7f81-e7ef3cd1d3b8FF>>functionName:FF_function_208,AUTOGENERATED:T,ID:a62,CHECKSUM:2F8F"
	.size	.L.str.1.3, 106

	.type	.L.str.2.4,@object              # @.str.2.4
.L.str.2.4:
	.asciz	"c5852db2-7acb-cba3-7f81-e7ef3cd1d3b8FF>>callable:0,functionName:FF_function_209,AUTOGENERATED:T,ID:a63,CHECKSUM:33FC"
	.size	.L.str.2.4, 117

	.type	.L.str.3,@object                # @.str.3
.L.str.3:
	.asciz	"c5852db2-7acb-cba3-7f81-e7ef3cd1d3b8FF>>functionName:FF_function_209,AUTOGENERATED:T,ID:a64,CHECKSUM:B852"
	.size	.L.str.3, 106

	.type	.L.str.4,@object                # @.str.4
.L.str.4:
	.asciz	"c5852db2-7acb-cba3-7f81-e7ef3cd1d3b8FF>>callable:0,functionName:FF_function_210,AUTOGENERATED:T,ID:a65,CHECKSUM:B792"
	.size	.L.str.4, 117

	.type	.L.str.5,@object                # @.str.5
.L.str.5:
	.asciz	"c5852db2-7acb-cba3-7f81-e7ef3cd1d3b8FF>>functionName:FF_function_210,AUTOGENERATED:T,ID:a66,CHECKSUM:FF3D"
	.size	.L.str.5, 106

	.type	.L.str.6,@object                # @.str.6
.L.str.6:
	.asciz	"c5852db2-7acb-cba3-7f81-e7ef3cd1d3b8FF>>callable:0,functionName:FF_function_211,AUTOGENERATED:T,ID:a67,CHECKSUM:E34E"
	.size	.L.str.6, 117

	.type	.L.str.7,@object                # @.str.7
.L.str.7:
	.asciz	"c5852db2-7acb-cba3-7f81-e7ef3cd1d3b8FF>>functionName:FF_function_211,AUTOGENERATED:T,ID:a68,CHECKSUM:AEE1"
	.size	.L.str.7, 106

	.type	.L.str.8,@object                # @.str.8
.L.str.8:
	.asciz	"c5852db2-7acb-cba3-7f81-e7ef3cd1d3b8FF>>callable:0,functionName:FF_function_212,AUTOGENERATED:T,ID:a69,CHECKSUM:D82B"
	.size	.L.str.8, 117

	.type	.L.str.9,@object                # @.str.9
.L.str.9:
	.asciz	"c5852db2-7acb-cba3-7f81-e7ef3cd1d3b8FF>>functionName:FF_function_212,AUTOGENERATED:T,ID:a6a,CHECKSUM:6BC5"
	.size	.L.str.9, 106

	.type	.L.str.10,@object               # @.str.10
.L.str.10:
	.asciz	"c5852db2-7acb-cba3-7f81-e7ef3cd1d3b8FF>>callable:0,functionName:FF_function_213,AUTOGENERATED:T,ID:a6b,CHECKSUM:B637"
	.size	.L.str.10, 117

	.type	.L.str.11,@object               # @.str.11
.L.str.11:
	.asciz	"c5852db2-7acb-cba3-7f81-e7ef3cd1d3b8FF>>functionName:FF_function_213,AUTOGENERATED:T,ID:a6c,CHECKSUM:3F19"
	.size	.L.str.11, 106

	.type	.L.str.12,@object               # @.str.12
.L.str.12:
	.asciz	"c5852db2-7acb-cba3-7f81-e7ef3cd1d3b8FF>>callable:0,functionName:FF_function_214,AUTOGENERATED:T,ID:a6d,CHECKSUM:9E21"
	.size	.L.str.12, 117

	.type	.L.str.13,@object               # @.str.13
.L.str.13:
	.asciz	"c5852db2-7acb-cba3-7f81-e7ef3cd1d3b8FF>>functionName:FF_function_214,AUTOGENERATED:T,ID:a6e,CHECKSUM:170F"
	.size	.L.str.13, 106

	.type	.L.str.14,@object               # @.str.14
.L.str.14:
	.asciz	"c5852db2-7acb-cba3-7f81-e7ef3cd1d3b8FF>>callable:0,functionName:FF_function_215,AUTOGENERATED:T,ID:a6f,CHECKSUM:CAFD"
	.size	.L.str.14, 117

	.type	.L.str.15,@object               # @.str.15
.L.str.15:
	.asciz	"c5852db2-7acb-cba3-7f81-e7ef3cd1d3b8FF>>functionName:FF_function_215,AUTOGENERATED:T,ID:a70,CHECKSUM:2D93"
	.size	.L.str.15, 106

	.type	.L.str.16,@object               # @.str.16
.L.str.16:
	.asciz	"c5852db2-7acb-cba3-7f81-e7ef3cd1d3b8FF>>callable:0,functionName:FF_function_216,AUTOGENERATED:T,ID:a71,CHECKSUM:5B59"
	.size	.L.str.16, 117

	.type	.L.str.17,@object               # @.str.17
.L.str.17:
	.asciz	"c5852db2-7acb-cba3-7f81-e7ef3cd1d3b8FF>>functionName:FF_function_216,AUTOGENERATED:T,ID:a72,CHECKSUM:13F6"
	.size	.L.str.17, 106

	.type	.L.str.18,@object               # @.str.18
.L.str.18:
	.asciz	"c5852db2-7acb-cba3-7f81-e7ef3cd1d3b8FF>>callable:0,functionName:FF_function_217,AUTOGENERATED:T,ID:a73,CHECKSUM:0F85"
	.size	.L.str.18, 117

	.type	.L.str.19,@object               # @.str.19
.L.str.19:
	.asciz	"c5852db2-7acb-cba3-7f81-e7ef3cd1d3b8FF>>functionName:FF_function_217,AUTOGENERATED:T,ID:a74,CHECKSUM:842B"
	.size	.L.str.19, 106

	.type	.L.str.20,@object               # @.str.20
.L.str.20:
	.asciz	"c5852db2-7acb-cba3-7f81-e7ef3cd1d3b8FF>>callable:1,functionName:FF_function_219,AUTOGENERATED:T,ID:a75,CHECKSUM:FDB1"
	.size	.L.str.20, 117

	.type	.L.str.21,@object               # @.str.21
.L.str.21:
	.asciz	"c5852db2-7acb-cba3-7f81-e7ef3cd1d3b8FF>>functionName:FF_function_219,AUTOGENERATED:T,ID:a76,CHECKSUM:1086"
	.size	.L.str.21, 106

	.type	.L.str.22,@object               # @.str.22
.L.str.22:
	.asciz	"c5852db2-7acb-cba3-7f81-e7ef3cd1d3b8FF>>callable:1,functionName:FF_function_221,AUTOGENERATED:T,ID:a77,CHECKSUM:9D28"
	.size	.L.str.22, 117

	.type	.L.str.23,@object               # @.str.23
.L.str.23:
	.asciz	"c5852db2-7acb-cba3-7f81-e7ef3cd1d3b8FF>>functionName:FF_function_221,AUTOGENERATED:T,ID:a78,CHECKSUM:751F"
	.size	.L.str.23, 106

	.type	.L.str.24,@object               # @.str.24
.L.str.24:
	.asciz	"c5852db2-7acb-cba3-7f81-e7ef3cd1d3b8FF>>callable:1,functionName:FF_function_223,AUTOGENERATED:T,ID:a79,CHECKSUM:3310"
	.size	.L.str.24, 117

	.type	.L.str.25,@object               # @.str.25
.L.str.25:
	.asciz	"c5852db2-7acb-cba3-7f81-e7ef3cd1d3b8FF>>functionName:FF_function_223,AUTOGENERATED:T,ID:a7a,CHECKSUM:2566"
	.size	.L.str.25, 106

	.type	.L.str.26,@object               # @.str.26
.L.str.26:
	.asciz	"c5852db2-7acb-cba3-7f81-e7ef3cd1d3b8FF>>callable:1,functionName:FF_function_225,AUTOGENERATED:T,ID:a7b,CHECKSUM:779A"
	.size	.L.str.26, 117

	.type	.L.str.27,@object               # @.str.27
.L.str.27:
	.asciz	"c5852db2-7acb-cba3-7f81-e7ef3cd1d3b8FF>>functionName:FF_function_225,AUTOGENERATED:T,ID:a7c,CHECKSUM:5B2C"
	.size	.L.str.27, 106

	.type	.L.str.28,@object               # @.str.28
.L.str.28:
	.asciz	"c5852db2-7acb-cba3-7f81-e7ef3cd1d3b8FF>>callable:1,functionName:FF_function_228,AUTOGENERATED:T,ID:a7d,CHECKSUM:DFD2"
	.size	.L.str.28, 117

	.type	.L.str.29,@object               # @.str.29
.L.str.29:
	.asciz	"c5852db2-7acb-cba3-7f81-e7ef3cd1d3b8FF>>functionName:FF_function_228,AUTOGENERATED:T,ID:a7e,CHECKSUM:F364"
	.size	.L.str.29, 106

	.type	.L.str.30,@object               # @.str.30
.L.str.30:
	.asciz	"c5852db2-7acb-cba3-7f81-e7ef3cd1d3b8FF>>callable:1,functionName:FF_function_232,AUTOGENERATED:T,ID:a7f,CHECKSUM:6759"
	.size	.L.str.30, 117

	.type	.L.str.31,@object               # @.str.31
.L.str.31:
	.asciz	"c5852db2-7acb-cba3-7f81-e7ef3cd1d3b8FF>>functionName:FF_function_232,AUTOGENERATED:T,ID:a80,CHECKSUM:45AB"
	.size	.L.str.31, 106

	.type	.L.str.32,@object               # @.str.32
.L.str.32:
	.asciz	"c5852db2-7acb-cba3-7f81-e7ef3cd1d3b8FF>>callable:1,functionName:FF_function_234,AUTOGENERATED:T,ID:a81,CHECKSUM:D6D6"
	.size	.L.str.32, 117

	.type	.L.str.33,@object               # @.str.33
.L.str.33:
	.asciz	"c5852db2-7acb-cba3-7f81-e7ef3cd1d3b8FF>>functionName:FF_function_234,AUTOGENERATED:T,ID:a82,CHECKSUM:3BE1"
	.size	.L.str.33, 106

	.type	.L.str.34,@object               # @.str.34
.L.str.34:
	.asciz	"c5852db2-7acb-cba3-7f81-e7ef3cd1d3b8FF>>callable:1,functionName:FF_function_236,AUTOGENERATED:T,ID:a83,CHECKSUM:7DEE"
	.size	.L.str.34, 117

	.type	.L.str.35,@object               # @.str.35
.L.str.35:
	.asciz	"c5852db2-7acb-cba3-7f81-e7ef3cd1d3b8FF>>functionName:FF_function_236,AUTOGENERATED:T,ID:a84,CHECKSUM:53D8"
	.size	.L.str.35, 106

	.type	.L.str.36,@object               # @.str.36
.L.str.36:
	.asciz	"c5852db2-7acb-cba3-7f81-e7ef3cd1d3b8FF>>callable:1,functionName:FF_function_238,AUTOGENERATED:T,ID:a85,CHECKSUM:2A42"
	.size	.L.str.36, 117

	.type	.L.str.37,@object               # @.str.37
.L.str.37:
	.asciz	"c5852db2-7acb-cba3-7f81-e7ef3cd1d3b8FF>>functionName:FF_function_238,AUTOGENERATED:T,ID:a86,CHECKSUM:C775"
	.size	.L.str.37, 106

	.type	.L.str.38,@object               # @.str.38
.L.str.38:
	.asciz	"c5852db2-7acb-cba3-7f81-e7ef3cd1d3b8FF>>callable:1,functionName:FF_function_241,AUTOGENERATED:T,ID:a87,CHECKSUM:FAD3"
	.size	.L.str.38, 117

	.type	.L.str.39,@object               # @.str.39
.L.str.39:
	.asciz	"c5852db2-7acb-cba3-7f81-e7ef3cd1d3b8FF>>functionName:FF_function_241,AUTOGENERATED:T,ID:a88,CHECKSUM:12E4"
	.size	.L.str.39, 106

	.type	.L.str.40,@object               # @.str.40
.L.str.40:
	.asciz	"c5852db2-7acb-cba3-7f81-e7ef3cd1d3b8FF>>callable:1,functionName:FF_function_243,AUTOGENERATED:T,ID:a89,CHECKSUM:54EB"
	.size	.L.str.40, 117

	.type	.L.str.41,@object               # @.str.41
.L.str.41:
	.asciz	"c5852db2-7acb-cba3-7f81-e7ef3cd1d3b8FF>>functionName:FF_function_243,AUTOGENERATED:T,ID:a8a,CHECKSUM:429D"
	.size	.L.str.41, 106

	.type	.L.str.42,@object               # @.str.42
.L.str.42:
	.asciz	"c5852db2-7acb-cba3-7f81-e7ef3cd1d3b8FF>>callable:1,functionName:FF_function_247,AUTOGENERATED:T,ID:a8b,CHECKSUM:7AD8"
	.size	.L.str.42, 117

	.type	.L.str.43,@object               # @.str.43
.L.str.43:
	.asciz	"c5852db2-7acb-cba3-7f81-e7ef3cd1d3b8FF>>functionName:FF_function_247,AUTOGENERATED:T,ID:a8c,CHECKSUM:566E"
	.size	.L.str.43, 106

	.type	.L.str.44,@object               # @.str.44
.L.str.44:
	.asciz	"c5852db2-7acb-cba3-7f81-e7ef3cd1d3b8FF>>callable:1,functionName:FF_function_255,AUTOGENERATED:T,ID:a8d,CHECKSUM:EBB5"
	.size	.L.str.44, 117

	.type	.L.str.45,@object               # @.str.45
.L.str.45:
	.asciz	"c5852db2-7acb-cba3-7f81-e7ef3cd1d3b8FF>>functionName:FF_function_255,AUTOGENERATED:T,ID:a8e,CHECKSUM:C703"
	.size	.L.str.45, 106

	.type	.L.str.46,@object               # @.str.46
.L.str.46:
	.asciz	"c5852db2-7acb-cba3-7f81-e7ef3cd1d3b8FF>>callable:1,functionName:FF_function_266,AUTOGENERATED:T,ID:a8f,CHECKSUM:9E2F"
	.size	.L.str.46, 117

	.type	.L.str.47,@object               # @.str.47
.L.str.47:
	.asciz	"c5852db2-7acb-cba3-7f81-e7ef3cd1d3b8FF>>functionName:FF_function_266,AUTOGENERATED:T,ID:a90,CHECKSUM:DCD9"
	.size	.L.str.47, 106

	.type	.L.str.48,@object               # @.str.48
.L.str.48:
	.asciz	"c5852db2-7acb-cba3-7f81-e7ef3cd1d3b8FF>>callable:1,functionName:FF_function_270,AUTOGENERATED:T,ID:a91,CHECKSUM:B6F0"
	.size	.L.str.48, 117

	.type	.L.str.49,@object               # @.str.49
.L.str.49:
	.asciz	"c5852db2-7acb-cba3-7f81-e7ef3cd1d3b8FF>>functionName:FF_function_270,AUTOGENERATED:T,ID:a92,CHECKSUM:5BC7"
	.size	.L.str.49, 106

	.type	.L.str.50,@object               # @.str.50
.L.str.50:
	.asciz	"c5852db2-7acb-cba3-7f81-e7ef3cd1d3b8FF>>callable:1,functionName:FF_function_271,AUTOGENERATED:T,ID:a93,CHECKSUM:E22C"
	.size	.L.str.50, 117

	.type	.L.str.51,@object               # @.str.51
.L.str.51:
	.asciz	"c5852db2-7acb-cba3-7f81-e7ef3cd1d3b8FF>>functionName:FF_function_271,AUTOGENERATED:T,ID:a94,CHECKSUM:CC1A"
	.size	.L.str.51, 106

	.type	.L.str.52,@object               # @.str.52
.L.str.52:
	.asciz	"c5852db2-7acb-cba3-7f81-e7ef3cd1d3b8FF>>callable:1,functionName:FF_function_272,AUTOGENERATED:T,ID:a95,CHECKSUM:1F48"
	.size	.L.str.52, 117

	.type	.L.str.53,@object               # @.str.53
.L.str.53:
	.asciz	"c5852db2-7acb-cba3-7f81-e7ef3cd1d3b8FF>>callable:1,functionName:FF_function_273,AUTOGENERATED:T,ID:a97,CHECKSUM:4B94"
	.size	.L.str.53, 117

	.type	.L.str.54,@object               # @.str.54
.L.str.54:
	.asciz	"c5852db2-7acb-cba3-7f81-e7ef3cd1d3b8FF>>callable:1,functionName:FF_function_274,AUTOGENERATED:T,ID:a99,CHECKSUM:A583"
	.size	.L.str.54, 117

	.type	.L.str.55,@object               # @.str.55
.L.str.55:
	.asciz	"c5852db2-7acb-cba3-7f81-e7ef3cd1d3b8FF>>functionName:FF_function_274,AUTOGENERATED:T,ID:a9a,CHECKSUM:B3F5"
	.size	.L.str.55, 106

	.type	.L.str.56,@object               # @.str.56
.L.str.56:
	.asciz	"c5852db2-7acb-cba3-7f81-e7ef3cd1d3b8FF>>callable:1,functionName:FF_function_268,AUTOGENERATED:T,ID:a9b,CHECKSUM:9803"
	.size	.L.str.56, 117

	.type	.L.str.57,@object               # @.str.57
.L.str.57:
	.asciz	"c5852db2-7acb-cba3-7f81-e7ef3cd1d3b8FF>>functionName:FF_function_268,AUTOGENERATED:T,ID:a9c,CHECKSUM:B4B5"
	.size	.L.str.57, 106

	.type	.L.str.58,@object               # @.str.58
.L.str.58:
	.asciz	"c5852db2-7acb-cba3-7f81-e7ef3cd1d3b8FF>>callable:1,functionName:FF_function_275,AUTOGENERATED:T,ID:a9d,CHECKSUM:C91F"
	.size	.L.str.58, 117

	.type	.L.str.59,@object               # @.str.59
.L.str.59:
	.asciz	"c5852db2-7acb-cba3-7f81-e7ef3cd1d3b8FF>>functionName:FF_function_275,AUTOGENERATED:T,ID:a9e,CHECKSUM:E5A9"
	.size	.L.str.59, 106

	.type	.L.str.60,@object               # @.str.60
.L.str.60:
	.asciz	"c5852db2-7acb-cba3-7f81-e7ef3cd1d3b8FF>>callable:1,functionName:FF_function_276,AUTOGENERATED:T,ID:a9f,CHECKSUM:F77A"
	.size	.L.str.60, 117

	.type	.L.str.61,@object               # @.str.61
.L.str.61:
	.asciz	"c5852db2-7acb-cba3-7f81-e7ef3cd1d3b8FF>>callable:1,functionName:FF_function_277,AUTOGENERATED:T,ID:aa1,CHECKSUM:5C5D"
	.size	.L.str.61, 117

	.type	.L.str.62,@object               # @.str.62
.L.str.62:
	.asciz	"c5852db2-7acb-cba3-7f81-e7ef3cd1d3b8FF>>functionName:FF_function_277,AUTOGENERATED:T,ID:aa2,CHECKSUM:B16A"
	.size	.L.str.62, 106

	.type	.L.str.63,@object               # @.str.63
.L.str.63:
	.asciz	"c5852db2-7acb-cba3-7f81-e7ef3cd1d3b8FF>>callable:1,functionName:FF_function_278,AUTOGENERATED:T,ID:aa3,CHECKSUM:5DAD"
	.size	.L.str.63, 117

	.type	.L.str.64,@object               # @.str.64
.L.str.64:
	.asciz	"c5852db2-7acb-cba3-7f81-e7ef3cd1d3b8FF>>functionName:FF_function_278,AUTOGENERATED:T,ID:aa4,CHECKSUM:739B"
	.size	.L.str.64, 106

	.type	.L.str.65,@object               # @.str.65
.L.str.65:
	.asciz	"c5852db2-7acb-cba3-7f81-e7ef3cd1d3b8FF>>callable:1,functionName:FF_function_280,AUTOGENERATED:T,ID:aa5,CHECKSUM:91CA"
	.size	.L.str.65, 117

	.type	.L.str.66,@object               # @.str.66
.L.str.66:
	.asciz	"c5852db2-7acb-cba3-7f81-e7ef3cd1d3b8FF>>functionName:FF_function_280,AUTOGENERATED:T,ID:aa6,CHECKSUM:7CFD"
	.size	.L.str.66, 106

	.type	.L.str.67,@object               # @.str.67
.L.str.67:
	.asciz	"c5852db2-7acb-cba3-7f81-e7ef3cd1d3b8FF>>callable:1,functionName:FF_function_281,AUTOGENERATED:T,ID:aa7,CHECKSUM:C516"
	.size	.L.str.67, 117

	.type	.L.str.68,@object               # @.str.68
.L.str.68:
	.asciz	"c5852db2-7acb-cba3-7f81-e7ef3cd1d3b8FF>>functionName:FF_function_281,AUTOGENERATED:T,ID:aa8,CHECKSUM:2D21"
	.size	.L.str.68, 106

	.type	.L.str.69,@object               # @.str.69
.L.str.69:
	.asciz	"c5852db2-7acb-cba3-7f81-e7ef3cd1d3b8FF>>callable:1,functionName:FF_function_282,AUTOGENERATED:T,ID:aa9,CHECKSUM:FE73"
	.size	.L.str.69, 117

	.type	.L.str.70,@object               # @.str.70
.L.str.70:
	.asciz	"c5852db2-7acb-cba3-7f81-e7ef3cd1d3b8FF>>functionName:FF_function_282,AUTOGENERATED:T,ID:aaa,CHECKSUM:E805"
	.size	.L.str.70, 106

	.type	.L.str.71,@object               # @.str.71
.L.str.71:
	.asciz	"c5852db2-7acb-cba3-7f81-e7ef3cd1d3b8FF>>callable:1,functionName:FF_function_279,AUTOGENERATED:T,ID:aab,CHECKSUM:3431"
	.size	.L.str.71, 117

	.type	.L.str.72,@object               # @.str.72
.L.str.72:
	.asciz	"c5852db2-7acb-cba3-7f81-e7ef3cd1d3b8FF>>callable:1,functionName:FF_function_284,AUTOGENERATED:T,ID:aad,CHECKSUM:B879"
	.size	.L.str.72, 117

	.type	.L.str.73,@object               # @.str.73
.L.str.73:
	.asciz	"c5852db2-7acb-cba3-7f81-e7ef3cd1d3b8FF>>callable:1,functionName:FF_function_286,AUTOGENERATED:T,ID:aaf,CHECKSUM:1341"
	.size	.L.str.73, 117

	.type	.L.str.74,@object               # @.str.74
.L.str.74:
	.asciz	"c5852db2-7acb-cba3-7f81-e7ef3cd1d3b8FF>>functionName:FF_function_286,AUTOGENERATED:T,ID:ab0,CHECKSUM:31B6"
	.size	.L.str.74, 106

	.type	.L.str.75,@object               # @.str.75
.L.str.75:
	.asciz	"c5852db2-7acb-cba3-7f81-e7ef3cd1d3b8FF>>callable:1,functionName:FF_function_285,AUTOGENERATED:T,ID:ab1,CHECKSUM:E2E4"
	.size	.L.str.75, 117

	.type	.L.str.76,@object               # @.str.76
.L.str.76:
	.asciz	"c5852db2-7acb-cba3-7f81-e7ef3cd1d3b8FF>>functionName:FF_function_285,AUTOGENERATED:T,ID:ab2,CHECKSUM:0FD3"
	.size	.L.str.76, 106

	.type	.L.str.77,@object               # @.str.77
.L.str.77:
	.asciz	"c5852db2-7acb-cba3-7f81-e7ef3cd1d3b8FF>>callable:1,functionName:FF_function_283,AUTOGENERATED:T,ID:ab3,CHECKSUM:9CAE"
	.size	.L.str.77, 117

	.type	.L.str.78,@object               # @.str.78
.L.str.78:
	.asciz	"c5852db2-7acb-cba3-7f81-e7ef3cd1d3b8FF>>functionName:FF_function_283,AUTOGENERATED:T,ID:ab4,CHECKSUM:B298"
	.size	.L.str.78, 106

	.type	.L.str.79,@object               # @.str.79
.L.str.79:
	.asciz	"c5852db2-7acb-cba3-7f81-e7ef3cd1d3b8FF>>callable:1,functionName:FF_function_267,AUTOGENERATED:T,ID:ab5,CHECKSUM:9608"
	.size	.L.str.79, 117

	.type	.L.str.80,@object               # @.str.80
.L.str.80:
	.asciz	"c5852db2-7acb-cba3-7f81-e7ef3cd1d3b8FF>>callable:1,functionName:FF_function_288,AUTOGENERATED:T,ID:ab7,CHECKSUM:4AAC"
	.size	.L.str.80, 117

	.type	.L.str.81,@object               # @.str.81
.L.str.81:
	.asciz	"c5852db2-7acb-cba3-7f81-e7ef3cd1d3b8FF>>functionName:FF_function_288,AUTOGENERATED:T,ID:ab8,CHECKSUM:A29B"
	.size	.L.str.81, 106

	.type	.L.str.82,@object               # @.str.82
.L.str.82:
	.asciz	"c5852db2-7acb-cba3-7f81-e7ef3cd1d3b8FF>>callable:1,functionName:FF_function_289,AUTOGENERATED:T,ID:ab9,CHECKSUM:1B70"
	.size	.L.str.82, 117

	.type	.L.str.83,@object               # @.str.83
.L.str.83:
	.asciz	"c5852db2-7acb-cba3-7f81-e7ef3cd1d3b8FF>>functionName:FF_function_289,AUTOGENERATED:T,ID:aba,CHECKSUM:0D06"
	.size	.L.str.83, 106

	.type	.L.str.84,@object               # @.str.84
.L.str.84:
	.asciz	"c5852db2-7acb-cba3-7f81-e7ef3cd1d3b8FF>>callable:1,functionName:FF_function_290,AUTOGENERATED:T,ID:abb,CHECKSUM:66DF"
	.size	.L.str.84, 117

	.type	.L.str.85,@object               # @.str.85
.L.str.85:
	.asciz	"c5852db2-7acb-cba3-7f81-e7ef3cd1d3b8FF>>callable:1,functionName:FF_function_292,AUTOGENERATED:T,ID:abd,CHECKSUM:0EE6"
	.size	.L.str.85, 117

	.type	.L.str.86,@object               # @.str.86
.L.str.86:
	.asciz	"c5852db2-7acb-cba3-7f81-e7ef3cd1d3b8FF>>functionName:FF_function_292,AUTOGENERATED:T,ID:abe,CHECKSUM:2250"
	.size	.L.str.86, 106

	.type	.L.str.87,@object               # @.str.87
.L.str.87:
	.asciz	"c5852db2-7acb-cba3-7f81-e7ef3cd1d3b8FF>>callable:1,functionName:FF_function_291,AUTOGENERATED:T,ID:abf,CHECKSUM:3083"
	.size	.L.str.87, 117

	.type	.L.str.88,@object               # @.str.88
.L.str.88:
	.asciz	"c5852db2-7acb-cba3-7f81-e7ef3cd1d3b8FF>>callable:1,functionName:FF_function_293,AUTOGENERATED:T,ID:ac1,CHECKSUM:347A"
	.size	.L.str.88, 117

	.type	.L.str.89,@object               # @.str.89
.L.str.89:
	.asciz	"c5852db2-7acb-cba3-7f81-e7ef3cd1d3b8FF>>functionName:FF_function_293,AUTOGENERATED:T,ID:ac2,CHECKSUM:D94D"
	.size	.L.str.89, 106

	.type	.L.str.90,@object               # @.str.90
.L.str.90:
	.asciz	"c5852db2-7acb-cba3-7f81-e7ef3cd1d3b8FF>>callable:1,functionName:FF_function_287,AUTOGENERATED:T,ID:ac3,CHECKSUM:D9DD"
	.size	.L.str.90, 117

	.type	.L.str.91,@object               # @.str.91
.L.str.91:
	.asciz	"c5852db2-7acb-cba3-7f81-e7ef3cd1d3b8FF>>callable:1,functionName:FF_function_264,AUTOGENERATED:T,ID:ac5,CHECKSUM:F9ED"
	.size	.L.str.91, 117

	.type	.L.str.92,@object               # @.str.92
.L.str.92:
	.asciz	"c5852db2-7acb-cba3-7f81-e7ef3cd1d3b8FF>>functionName:FF_function_264,AUTOGENERATED:T,ID:ac6,CHECKSUM:14DA"
	.size	.L.str.92, 106

	.type	.L.str.93,@object               # @.str.93
.L.str.93:
	.asciz	"c5852db2-7acb-cba3-7f81-e7ef3cd1d3b8FF>>callable:1,functionName:FF_function_263,AUTOGENERATED:T,ID:ac7,CHECKSUM:12FA"
	.size	.L.str.93, 117

	.type	.L.str.94,@object               # @.str.94
.L.str.94:
	.asciz	"c5852db2-7acb-cba3-7f81-e7ef3cd1d3b8FF>>functionName:FF_function_263,AUTOGENERATED:T,ID:ac8,CHECKSUM:FACD"
	.size	.L.str.94, 106

	.type	.L.str.95,@object               # @.str.95
.L.str.95:
	.asciz	"c5852db2-7acb-cba3-7f81-e7ef3cd1d3b8FF>>callable:1,functionName:FF_function_262,AUTOGENERATED:T,ID:ac9,CHECKSUM:4326"
	.size	.L.str.95, 117

	.type	.L.str.96,@object               # @.str.96
.L.str.96:
	.asciz	"c5852db2-7acb-cba3-7f81-e7ef3cd1d3b8FF>>callable:1,functionName:FF_function_261,AUTOGENERATED:T,ID:acb,CHECKSUM:4783"
	.size	.L.str.96, 117

	.type	.L.str.97,@object               # @.str.97
.L.str.97:
	.asciz	"c5852db2-7acb-cba3-7f81-e7ef3cd1d3b8FF>>functionName:FF_function_261,AUTOGENERATED:T,ID:acc,CHECKSUM:6B35"
	.size	.L.str.97, 106

	.type	.L.str.98,@object               # @.str.98
.L.str.98:
	.asciz	"c5852db2-7acb-cba3-7f81-e7ef3cd1d3b8FF>>callable:1,functionName:FF_function_260,AUTOGENERATED:T,ID:acd,CHECKSUM:D05E"
	.size	.L.str.98, 117

	.type	.L.str.99,@object               # @.str.99
.L.str.99:
	.asciz	"c5852db2-7acb-cba3-7f81-e7ef3cd1d3b8FF>>functionName:FF_function_260,AUTOGENERATED:T,ID:ace,CHECKSUM:FCE8"
	.size	.L.str.99, 106

	.type	.L.str.100,@object              # @.str.100
.L.str.100:
	.asciz	"c5852db2-7acb-cba3-7f81-e7ef3cd1d3b8FF>>callable:1,functionName:FF_function_259,AUTOGENERATED:T,ID:acf,CHECKSUM:259A"
	.size	.L.str.100, 117

	.type	.L.str.101,@object              # @.str.101
.L.str.101:
	.asciz	"c5852db2-7acb-cba3-7f81-e7ef3cd1d3b8FF>>functionName:FF_function_259,AUTOGENERATED:T,ID:ad0,CHECKSUM:C76F"
	.size	.L.str.101, 106

	.type	.L.str.102,@object              # @.str.102
.L.str.102:
	.asciz	"c5852db2-7acb-cba3-7f81-e7ef3cd1d3b8FF>>callable:1,functionName:FF_function_258,AUTOGENERATED:T,ID:ad1,CHECKSUM:7E84"
	.size	.L.str.102, 117

	.type	.L.str.103,@object              # @.str.103
.L.str.103:
	.asciz	"c5852db2-7acb-cba3-7f81-e7ef3cd1d3b8FF>>functionName:FF_function_258,AUTOGENERATED:T,ID:ad2,CHECKSUM:93B3"
	.size	.L.str.103, 106

	.type	.L.str.104,@object              # @.str.104
.L.str.104:
	.asciz	"c5852db2-7acb-cba3-7f81-e7ef3cd1d3b8FF>>callable:1,functionName:FF_function_257,AUTOGENERATED:T,ID:ad3,CHECKSUM:7F74"
	.size	.L.str.104, 117

	.type	.L.str.105,@object              # @.str.105
.L.str.105:
	.asciz	"c5852db2-7acb-cba3-7f81-e7ef3cd1d3b8FF>>functionName:FF_function_257,AUTOGENERATED:T,ID:ad4,CHECKSUM:5142"
	.size	.L.str.105, 106

	.type	.L.str.106,@object              # @.str.106
.L.str.106:
	.asciz	"c5852db2-7acb-cba3-7f81-e7ef3cd1d3b8FF>>callable:1,functionName:FF_function_256,AUTOGENERATED:T,ID:ad5,CHECKSUM:E8A9"
	.size	.L.str.106, 117

	.type	.L.str.107,@object              # @.str.107
.L.str.107:
	.asciz	"c5852db2-7acb-cba3-7f81-e7ef3cd1d3b8FF>>functionName:FF_function_256,AUTOGENERATED:T,ID:ad6,CHECKSUM:059E"
	.size	.L.str.107, 106

	.type	.L.str.108,@object              # @.str.108
.L.str.108:
	.asciz	"c5852db2-7acb-cba3-7f81-e7ef3cd1d3b8FF>>callable:1,functionName:FF_function_253,AUTOGENERATED:T,ID:ad7,CHECKSUM:6907"
	.size	.L.str.108, 117

	.type	.L.str.109,@object              # @.str.109
.L.str.109:
	.asciz	"c5852db2-7acb-cba3-7f81-e7ef3cd1d3b8FF>>functionName:FF_function_253,AUTOGENERATED:T,ID:ad8,CHECKSUM:8130"
	.size	.L.str.109, 106

	.type	.L.str.110,@object              # @.str.110
.L.str.110:
	.asciz	"c5852db2-7acb-cba3-7f81-e7ef3cd1d3b8FF>>callable:1,functionName:FF_function_252,AUTOGENERATED:T,ID:ad9,CHECKSUM:38DB"
	.size	.L.str.110, 117

	.type	.L.str.111,@object              # @.str.111
.L.str.111:
	.asciz	"c5852db2-7acb-cba3-7f81-e7ef3cd1d3b8FF>>functionName:FF_function_252,AUTOGENERATED:T,ID:ada,CHECKSUM:2EAD"
	.size	.L.str.111, 106

	.type	.L.str.112,@object              # @.str.112
.L.str.112:
	.asciz	"c5852db2-7acb-cba3-7f81-e7ef3cd1d3b8FF>>callable:1,functionName:FF_function_251,AUTOGENERATED:T,ID:adb,CHECKSUM:3C7E"
	.size	.L.str.112, 117

	.type	.L.str.113,@object              # @.str.113
.L.str.113:
	.asciz	"c5852db2-7acb-cba3-7f81-e7ef3cd1d3b8FF>>functionName:FF_function_251,AUTOGENERATED:T,ID:adc,CHECKSUM:10C8"
	.size	.L.str.113, 106

	.type	.L.str.114,@object              # @.str.114
.L.str.114:
	.asciz	"c5852db2-7acb-cba3-7f81-e7ef3cd1d3b8FF>>callable:1,functionName:FF_function_250,AUTOGENERATED:T,ID:add,CHECKSUM:ABA3"
	.size	.L.str.114, 117

	.type	.L.str.115,@object              # @.str.115
.L.str.115:
	.asciz	"c5852db2-7acb-cba3-7f81-e7ef3cd1d3b8FF>>functionName:FF_function_250,AUTOGENERATED:T,ID:ade,CHECKSUM:8715"
	.size	.L.str.115, 106

	.type	.L.str.116,@object              # @.str.116
.L.str.116:
	.asciz	"c5852db2-7acb-cba3-7f81-e7ef3cd1d3b8FF>>callable:1,functionName:FF_function_249,AUTOGENERATED:T,ID:adf,CHECKSUM:ECCC"
	.size	.L.str.116, 117

	.type	.L.str.117,@object              # @.str.117
.L.str.117:
	.asciz	"c5852db2-7acb-cba3-7f81-e7ef3cd1d3b8FF>>functionName:FF_function_249,AUTOGENERATED:T,ID:ae0,CHECKSUM:AE3A"
	.size	.L.str.117, 106

	.type	.L.str.118,@object              # @.str.118
.L.str.118:
	.asciz	"c5852db2-7acb-cba3-7f81-e7ef3cd1d3b8FF>>callable:1,functionName:FF_function_248,AUTOGENERATED:T,ID:ae1,CHECKSUM:17D1"
	.size	.L.str.118, 117

	.type	.L.str.119,@object              # @.str.119
.L.str.119:
	.asciz	"c5852db2-7acb-cba3-7f81-e7ef3cd1d3b8FF>>callable:1,functionName:FF_function_245,AUTOGENERATED:T,ID:ae3,CHECKSUM:7C98"
	.size	.L.str.119, 117

	.type	.L.str.120,@object              # @.str.120
.L.str.120:
	.asciz	"c5852db2-7acb-cba3-7f81-e7ef3cd1d3b8FF>>functionName:FF_function_245,AUTOGENERATED:T,ID:ae4,CHECKSUM:52AE"
	.size	.L.str.120, 106

	.type	.L.str.121,@object              # @.str.121
.L.str.121:
	.asciz	"c5852db2-7acb-cba3-7f81-e7ef3cd1d3b8FF>>callable:1,functionName:FF_function_244,AUTOGENERATED:T,ID:ae5,CHECKSUM:EB45"
	.size	.L.str.121, 117

	.type	.L.str.122,@object              # @.str.122
.L.str.122:
	.asciz	"c5852db2-7acb-cba3-7f81-e7ef3cd1d3b8FF>>functionName:FF_function_244,AUTOGENERATED:T,ID:ae6,CHECKSUM:0672"
	.size	.L.str.122, 106

	.type	.L.str.123,@object              # @.str.123
.L.str.123:
	.asciz	"c5852db2-7acb-cba3-7f81-e7ef3cd1d3b8FF>>callable:1,functionName:FF_function_239,AUTOGENERATED:T,ID:ae7,CHECKSUM:EEA6"
	.size	.L.str.123, 117

	.type	.L.str.124,@object              # @.str.124
.L.str.124:
	.asciz	"c5852db2-7acb-cba3-7f81-e7ef3cd1d3b8FF>>functionName:FF_function_239,AUTOGENERATED:T,ID:ae8,CHECKSUM:0691"
	.size	.L.str.124, 106

	.type	.L.str.125,@object              # @.str.125
.L.str.125:
	.asciz	"c5852db2-7acb-cba3-7f81-e7ef3cd1d3b8FF>>callable:1,functionName:FF_function_230,AUTOGENERATED:T,ID:ae9,CHECKSUM:559D"
	.size	.L.str.125, 117

	.type	.L.str.126,@object              # @.str.126
.L.str.126:
	.asciz	"c5852db2-7acb-cba3-7f81-e7ef3cd1d3b8FF>>functionName:FF_function_230,AUTOGENERATED:T,ID:aea,CHECKSUM:43EB"
	.size	.L.str.126, 106

	.type	.L.str.127,@object              # @.str.127
.L.str.127:
	.asciz	"c5852db2-7acb-cba3-7f81-e7ef3cd1d3b8FF>>callable:1,functionName:FF_function_229,AUTOGENERATED:T,ID:aeb,CHECKSUM:2832"
	.size	.L.str.127, 117

	.type	.L__const.FF_function_229.FF_x,@object # @__const.FF_function_229.FF_x
	.section	.rodata,"a",@progbits
	.p2align	2
.L__const.FF_function_229.FF_x:
	.long	0                               # 0x0
	.long	0x3f000000                      # float 0.5
	.long	0
	.size	.L__const.FF_function_229.FF_x, 12

	.type	.L.str.128,@object              # @.str.128
	.section	.rodata.str1.1,"aMS",@progbits,1
.L.str.128:
	.asciz	"c5852db2-7acb-cba3-7f81-e7ef3cd1d3b8FF>>functionName:FF_function_229,AUTOGENERATED:T,ID:aec,CHECKSUM:0484"
	.size	.L.str.128, 106

	.type	.L.str.129,@object              # @.str.129
.L.str.129:
	.asciz	"c5852db2-7acb-cba3-7f81-e7ef3cd1d3b8FF>>callable:1,functionName:FF_function_226,AUTOGENERATED:T,ID:aed,CHECKSUM:EAC3"
	.size	.L.str.129, 117

	.type	.L.str.130,@object              # @.str.130
.L.str.130:
	.asciz	"c5852db2-7acb-cba3-7f81-e7ef3cd1d3b8FF>>functionName:FF_function_226,AUTOGENERATED:T,ID:aee,CHECKSUM:C675"
	.size	.L.str.130, 106

	.type	.L.str.131,@object              # @.str.131
.L.str.131:
	.asciz	"c5852db2-7acb-cba3-7f81-e7ef3cd1d3b8FF>>callable:1,functionName:FF_function_295,AUTOGENERATED:T,ID:aef,CHECKSUM:D5F3"
	.size	.L.str.131, 117

	.type	.L.str.132,@object              # @.str.132
.L.str.132:
	.asciz	"c5852db2-7acb-cba3-7f81-e7ef3cd1d3b8FF>>functionName:FF_function_295,AUTOGENERATED:T,ID:af0,CHECKSUM:F704"
	.size	.L.str.132, 106

	.type	.L.str.133,@object              # @.str.133
.L.str.133:
	.asciz	"c5852db2-7acb-cba3-7f81-e7ef3cd1d3b8FF>>callable:1,functionName:CF_function_294,AUTOGENERATED:T,ID:af1,CHECKSUM:613F"
	.size	.L.str.133, 117

	.type	.L.str.134,@object              # @.str.134
.L.str.134:
	.asciz	"c5852db2-7acb-cba3-7f81-e7ef3cd1d3b8CF>>LOOPID:1638,PLID:-1,EBR:T,loopcom:WHILE,NESTLEV:0,UNR:NU,finitude:PFL,EEX:T,location:BEFORE,ID:981,EGA:T,CHECKSUM:4473"
	.size	.L.str.134, 159

	.type	.L.str.135,@object              # @.str.135
.L.str.135:
	.asciz	"c5852db2-7acb-cba3-7f81-e7ef3cd1d3b8CF>>LOOPID:1638,location:BODY,ID:982,CHECKSUM:49A6"
	.size	.L.str.135, 87

	.type	.L.str.136,@object              # @.str.136
.L.str.136:
	.asciz	"c5852db2-7acb-cba3-7f81-e7ef3cd1d3b8CF>>LOOPID:1638,location:UNDEFINED,ID:983,DUMMY:T,CHECKSUM:C83A"
	.size	.L.str.136, 100

	.type	.L.str.137,@object              # @.str.137
.L.str.137:
	.asciz	"c5852db2-7acb-cba3-7f81-e7ef3cd1d3b8CF>>LVN:CF_LV1634,loopcom:WHILE,LVT:FLOAT,LOOPID:1634,INEXP:2144.53,UPEXP:+=13.10,PLID:1638,UNRIT:5,NESTLEV:1,TSEXP:<=2209.5,UNR:U-,finitude:PFL,location:BEFORE,ID:984,CHECKSUM:AAC9"
	.size	.L.str.137, 218

	.type	.L.str.138,@object              # @.str.138
.L.str.138:
	.asciz	"c5852db2-7acb-cba3-7f81-e7ef3cd1d3b8CF>>LOOPID:1634,location:BODY,ID:985,CHECKSUM:DE2B"
	.size	.L.str.138, 87

	.type	.L.str.139,@object              # @.str.139
.L.str.139:
	.asciz	"c5852db2-7acb-cba3-7f81-e7ef3cd1d3b8CF>>LOOPID:1634,location:AFTER,ID:986,CHECKSUM:6962"
	.size	.L.str.139, 88

	.type	.L.str.140,@object              # @.str.140
.L.str.140:
	.asciz	"c5852db2-7acb-cba3-7f81-e7ef3cd1d3b8CF>>LOOPID:1634,location:UNDEFINED,ID:987,DUMMY:T,CHECKSUM:09D4"
	.size	.L.str.140, 100

	.type	.L.str.141,@object              # @.str.141
.L.str.141:
	.asciz	"c5852db2-7acb-cba3-7f81-e7ef3cd1d3b8CF>>LOOPID:1635,EBM:T,PLID:1638,EBR:T,loopcom:FOR,IGE:T,NESTLEV:1,UNR:NU,finitude:PFL,location:BEFORE,ID:988,CHECKSUM:841B"
	.size	.L.str.141, 159

	.type	.L.str.142,@object              # @.str.142
.L.str.142:
	.asciz	"c5852db2-7acb-cba3-7f81-e7ef3cd1d3b8CF>>LOOPID:1635,location:BODY,ID:989,CHECKSUM:17FB"
	.size	.L.str.142, 87

	.type	.L.str.143,@object              # @.str.143
.L.str.143:
	.asciz	"c5852db2-7acb-cba3-7f81-e7ef3cd1d3b8CF>>LOOPID:1635,location:BEFORE_GOTO_BREAK_MULTIPLE,ID:98a,CHECKSUM:0B0E"
	.size	.L.str.143, 109

	.type	.L.str.144,@object              # @.str.144
.L.str.144:
	.asciz	"c5852db2-7acb-cba3-7f81-e7ef3cd1d3b8CF>>LOOPID:1635,location:UNDEFINED,ID:98b,DUMMY:T,CHECKSUM:9A3B"
	.size	.L.str.144, 100

	.type	.L.str.145,@object              # @.str.145
.L.str.145:
	.asciz	"c5852db2-7acb-cba3-7f81-e7ef3cd1d3b8CF>>LOOPID:1635,location:UNDEFINED,ID:98c,DUMMY:T,CHECKSUM:0A36"
	.size	.L.str.145, 100

	.type	.L.str.146,@object              # @.str.146
.L.str.146:
	.asciz	"c5852db2-7acb-cba3-7f81-e7ef3cd1d3b8CF>>LOOPID:1635,location:AFTER,ID:98d,CHECKSUM:082E"
	.size	.L.str.146, 88

	.type	.L.str.147,@object              # @.str.147
.L.str.147:
	.asciz	"c5852db2-7acb-cba3-7f81-e7ef3cd1d3b8CF>>LOOPID:1635,location:UNDEFINED,ID:98e,DUMMY:T,CHECKSUM:AA1D"
	.size	.L.str.147, 100

	.type	.L.str.148,@object              # @.str.148
.L.str.148:
	.asciz	"c5852db2-7acb-cba3-7f81-e7ef3cd1d3b8CF>>EGF:T,loopcom:DOWHILE,IGE:T,ICC:T,LOOPID:1636,EBM:T,PLID:1638,EBR:T,NESTLEV:1,UNR:NU,finitude:PFL,location:BEFORE,ID:98f,EXR:T,EGA:T,CHECKSUM:5A4B"
	.size	.L.str.148, 187

	.type	.L.str.149,@object              # @.str.149
.L.str.149:
	.asciz	"c5852db2-7acb-cba3-7f81-e7ef3cd1d3b8CF>>LOOPID:1636,location:BODY,ID:990,CHECKSUM:9449"
	.size	.L.str.149, 87

	.type	.L.str.150,@object              # @.str.150
.L.str.150:
	.asciz	"c5852db2-7acb-cba3-7f81-e7ef3cd1d3b8CF>>LOOPID:1636,location:UNDEFINED,ID:991,DUMMY:T,CHECKSUM:ACF5"
	.size	.L.str.150, 100

	.type	.L.str.151,@object              # @.str.151
.L.str.151:
	.asciz	"c5852db2-7acb-cba3-7f81-e7ef3cd1d3b8CF>>LOOPID:1636,location:BEFORE_GOTO_FURTHER_AFTER,ID:992,CHECKSUM:BEEA"
	.size	.L.str.151, 108

	.type	.L.str.152,@object              # @.str.152
.L.str.152:
	.asciz	"c5852db2-7acb-cba3-7f81-e7ef3cd1d3b8CF>>LOOPID:1636,location:BEFORE_GOTO_BREAK_MULTIPLE,ID:993,CHECKSUM:94CD"
	.size	.L.str.152, 109

	.type	.L.str.153,@object              # @.str.153
.L.str.153:
	.asciz	"c5852db2-7acb-cba3-7f81-e7ef3cd1d3b8CF>>LOOPID:1636,location:UNDEFINED,ID:994,DUMMY:T,CHECKSUM:FCCA"
	.size	.L.str.153, 100

	.type	.L.str.154,@object              # @.str.154
.L.str.154:
	.asciz	"c5852db2-7acb-cba3-7f81-e7ef3cd1d3b8CF>>LOOPID:1636,location:AFTER,ID:995,CHECKSUM:81BA"
	.size	.L.str.154, 88

	.type	.L.str.155,@object              # @.str.155
.L.str.155:
	.asciz	"c5852db2-7acb-cba3-7f81-e7ef3cd1d3b8CF>>LOOPID:1636,location:UNDEFINED,ID:996,DUMMY:T,CHECKSUM:9CD3"
	.size	.L.str.155, 100

	.type	.L.str.156,@object              # @.str.156
.L.str.156:
	.asciz	"c5852db2-7acb-cba3-7f81-e7ef3cd1d3b8CF>>LOOPID:1637,EBM:T,PLID:1638,EBR:T,EGF:T,loopcom:FOR,NESTLEV:1,ICC:T,UNR:NU,finitude:PFL,location:BEFORE,ID:997,CHECKSUM:3422"
	.size	.L.str.156, 165

	.type	.L.str.157,@object              # @.str.157
.L.str.157:
	.asciz	"c5852db2-7acb-cba3-7f81-e7ef3cd1d3b8CF>>LOOPID:1637,location:BODY,ID:998,CHECKSUM:9E98"
	.size	.L.str.157, 87

	.type	.L.str.158,@object              # @.str.158
.L.str.158:
	.asciz	"c5852db2-7acb-cba3-7f81-e7ef3cd1d3b8CF>>LOOPID:1637,location:BEFORE_GOTO_FURTHER_AFTER,ID:999,CHECKSUM:3869"
	.size	.L.str.158, 108

	.type	.L.str.159,@object              # @.str.159
.L.str.159:
	.asciz	"c5852db2-7acb-cba3-7f81-e7ef3cd1d3b8CF>>LOOPID:1637,location:BEFORE_GOTO_BREAK_MULTIPLE,ID:99a,CHECKSUM:F88C"
	.size	.L.str.159, 109

	.type	.L.str.160,@object              # @.str.160
.L.str.160:
	.asciz	"c5852db2-7acb-cba3-7f81-e7ef3cd1d3b8CF>>LOOPID:1637,location:UNDEFINED,ID:99b,DUMMY:T,CHECKSUM:9F31"
	.size	.L.str.160, 100

	.type	.L.str.161,@object              # @.str.161
.L.str.161:
	.asciz	"c5852db2-7acb-cba3-7f81-e7ef3cd1d3b8CF>>LOOPID:1637,location:AFTER,ID:99c,CHECKSUM:23F7"
	.size	.L.str.161, 88

	.type	.L.str.162,@object              # @.str.162
.L.str.162:
	.asciz	"c5852db2-7acb-cba3-7f81-e7ef3cd1d3b8CF>>LVN:CF_LV1633,loopcom:FOR,LVT:INT,LOOPID:1633,INEXP:2596,UPEXP:++,PLID:1638,UNRIT:9,NESTLEV:1,TSEXP:!=2605.0,UNR:U-,finitude:PFL,location:BEFORE,ID:99d,CHECKSUM:73FF"
	.size	.L.str.162, 206

	.type	.L.str.163,@object              # @.str.163
.L.str.163:
	.asciz	"c5852db2-7acb-cba3-7f81-e7ef3cd1d3b8CF>>LOOPID:1633,location:BODY,ID:99e,CHECKSUM:941C"
	.size	.L.str.163, 87

	.type	.L.str.164,@object              # @.str.164
.L.str.164:
	.asciz	"c5852db2-7acb-cba3-7f81-e7ef3cd1d3b8CF>>LOOPID:1633,location:AFTER,ID:99f,CHECKSUM:D305"
	.size	.L.str.164, 88

	.type	.L.str.165,@object              # @.str.165
.L.str.165:
	.asciz	"c5852db2-7acb-cba3-7f81-e7ef3cd1d3b8CF>>LOOPID:1633,location:UNDEFINED,ID:9a0,DUMMY:T,CHECKSUM:97E3"
	.size	.L.str.165, 100

	.type	.L.str.166,@object              # @.str.166
.L.str.166:
	.asciz	"c5852db2-7acb-cba3-7f81-e7ef3cd1d3b8CF>>LOOPID:1638,location:UNDEFINED,ID:9a1,DUMMY:T,CHECKSUM:C6F0"
	.size	.L.str.166, 100

	.type	.L.str.167,@object              # @.str.167
.L.str.167:
	.asciz	"c5852db2-7acb-cba3-7f81-e7ef3cd1d3b8CF>>LOOPID:1638,location:AFTER,ID:9a2,CHECKSUM:AF0C"
	.size	.L.str.167, 88

	.type	.L.str.168,@object              # @.str.168
.L.str.168:
	.asciz	"c5852db2-7acb-cba3-7f81-e7ef3cd1d3b8CF>>LOOPID:1638,location:UNDEFINED,ID:9a3,DUMMY:T,CHECKSUM:A6E9"
	.size	.L.str.168, 100

	.type	.L.str.169,@object              # @.str.169
.L.str.169:
	.asciz	"c5852db2-7acb-cba3-7f81-e7ef3cd1d3b8FF>>functionName:CF_function_294,AUTOGENERATED:T,ID:af2,CHECKSUM:8C08"
	.size	.L.str.169, 106

	.type	.L.str.170,@object              # @.str.170
.L.str.170:
	.asciz	"c5852db2-7acb-cba3-7f81-e7ef3cd1d3b8FF>>callable:1,functionName:CF_function_296,AUTOGENERATED:T,ID:af3,CHECKSUM:CA07"
	.size	.L.str.170, 117

	.type	.L.str.171,@object              # @.str.171
.L.str.171:
	.asciz	"c5852db2-7acb-cba3-7f81-e7ef3cd1d3b8CF>>loopcom:WHILE,IGE:T,ICC:T,LOOPID:1642,PLID:-1,NESTLEV:0,UNR:NU,finitude:PFL,EEX:T,location:BEFORE,ID:9a4,EXR:T,EGA:T,CHECKSUM:D0C2"
	.size	.L.str.171, 171

	.type	.L.str.172,@object              # @.str.172
.L.str.172:
	.asciz	"c5852db2-7acb-cba3-7f81-e7ef3cd1d3b8CF>>LOOPID:1642,location:BODY,ID:9a5,CHECKSUM:B291"
	.size	.L.str.172, 87

	.type	.L.str.173,@object              # @.str.173
.L.str.173:
	.asciz	"c5852db2-7acb-cba3-7f81-e7ef3cd1d3b8CF>>LOOPID:1642,location:UNDEFINED,ID:9a6,DUMMY:T,CHECKSUM:66A5"
	.size	.L.str.173, 100

	.type	.L.str.174,@object              # @.str.174
.L.str.174:
	.asciz	"c5852db2-7acb-cba3-7f81-e7ef3cd1d3b8CF>>LOOPID:1642,location:UNDEFINED,ID:9a7,DUMMY:T,CHECKSUM:F6A8"
	.size	.L.str.174, 100

	.type	.L.str.175,@object              # @.str.175
.L.str.175:
	.asciz	"c5852db2-7acb-cba3-7f81-e7ef3cd1d3b8CF>>LOOPID:1642,location:UNDEFINED,ID:9a8,DUMMY:T,CHECKSUM:06E9"
	.size	.L.str.175, 100

	.type	.L.str.176,@object              # @.str.176
.L.str.176:
	.asciz	"c5852db2-7acb-cba3-7f81-e7ef3cd1d3b8CF>>LOOPID:1642,location:UNDEFINED,ID:9a9,DUMMY:T,CHECKSUM:96E4"
	.size	.L.str.176, 100

	.type	.L.str.177,@object              # @.str.177
.L.str.177:
	.asciz	"c5852db2-7acb-cba3-7f81-e7ef3cd1d3b8CF>>LOOPID:1642,location:UNDEFINED,ID:9aa,DUMMY:T,CHECKSUM:557F"
	.size	.L.str.177, 100

	.type	.L.str.178,@object              # @.str.178
.L.str.178:
	.asciz	"c5852db2-7acb-cba3-7f81-e7ef3cd1d3b8CF>>LOOPID:1642,location:UNDEFINED,ID:9ab,DUMMY:T,CHECKSUM:A56B"
	.size	.L.str.178, 100

	.type	.L.str.179,@object              # @.str.179
.L.str.179:
	.asciz	"c5852db2-7acb-cba3-7f81-e7ef3cd1d3b8CF>>LOOPID:1642,location:UNDEFINED,ID:9ac,DUMMY:T,CHECKSUM:3566"
	.size	.L.str.179, 100

	.type	.L.str.180,@object              # @.str.180
.L.str.180:
	.asciz	"c5852db2-7acb-cba3-7f81-e7ef3cd1d3b8CF>>LOOPID:1642,location:UNDEFINED,ID:9ad,DUMMY:T,CHECKSUM:0540"
	.size	.L.str.180, 100

	.type	.L.str.181,@object              # @.str.181
.L.str.181:
	.asciz	"c5852db2-7acb-cba3-7f81-e7ef3cd1d3b8CF>>LOOPID:1642,location:UNDEFINED,ID:9ae,DUMMY:T,CHECKSUM:954D"
	.size	.L.str.181, 100

	.type	.L.str.182,@object              # @.str.182
.L.str.182:
	.asciz	"c5852db2-7acb-cba3-7f81-e7ef3cd1d3b8CF>>LOOPID:1642,location:UNDEFINED,ID:9af,DUMMY:T,CHECKSUM:6559"
	.size	.L.str.182, 100

	.type	.L.str.183,@object              # @.str.183
.L.str.183:
	.asciz	"c5852db2-7acb-cba3-7f81-e7ef3cd1d3b8CF>>LOOPID:1642,location:UNDEFINED,ID:9b0,DUMMY:T,CHECKSUM:C97E"
	.size	.L.str.183, 100

	.type	.L.str.184,@object              # @.str.184
.L.str.184:
	.asciz	"c5852db2-7acb-cba3-7f81-e7ef3cd1d3b8CF>>LOOPID:1642,location:UNDEFINED,ID:9b1,DUMMY:T,CHECKSUM:5973"
	.size	.L.str.184, 100

	.type	.L.str.185,@object              # @.str.185
.L.str.185:
	.asciz	"c5852db2-7acb-cba3-7f81-e7ef3cd1d3b8CF>>LOOPID:1648,PLID:1642,EGF:T,loopcom:DOWHILE,IGE:T,NESTLEV:1,UNR:NU,finitude:PFL,EEX:T,location:BEFORE,ID:9b2,CHECKSUM:4AED"
	.size	.L.str.185, 163

	.type	.L.str.186,@object              # @.str.186
.L.str.186:
	.asciz	"c5852db2-7acb-cba3-7f81-e7ef3cd1d3b8CF>>LOOPID:1648,location:BODY,ID:9b3,CHECKSUM:3F3B"
	.size	.L.str.186, 87

	.type	.L.str.187,@object              # @.str.187
.L.str.187:
	.asciz	"c5852db2-7acb-cba3-7f81-e7ef3cd1d3b8CF>>LOOPID:1648,location:UNDEFINED,ID:9b4,DUMMY:T,CHECKSUM:087E"
	.size	.L.str.187, 100

	.type	.L.str.188,@object              # @.str.188
.L.str.188:
	.asciz	"c5852db2-7acb-cba3-7f81-e7ef3cd1d3b8CF>>LOOPID:1648,location:BEFORE_GOTO_FURTHER_AFTER,ID:9b5,CHECKSUM:334C"
	.size	.L.str.188, 108

	.type	.L.str.189,@object              # @.str.189
.L.str.189:
	.asciz	"c5852db2-7acb-cba3-7f81-e7ef3cd1d3b8CF>>LOOPID:1643,EBM:T,PLID:1648,loopcom:WHILE,IGE:T,NESTLEV:2,UNR:NU,finitude:PFL,location:BEFORE,ID:9b6,EGA:T,CHECKSUM:D6CA"
	.size	.L.str.189, 161

	.type	.L.str.190,@object              # @.str.190
.L.str.190:
	.asciz	"c5852db2-7acb-cba3-7f81-e7ef3cd1d3b8CF>>LOOPID:1643,location:BODY,ID:9b7,CHECKSUM:4FC0"
	.size	.L.str.190, 87

	.type	.L.str.191,@object              # @.str.191
.L.str.191:
	.asciz	"c5852db2-7acb-cba3-7f81-e7ef3cd1d3b8CF>>LOOPID:1643,location:UNDEFINED,ID:9b8,DUMMY:T,CHECKSUM:C935"
	.size	.L.str.191, 100

	.type	.L.str.192,@object              # @.str.192
.L.str.192:
	.asciz	"c5852db2-7acb-cba3-7f81-e7ef3cd1d3b8CF>>LOOPID:1643,location:BEFORE_GOTO_BREAK_MULTIPLE,ID:9b9,CHECKSUM:0644"
	.size	.L.str.192, 109

	.type	.L.str.193,@object              # @.str.193
.L.str.193:
	.asciz	"c5852db2-7acb-cba3-7f81-e7ef3cd1d3b8CF>>LOOPID:1643,location:AFTER,ID:9ba,CHECKSUM:0BE9"
	.size	.L.str.193, 88

	.type	.L.str.194,@object              # @.str.194
.L.str.194:
	.asciz	"c5852db2-7acb-cba3-7f81-e7ef3cd1d3b8CF>>LOOPID:1645,EBM:T,PLID:1648,loopcom:FOR,NESTLEV:2,UNR:NU,finitude:PFL,location:BEFORE,ID:9bb,EXR:T,CHECKSUM:4A9F"
	.size	.L.str.194, 153

	.type	.L.str.195,@object              # @.str.195
.L.str.195:
	.asciz	"c5852db2-7acb-cba3-7f81-e7ef3cd1d3b8CF>>LOOPID:1645,location:BODY,ID:9bc,CHECKSUM:9A27"
	.size	.L.str.195, 87

	.type	.L.str.196,@object              # @.str.196
.L.str.196:
	.asciz	"c5852db2-7acb-cba3-7f81-e7ef3cd1d3b8CF>>LOOPID:1645,location:UNDEFINED,ID:9bd,DUMMY:T,CHECKSUM:CA72"
	.size	.L.str.196, 100

	.type	.L.str.197,@object              # @.str.197
.L.str.197:
	.asciz	"c5852db2-7acb-cba3-7f81-e7ef3cd1d3b8CF>>LOOPID:1645,location:BEFORE_GOTO_BREAK_MULTIPLE,ID:9be,CHECKSUM:9BC1"
	.size	.L.str.197, 109

	.type	.L.str.198,@object              # @.str.198
.L.str.198:
	.asciz	"c5852db2-7acb-cba3-7f81-e7ef3cd1d3b8CF>>LOOPID:1645,location:UNDEFINED,ID:9bf,DUMMY:T,CHECKSUM:AA6B"
	.size	.L.str.198, 100

	.type	.L.str.199,@object              # @.str.199
.L.str.199:
	.asciz	"c5852db2-7acb-cba3-7f81-e7ef3cd1d3b8CF>>LOOPID:1645,location:UNDEFINED,ID:9c0,DUMMY:T,CHECKSUM:CCED"
	.size	.L.str.199, 100

	.type	.L.str.200,@object              # @.str.200
.L.str.200:
	.asciz	"c5852db2-7acb-cba3-7f81-e7ef3cd1d3b8CF>>LOOPID:1645,location:AFTER,ID:9c1,CHECKSUM:2D43"
	.size	.L.str.200, 88

	.type	.L.str.201,@object              # @.str.201
.L.str.201:
	.asciz	"c5852db2-7acb-cba3-7f81-e7ef3cd1d3b8CF>>LOOPID:1645,location:UNDEFINED,ID:9c2,DUMMY:T,CHECKSUM:ACF4"
	.size	.L.str.201, 100

	.type	.L.str.202,@object              # @.str.202
.L.str.202:
	.asciz	"c5852db2-7acb-cba3-7f81-e7ef3cd1d3b8CF>>LVN:CF_LV1646,loopcom:DOWHILE,LVT:INT,LOOPID:1646,INEXP:2565,UPEXP:--,PLID:1648,UNRIT:12,NESTLEV:2,TSEXP:!=2553.0,UNR:U+,finitude:PFL,location:BEFORE,ID:9c3,CHECKSUM:3C38"
	.size	.L.str.202, 211

	.type	.L.str.203,@object              # @.str.203
.L.str.203:
	.asciz	"c5852db2-7acb-cba3-7f81-e7ef3cd1d3b8CF>>LOOPID:1646,location:BODY,ID:9c4,__DECIMAL_FIELD__:%d,CHECKSUM:7E54"
	.size	.L.str.203, 108

	.type	.L.str.204,@object              # @.str.204
.L.str.204:
	.asciz	"c5852db2-7acb-cba3-7f81-e7ef3cd1d3b8CF>>LOOPID:1646,location:AFTER,ID:9c5,CHECKSUM:0B16"
	.size	.L.str.204, 88

	.type	.L.str.205,@object              # @.str.205
.L.str.205:
	.asciz	"c5852db2-7acb-cba3-7f81-e7ef3cd1d3b8CF>>LOOPID:1646,location:UNDEFINED,ID:9c6,DUMMY:T,CHECKSUM:6CB1"
	.size	.L.str.205, 100

	.type	.L.str.206,@object              # @.str.206
.L.str.206:
	.asciz	"c5852db2-7acb-cba3-7f81-e7ef3cd1d3b8CF>>LVN:CF_LV1647,loopcom:WHILE,LVT:INT,LOOPID:1647,INEXP:2951,UPEXP:+=5,PLID:1648,UNRIT:17,NESTLEV:2,TSEXP:<=3036.0,UNR:U+,finitude:PFL,location:BEFORE,ID:9c7,CHECKSUM:DF6D"
	.size	.L.str.206, 210

	.type	.L.str.207,@object              # @.str.207
.L.str.207:
	.asciz	"c5852db2-7acb-cba3-7f81-e7ef3cd1d3b8CF>>LOOPID:1647,location:BODY,ID:9c8,__DECIMAL_FIELD__:%d,CHECKSUM:6A5A"
	.size	.L.str.207, 108

	.type	.L.str.208,@object              # @.str.208
.L.str.208:
	.asciz	"c5852db2-7acb-cba3-7f81-e7ef3cd1d3b8CF>>LOOPID:1647,location:AFTER,ID:9c9,CHECKSUM:92DB"
	.size	.L.str.208, 88

	.type	.L.str.209,@object              # @.str.209
.L.str.209:
	.asciz	"c5852db2-7acb-cba3-7f81-e7ef3cd1d3b8CF>>LOOPID:1647,location:UNDEFINED,ID:9ca,DUMMY:T,CHECKSUM:9F47"
	.size	.L.str.209, 100

	.type	.L.str.210,@object              # @.str.210
.L.str.210:
	.asciz	"c5852db2-7acb-cba3-7f81-e7ef3cd1d3b8CF>>LVN:CF_LV1644,loopcom:FOR,LVT:FLOAT,LOOPID:1644,INEXP:2673.10,UPEXP:+=10.23,PLID:1648,UNRIT:6,NESTLEV:2,TSEXP:<2734.38,UNR:U-,finitude:PFL,location:BEFORE,ID:9cb,CHECKSUM:F21E"
	.size	.L.str.210, 216

	.type	.L.str.211,@object              # @.str.211
.L.str.211:
	.asciz	"c5852db2-7acb-cba3-7f81-e7ef3cd1d3b8CF>>LOOPID:1644,location:BODY,ID:9cc,CHECKSUM:C6F6"
	.size	.L.str.211, 87

	.type	.L.str.212,@object              # @.str.212
.L.str.212:
	.asciz	"c5852db2-7acb-cba3-7f81-e7ef3cd1d3b8CF>>LOOPID:1644,location:AFTER,ID:9cd,CHECKSUM:8E4E"
	.size	.L.str.212, 88

	.type	.L.str.213,@object              # @.str.213
.L.str.213:
	.asciz	"c5852db2-7acb-cba3-7f81-e7ef3cd1d3b8CF>>LOOPID:1644,location:UNDEFINED,ID:9ce,DUMMY:T,CHECKSUM:5F02"
	.size	.L.str.213, 100

	.type	.L.str.214,@object              # @.str.214
.L.str.214:
	.asciz	"c5852db2-7acb-cba3-7f81-e7ef3cd1d3b8CF>>LOOPID:1648,location:UNDEFINED,ID:9cf,DUMMY:T,CHECKSUM:AECA"
	.size	.L.str.214, 100

	.type	.L.str.215,@object              # @.str.215
.L.str.215:
	.asciz	"c5852db2-7acb-cba3-7f81-e7ef3cd1d3b8CF>>LOOPID:1648,location:AFTER,ID:9d0,CHECKSUM:1418"
	.size	.L.str.215, 88

	.type	.L.str.216,@object              # @.str.216
.L.str.216:
	.asciz	"c5852db2-7acb-cba3-7f81-e7ef3cd1d3b8CF>>LOOPID:1642,location:AFTER,ID:9d1,CHECKSUM:0B27"
	.size	.L.str.216, 88

	.type	.L.str.217,@object              # @.str.217
.L.str.217:
	.asciz	"c5852db2-7acb-cba3-7f81-e7ef3cd1d3b8CF>>LOOPID:1642,location:UNDEFINED,ID:9d2,DUMMY:T,CHECKSUM:B687"
	.size	.L.str.217, 100

	.type	.L.str.218,@object              # @.str.218
.L.str.218:
	.asciz	"c5852db2-7acb-cba3-7f81-e7ef3cd1d3b8FF>>functionName:CF_function_296,AUTOGENERATED:T,ID:af4,CHECKSUM:E431"
	.size	.L.str.218, 106

	.type	.L.str.219,@object              # @.str.219
.L.str.219:
	.asciz	"c5852db2-7acb-cba3-7f81-e7ef3cd1d3b8FF>>callable:1,functionName:FF_function_298,AUTOGENERATED:T,ID:af5,CHECKSUM:B27B"
	.size	.L.str.219, 117

	.type	.L.str.220,@object              # @.str.220
.L.str.220:
	.asciz	"c5852db2-7acb-cba3-7f81-e7ef3cd1d3b8FF>>functionName:FF_function_298,AUTOGENERATED:T,ID:af6,CHECKSUM:5F4C"
	.size	.L.str.220, 106

	.type	.L.str.221,@object              # @.str.221
.L.str.221:
	.asciz	"c5852db2-7acb-cba3-7f81-e7ef3cd1d3b8FF>>callable:1,functionName:CF_function_297,AUTOGENERATED:T,ID:af7,CHECKSUM:9C5B"
	.size	.L.str.221, 117

	.type	.L.str.222,@object              # @.str.222
.L.str.222:
	.asciz	"c5852db2-7acb-cba3-7f81-e7ef3cd1d3b8CF>>LVN:CF_LV1663,EGF:T,loopcom:WHILE,LVT:FLOAT,LOOPID:1663,INEXP:2.00,UPEXP:*=3.83,PLID:-1,EBR:T,NESTLEV:0,TSEXP:!=9747,UNR:NU,finitude:PFL,location:BEFORE,ID:9ec,EXR:T,CHECKSUM:CA68"
	.size	.L.str.222, 220

	.type	.L.str.223,@object              # @.str.223
.L.str.223:
	.asciz	"c5852db2-7acb-cba3-7f81-e7ef3cd1d3b8CF>>LOOPID:1663,location:BODY,__FLOAT_FIELD__:%f,ID:9ed,CHECKSUM:BD76"
	.size	.L.str.223, 106

	.type	.L.str.224,@object              # @.str.224
.L.str.224:
	.asciz	"c5852db2-7acb-cba3-7f81-e7ef3cd1d3b8CF>>LOOPID:1663,location:BEFORE_GOTO_FURTHER_AFTER,ID:9ee,CHECKSUM:109D"
	.size	.L.str.224, 108

	.type	.L.str.225,@object              # @.str.225
.L.str.225:
	.asciz	"c5852db2-7acb-cba3-7f81-e7ef3cd1d3b8CF>>LOOPID:1663,location:UNDEFINED,ID:9ef,DUMMY:T,CHECKSUM:8BB5"
	.size	.L.str.225, 100

	.type	.L.str.226,@object              # @.str.226
.L.str.226:
	.asciz	"c5852db2-7acb-cba3-7f81-e7ef3cd1d3b8CF>>LOOPID:1654,PLID:1663,loopcom:FOR,NESTLEV:1,ICC:T,UNR:NU,finitude:PFL,location:BEFORE,ID:9f0,EXR:T,CHECKSUM:2982"
	.size	.L.str.226, 153

	.type	.L.str.227,@object              # @.str.227
.L.str.227:
	.asciz	"c5852db2-7acb-cba3-7f81-e7ef3cd1d3b8CF>>LOOPID:1654,location:BODY,ID:9f1,CHECKSUM:F7B9"
	.size	.L.str.227, 87

	.type	.L.str.228,@object              # @.str.228
.L.str.228:
	.asciz	"c5852db2-7acb-cba3-7f81-e7ef3cd1d3b8CF>>LVN:CF_LV1657,loopcom:FOR,IGE:T,LVT:INT,LOOPID:1657,INEXP:6955,UPEXP:--,PLID:1654,EBR:T,NESTLEV:2,UNR:NU,finitude:PFL,EEX:T,location:BEFORE,ID:9f2,EXR:T,CHECKSUM:1203"
	.size	.L.str.228, 207

	.type	.L.str.229,@object              # @.str.229
.L.str.229:
	.asciz	"c5852db2-7acb-cba3-7f81-e7ef3cd1d3b8CF>>LOOPID:1657,location:BODY,ID:9f3,__DECIMAL_FIELD__:%d,CHECKSUM:279F"
	.size	.L.str.229, 108

	.type	.L.str.230,@object              # @.str.230
.L.str.230:
	.asciz	"c5852db2-7acb-cba3-7f81-e7ef3cd1d3b8CF>>LOOPID:1657,location:UNDEFINED,ID:9f4,DUMMY:T,CHECKSUM:0155"
	.size	.L.str.230, 100

	.type	.L.str.231,@object              # @.str.231
.L.str.231:
	.asciz	"c5852db2-7acb-cba3-7f81-e7ef3cd1d3b8CF>>LOOPID:1657,location:UNDEFINED,ID:9f5,DUMMY:T,CHECKSUM:9158"
	.size	.L.str.231, 100

	.type	.L.str.232,@object              # @.str.232
.L.str.232:
	.asciz	"c5852db2-7acb-cba3-7f81-e7ef3cd1d3b8CF>>LOOPID:1655,EBM:T,PLID:1657,EGF:T,loopcom:DOWHILE,NESTLEV:3,ICC:T,UNR:NU,finitude:PFL,EEX:T,location:BEFORE,ID:9f6,CHECKSUM:D74F"
	.size	.L.str.232, 169

	.type	.L.str.233,@object              # @.str.233
.L.str.233:
	.asciz	"c5852db2-7acb-cba3-7f81-e7ef3cd1d3b8CF>>LOOPID:1655,location:BODY,ID:9f7,CHECKSUM:39E9"
	.size	.L.str.233, 87

	.type	.L.str.234,@object              # @.str.234
.L.str.234:
	.asciz	"c5852db2-7acb-cba3-7f81-e7ef3cd1d3b8CF>>LOOPID:1655,location:BEFORE_GOTO_FURTHER_AFTER,ID:9f8,CHECKSUM:2F90"
	.size	.L.str.234, 108

	.type	.L.str.235,@object              # @.str.235
.L.str.235:
	.asciz	"c5852db2-7acb-cba3-7f81-e7ef3cd1d3b8CF>>LOOPID:1655,location:BEFORE_GOTO_BREAK_MULTIPLE,ID:9f9,CHECKSUM:3252"
	.size	.L.str.235, 109

	.type	.L.str.236,@object              # @.str.236
.L.str.236:
	.asciz	"c5852db2-7acb-cba3-7f81-e7ef3cd1d3b8CF>>LOOPID:1655,location:AFTER,ID:9fa,CHECKSUM:D41D"
	.size	.L.str.236, 88

	.type	.L.str.237,@object              # @.str.237
.L.str.237:
	.asciz	"c5852db2-7acb-cba3-7f81-e7ef3cd1d3b8CF>>LOOPID:1655,location:UNDEFINED,ID:9fb,DUMMY:T,CHECKSUM:62D9"
	.size	.L.str.237, 100

	.type	.L.str.238,@object              # @.str.238
.L.str.238:
	.asciz	"c5852db2-7acb-cba3-7f81-e7ef3cd1d3b8CF>>LVN:CF_LV1656,loopcom:WHILE,LVT:FLOAT,LOOPID:1656,INEXP:2105.99,UPEXP:-=13.04,PLID:1657,UNRIT:12,NESTLEV:3,TSEXP:>1948.52,UNR:U-,finitude:PFL,location:BEFORE,ID:9fc,CHECKSUM:2485"
	.size	.L.str.238, 219

	.type	.L.str.239,@object              # @.str.239
.L.str.239:
	.asciz	"c5852db2-7acb-cba3-7f81-e7ef3cd1d3b8CF>>LOOPID:1656,location:BODY,ID:9fd,CHECKSUM:11DA"
	.size	.L.str.239, 87

	.type	.L.str.240,@object              # @.str.240
.L.str.240:
	.asciz	"c5852db2-7acb-cba3-7f81-e7ef3cd1d3b8CF>>LOOPID:1656,location:AFTER,ID:9fe,CHECKSUM:F248"
	.size	.L.str.240, 88

	.type	.L.str.241,@object              # @.str.241
.L.str.241:
	.asciz	"c5852db2-7acb-cba3-7f81-e7ef3cd1d3b8CF>>LVN:CF_LV1658,loopcom:DOWHILE,LVT:INT,LOOPID:1658,INEXP:2685,UPEXP:++,PLID:1657,UNRIT:11,NESTLEV:3,TSEXP:<=2696.0,UNR:U+,finitude:PFL,location:BEFORE,ID:9ff,CHECKSUM:2EBD"
	.size	.L.str.241, 211

	.type	.L.str.242,@object              # @.str.242
.L.str.242:
	.asciz	"c5852db2-7acb-cba3-7f81-e7ef3cd1d3b8CF>>LOOPID:1658,location:BODY,ID:a00,__DECIMAL_FIELD__:%d,CHECKSUM:24FD"
	.size	.L.str.242, 108

	.type	.L.str.243,@object              # @.str.243
.L.str.243:
	.asciz	"c5852db2-7acb-cba3-7f81-e7ef3cd1d3b8CF>>LOOPID:1658,location:AFTER,ID:a01,CHECKSUM:523B"
	.size	.L.str.243, 88

	.type	.L.str.244,@object              # @.str.244
.L.str.244:
	.asciz	"c5852db2-7acb-cba3-7f81-e7ef3cd1d3b8CF>>LOOPID:1658,location:UNDEFINED,ID:a02,DUMMY:T,CHECKSUM:9F1D"
	.size	.L.str.244, 100

	.type	.L.str.245,@object              # @.str.245
.L.str.245:
	.asciz	"c5852db2-7acb-cba3-7f81-e7ef3cd1d3b8CF>>LVN:CF_LV1659,loopcom:WHILE,LVT:FLOAT,LOOPID:1659,INEXP:2193.08,UPEXP:-=3.75,PLID:1657,UNRIT:8,NESTLEV:3,TSEXP:>2163.0,UNR:U+,finitude:PFL,location:BEFORE,ID:a03,CHECKSUM:9EC3"
	.size	.L.str.245, 216

	.type	.L.str.246,@object              # @.str.246
.L.str.246:
	.asciz	"c5852db2-7acb-cba3-7f81-e7ef3cd1d3b8CF>>LOOPID:1659,location:BODY,__FLOAT_FIELD__:%f,ID:a04,CHECKSUM:D7F6"
	.size	.L.str.246, 106

	.type	.L.str.247,@object              # @.str.247
.L.str.247:
	.asciz	"c5852db2-7acb-cba3-7f81-e7ef3cd1d3b8CF>>LOOPID:1659,location:AFTER,ID:a05,CHECKSUM:0DF7"
	.size	.L.str.247, 88

	.type	.L.str.248,@object              # @.str.248
.L.str.248:
	.asciz	"c5852db2-7acb-cba3-7f81-e7ef3cd1d3b8CF>>LOOPID:1659,location:UNDEFINED,ID:a06,DUMMY:T,CHECKSUM:9F03"
	.size	.L.str.248, 100

	.type	.L.str.249,@object              # @.str.249
.L.str.249:
	.asciz	"c5852db2-7acb-cba3-7f81-e7ef3cd1d3b8CF>>LVN:CF_LV1660,loopcom:WHILE,LVT:FLOAT,LOOPID:1660,INEXP:2823.52,UPEXP:++,PLID:1657,UNRIT:10,NESTLEV:3,TSEXP:<2833.0,UNR:U+,finitude:PFL,location:BEFORE,ID:a07,CHECKSUM:5FB7"
	.size	.L.str.249, 213

	.type	.L.str.250,@object              # @.str.250
.L.str.250:
	.asciz	"c5852db2-7acb-cba3-7f81-e7ef3cd1d3b8CF>>LOOPID:1660,location:BODY,__FLOAT_FIELD__:%f,ID:a08,CHECKSUM:80C2"
	.size	.L.str.250, 106

	.type	.L.str.251,@object              # @.str.251
.L.str.251:
	.asciz	"c5852db2-7acb-cba3-7f81-e7ef3cd1d3b8CF>>LOOPID:1660,location:AFTER,ID:a09,CHECKSUM:CDB9"
	.size	.L.str.251, 88

	.type	.L.str.252,@object              # @.str.252
.L.str.252:
	.asciz	"c5852db2-7acb-cba3-7f81-e7ef3cd1d3b8CF>>LOOPID:1660,location:UNDEFINED,ID:a0a,DUMMY:T,CHECKSUM:8BDC"
	.size	.L.str.252, 100

	.type	.L.str.253,@object              # @.str.253
.L.str.253:
	.asciz	"c5852db2-7acb-cba3-7f81-e7ef3cd1d3b8CF>>LVN:CF_LV1661,loopcom:DOWHILE,ICC:T,LVT:FLOAT,LOOPID:1661,INEXP:7.89,UPEXP:+=getchar(),EBM:T,PLID:1657,EBR:T,NESTLEV:3,TSEXP:!=6991,UNR:NU,finitude:PFL,EEX:T,location:BEFORE,ID:a0b,CHECKSUM:980E"
	.size	.L.str.253, 235

	.type	.L.str.254,@object              # @.str.254
.L.str.254:
	.asciz	"c5852db2-7acb-cba3-7f81-e7ef3cd1d3b8CF>>LOOPID:1661,location:BODY,__FLOAT_FIELD__:%f,ID:a0c,CHECKSUM:C684"
	.size	.L.str.254, 106

	.type	.L.str.255,@object              # @.str.255
.L.str.255:
	.asciz	"c5852db2-7acb-cba3-7f81-e7ef3cd1d3b8CF>>LOOPID:1661,location:UNDEFINED,ID:a0d,DUMMY:T,CHECKSUM:1BCF"
	.size	.L.str.255, 100

	.type	.L.str.256,@object              # @.str.256
.L.str.256:
	.asciz	"c5852db2-7acb-cba3-7f81-e7ef3cd1d3b8CF>>LOOPID:1661,location:BEFORE_GOTO_BREAK_MULTIPLE,ID:a0e,CHECKSUM:4E59"
	.size	.L.str.256, 109

	.type	.L.str.257,@object              # @.str.257
.L.str.257:
	.asciz	"c5852db2-7acb-cba3-7f81-e7ef3cd1d3b8CF>>LOOPID:1661,location:AFTER,ID:a0f,CHECKSUM:6934"
	.size	.L.str.257, 88

	.type	.L.str.258,@object              # @.str.258
.L.str.258:
	.asciz	"c5852db2-7acb-cba3-7f81-e7ef3cd1d3b8CF>>LOOPID:1661,location:UNDEFINED,ID:a10,DUMMY:T,CHECKSUM:1D50"
	.size	.L.str.258, 100

	.type	.L.str.259,@object              # @.str.259
.L.str.259:
	.asciz	"c5852db2-7acb-cba3-7f81-e7ef3cd1d3b8CF>>EGF:T,loopcom:DOWHILE,ICC:T,LOOPID:1662,EBM:T,PLID:1657,EBR:T,NESTLEV:3,UNR:NU,finitude:PFL,location:BEFORE,ID:a11,EXR:T,EGA:T,CHECKSUM:F9F5"
	.size	.L.str.259, 181

	.type	.L.str.260,@object              # @.str.260
.L.str.260:
	.asciz	"c5852db2-7acb-cba3-7f81-e7ef3cd1d3b8CF>>LOOPID:1662,location:BODY,ID:a12,CHECKSUM:DAF4"
	.size	.L.str.260, 87

	.type	.L.str.261,@object              # @.str.261
.L.str.261:
	.asciz	"c5852db2-7acb-cba3-7f81-e7ef3cd1d3b8CF>>LOOPID:1662,location:UNDEFINED,ID:a13,DUMMY:T,CHECKSUM:ED33"
	.size	.L.str.261, 100

	.type	.L.str.262,@object              # @.str.262
.L.str.262:
	.asciz	"c5852db2-7acb-cba3-7f81-e7ef3cd1d3b8CF>>LOOPID:1662,location:BEFORE_GOTO_FURTHER_AFTER,ID:a14,CHECKSUM:BE21"
	.size	.L.str.262, 108

	.type	.L.str.263,@object              # @.str.263
.L.str.263:
	.asciz	"c5852db2-7acb-cba3-7f81-e7ef3cd1d3b8CF>>LOOPID:1662,location:BEFORE_GOTO_BREAK_MULTIPLE,ID:a15,CHECKSUM:101B"
	.size	.L.str.263, 109

	.type	.L.str.264,@object              # @.str.264
.L.str.264:
	.asciz	"c5852db2-7acb-cba3-7f81-e7ef3cd1d3b8CF>>LOOPID:1662,location:UNDEFINED,ID:a16,DUMMY:T,CHECKSUM:BD0C"
	.size	.L.str.264, 100

	.type	.L.str.265,@object              # @.str.265
.L.str.265:
	.asciz	"c5852db2-7acb-cba3-7f81-e7ef3cd1d3b8CF>>LOOPID:1662,location:UNDEFINED,ID:a17,DUMMY:T,CHECKSUM:2D01"
	.size	.L.str.265, 100

	.type	.L.str.266,@object              # @.str.266
.L.str.266:
	.asciz	"c5852db2-7acb-cba3-7f81-e7ef3cd1d3b8CF>>LOOPID:1662,location:AFTER,ID:a18,CHECKSUM:E4E0"
	.size	.L.str.266, 88

	.type	.L.str.267,@object              # @.str.267
.L.str.267:
	.asciz	"c5852db2-7acb-cba3-7f81-e7ef3cd1d3b8CF>>LOOPID:1662,location:UNDEFINED,ID:a19,DUMMY:T,CHECKSUM:4D4D"
	.size	.L.str.267, 100

	.type	.L.str.268,@object              # @.str.268
.L.str.268:
	.asciz	"c5852db2-7acb-cba3-7f81-e7ef3cd1d3b8CF>>LVN:CF_LV1653,loopcom:WHILE,LVT:INT,LOOPID:1653,INEXP:2136,UPEXP:++,PLID:1657,UNRIT:5,NESTLEV:3,TSEXP:<2141.0,UNR:U+,finitude:PFL,location:BEFORE,ID:a1a,CHECKSUM:2184"
	.size	.L.str.268, 207

	.type	.L.str.269,@object              # @.str.269
.L.str.269:
	.asciz	"c5852db2-7acb-cba3-7f81-e7ef3cd1d3b8CF>>LOOPID:1653,location:BODY,ID:a1b,__DECIMAL_FIELD__:%d,CHECKSUM:1496"
	.size	.L.str.269, 108

	.type	.L.str.270,@object              # @.str.270
.L.str.270:
	.asciz	"c5852db2-7acb-cba3-7f81-e7ef3cd1d3b8CF>>LOOPID:1653,location:AFTER,ID:a1c,CHECKSUM:7C88"
	.size	.L.str.270, 88

	.type	.L.str.271,@object              # @.str.271
.L.str.271:
	.asciz	"c5852db2-7acb-cba3-7f81-e7ef3cd1d3b8CF>>LOOPID:1653,location:UNDEFINED,ID:a1d,DUMMY:T,CHECKSUM:3885"
	.size	.L.str.271, 100

	.type	.L.str.272,@object              # @.str.272
.L.str.272:
	.asciz	"c5852db2-7acb-cba3-7f81-e7ef3cd1d3b8CF>>LOOPID:1657,location:AFTER,ID:a1e,CHECKSUM:8D3A"
	.size	.L.str.272, 88

	.type	.L.str.273,@object              # @.str.273
.L.str.273:
	.asciz	"c5852db2-7acb-cba3-7f81-e7ef3cd1d3b8CF>>LOOPID:1654,location:UNDEFINED,ID:a1f,DUMMY:T,CHECKSUM:985E"
	.size	.L.str.273, 100

	.type	.L.str.274,@object              # @.str.274
.L.str.274:
	.asciz	"c5852db2-7acb-cba3-7f81-e7ef3cd1d3b8CF>>LOOPID:1654,location:AFTER,ID:a20,CHECKSUM:A7AE"
	.size	.L.str.274, 88

	.type	.L.str.275,@object              # @.str.275
.L.str.275:
	.asciz	"c5852db2-7acb-cba3-7f81-e7ef3cd1d3b8CF>>LOOPID:1654,location:UNDEFINED,ID:a21,DUMMY:T,CHECKSUM:A474"
	.size	.L.str.275, 100

	.type	.L.str.276,@object              # @.str.276
.L.str.276:
	.asciz	"c5852db2-7acb-cba3-7f81-e7ef3cd1d3b8CF>>LOOPID:1663,location:AFTER,ID:a22,CHECKSUM:8FAD"
	.size	.L.str.276, 88

	.type	.L.str.277,@object              # @.str.277
.L.str.277:
	.asciz	"c5852db2-7acb-cba3-7f81-e7ef3cd1d3b8CF>>LOOPID:1663,location:UNDEFINED,ID:a23,DUMMY:T,CHECKSUM:22EF"
	.size	.L.str.277, 100

	.type	.L.str.278,@object              # @.str.278
.L.str.278:
	.asciz	"c5852db2-7acb-cba3-7f81-e7ef3cd1d3b8FF>>functionName:CF_function_297,AUTOGENERATED:T,ID:af8,CHECKSUM:746C"
	.size	.L.str.278, 106

	.type	.L.str.279,@object              # @.str.279
.L.str.279:
	.asciz	"c5852db2-7acb-cba3-7f81-e7ef3cd1d3b8FF>>callable:1,functionName:CF_function_299,AUTOGENERATED:T,ID:af9,CHECKSUM:0DF6"
	.size	.L.str.279, 117

	.type	.L.str.280,@object              # @.str.280
.L.str.280:
	.asciz	"c5852db2-7acb-cba3-7f81-e7ef3cd1d3b8CF>>LOOPID:1669,EBM:T,PLID:-1,loopcom:FOR,NESTLEV:0,UNR:NU,finitude:PFL,EEX:T,location:BEFORE,ID:a3c,CHECKSUM:575B"
	.size	.L.str.280, 151

	.type	.L.str.281,@object              # @.str.281
.L.str.281:
	.asciz	"c5852db2-7acb-cba3-7f81-e7ef3cd1d3b8CF>>LOOPID:1669,location:BODY,ID:a3d,CHECKSUM:378F"
	.size	.L.str.281, 87

	.type	.L.str.282,@object              # @.str.282
.L.str.282:
	.asciz	"c5852db2-7acb-cba3-7f81-e7ef3cd1d3b8CF>>LOOPID:1669,location:UNDEFINED,ID:a3e,DUMMY:T,CHECKSUM:455B"
	.size	.L.str.282, 100

	.type	.L.str.283,@object              # @.str.283
.L.str.283:
	.asciz	"c5852db2-7acb-cba3-7f81-e7ef3cd1d3b8CF>>EGF:T,loopcom:WHILE,ICC:T,LOOPID:1670,PLID:1669,EBR:T,NESTLEV:1,UNR:NU,finitude:PFL,EEX:T,location:BEFORE,ID:a3f,EXR:T,EGA:T,CHECKSUM:4AD8"
	.size	.L.str.283, 179

	.type	.L.str.284,@object              # @.str.284
.L.str.284:
	.asciz	"c5852db2-7acb-cba3-7f81-e7ef3cd1d3b8CF>>LOOPID:1670,location:BODY,ID:a40,CHECKSUM:0E18"
	.size	.L.str.284, 87

	.type	.L.str.285,@object              # @.str.285
.L.str.285:
	.asciz	"c5852db2-7acb-cba3-7f81-e7ef3cd1d3b8CF>>LOOPID:1670,location:BEFORE_GOTO_FURTHER_AFTER,ID:a41,CHECKSUM:FFA6"
	.size	.L.str.285, 108

	.type	.L.str.286,@object              # @.str.286
.L.str.286:
	.asciz	"c5852db2-7acb-cba3-7f81-e7ef3cd1d3b8CF>>LOOPID:1670,location:UNDEFINED,ID:a42,DUMMY:T,CHECKSUM:70B4"
	.size	.L.str.286, 100

	.type	.L.str.287,@object              # @.str.287
.L.str.287:
	.asciz	"c5852db2-7acb-cba3-7f81-e7ef3cd1d3b8CF>>LOOPID:1674,PLID:1670,EBR:T,loopcom:FOR,NESTLEV:2,UNR:NU,finitude:PFL,location:BEFORE,ID:a43,EXR:T,CHECKSUM:CAFF"
	.size	.L.str.287, 153

	.type	.L.str.288,@object              # @.str.288
.L.str.288:
	.asciz	"c5852db2-7acb-cba3-7f81-e7ef3cd1d3b8CF>>LOOPID:1674,location:BODY,ID:a44,CHECKSUM:3E5C"
	.size	.L.str.288, 87

	.type	.L.str.289,@object              # @.str.289
.L.str.289:
	.asciz	"c5852db2-7acb-cba3-7f81-e7ef3cd1d3b8CF>>LOOPID:1674,location:UNDEFINED,ID:a45,DUMMY:T,CHECKSUM:8027"
	.size	.L.str.289, 100

	.type	.L.str.290,@object              # @.str.290
.L.str.290:
	.asciz	"c5852db2-7acb-cba3-7f81-e7ef3cd1d3b8CF>>LOOPID:1672,PLID:1674,EBR:T,loopcom:WHILE,NESTLEV:3,ICC:T,UNR:NU,finitude:PFL,EEX:T,location:BEFORE,ID:a46,EXR:T,CHECKSUM:9BE2"
	.size	.L.str.290, 167

	.type	.L.str.291,@object              # @.str.291
.L.str.291:
	.asciz	"c5852db2-7acb-cba3-7f81-e7ef3cd1d3b8CF>>LOOPID:1672,location:BODY,ID:a47,CHECKSUM:15FA"
	.size	.L.str.291, 87

	.type	.L.str.292,@object              # @.str.292
.L.str.292:
	.asciz	"c5852db2-7acb-cba3-7f81-e7ef3cd1d3b8CF>>LOOPID:1672,location:UNDEFINED,ID:a48,DUMMY:T,CHECKSUM:1091"
	.size	.L.str.292, 100

	.type	.L.str.293,@object              # @.str.293
.L.str.293:
	.asciz	"c5852db2-7acb-cba3-7f81-e7ef3cd1d3b8CF>>LOOPID:1672,location:UNDEFINED,ID:a49,DUMMY:T,CHECKSUM:809C"
	.size	.L.str.293, 100

	.type	.L.str.294,@object              # @.str.294
.L.str.294:
	.asciz	"c5852db2-7acb-cba3-7f81-e7ef3cd1d3b8CF>>LOOPID:1671,EBM:T,PLID:1672,EGF:T,loopcom:DOWHILE,NESTLEV:4,UNR:NU,finitude:PFL,location:BEFORE,ID:a4a,CHECKSUM:2043"
	.size	.L.str.294, 157

	.type	.L.str.295,@object              # @.str.295
.L.str.295:
	.asciz	"c5852db2-7acb-cba3-7f81-e7ef3cd1d3b8CF>>LOOPID:1671,location:BODY,ID:a4b,CHECKSUM:3F49"
	.size	.L.str.295, 87

	.type	.L.str.296,@object              # @.str.296
.L.str.296:
	.asciz	"c5852db2-7acb-cba3-7f81-e7ef3cd1d3b8CF>>LOOPID:1671,location:UNDEFINED,ID:a4c,DUMMY:T,CHECKSUM:2369"
	.size	.L.str.296, 100

	.type	.L.str.297,@object              # @.str.297
.L.str.297:
	.asciz	"c5852db2-7acb-cba3-7f81-e7ef3cd1d3b8CF>>LOOPID:1671,location:BEFORE_GOTO_FURTHER_AFTER,ID:a4d,CHECKSUM:81A4"
	.size	.L.str.297, 108

	.type	.L.str.298,@object              # @.str.298
.L.str.298:
	.asciz	"c5852db2-7acb-cba3-7f81-e7ef3cd1d3b8CF>>LOOPID:1671,location:BEFORE_GOTO_BREAK_MULTIPLE,ID:a4e,CHECKSUM:DECA"
	.size	.L.str.298, 109

	.type	.L.str.299,@object              # @.str.299
.L.str.299:
	.asciz	"c5852db2-7acb-cba3-7f81-e7ef3cd1d3b8CF>>LOOPID:1671,location:UNDEFINED,ID:a4f,DUMMY:T,CHECKSUM:7356"
	.size	.L.str.299, 100

	.type	.L.str.300,@object              # @.str.300
.L.str.300:
	.asciz	"c5852db2-7acb-cba3-7f81-e7ef3cd1d3b8CF>>LOOPID:1671,location:AFTER,ID:a50,CHECKSUM:92EA"
	.size	.L.str.300, 88

	.type	.L.str.301,@object              # @.str.301
.L.str.301:
	.asciz	"c5852db2-7acb-cba3-7f81-e7ef3cd1d3b8CF>>LOOPID:1671,location:UNDEFINED,ID:a51,DUMMY:T,CHECKSUM:85DD"
	.size	.L.str.301, 100

	.type	.L.str.302,@object              # @.str.302
.L.str.302:
	.asciz	"c5852db2-7acb-cba3-7f81-e7ef3cd1d3b8CF>>LVN:CF_LV1673,loopcom:DOWHILE,LVT:INT,LOOPID:1673,INEXP:2673,UPEXP:-=13,PLID:1672,UNRIT:15,NESTLEV:4,TSEXP:>=2478.0,UNR:U-,finitude:PFL,location:BEFORE,ID:a52,CHECKSUM:3FEF"
	.size	.L.str.302, 213

	.type	.L.str.303,@object              # @.str.303
.L.str.303:
	.asciz	"c5852db2-7acb-cba3-7f81-e7ef3cd1d3b8CF>>LOOPID:1673,location:BODY,ID:a53,CHECKSUM:8A2A"
	.size	.L.str.303, 87

	.type	.L.str.304,@object              # @.str.304
.L.str.304:
	.asciz	"c5852db2-7acb-cba3-7f81-e7ef3cd1d3b8CF>>LOOPID:1673,location:AFTER,ID:a54,CHECKSUM:2872"
	.size	.L.str.304, 88

	.type	.L.str.305,@object              # @.str.305
.L.str.305:
	.asciz	"c5852db2-7acb-cba3-7f81-e7ef3cd1d3b8CF>>LOOPID:1672,location:UNDEFINED,ID:a55,DUMMY:T,CHECKSUM:4598"
	.size	.L.str.305, 100

	.type	.L.str.306,@object              # @.str.306
.L.str.306:
	.asciz	"c5852db2-7acb-cba3-7f81-e7ef3cd1d3b8CF>>LOOPID:1672,location:AFTER,ID:a56,CHECKSUM:753E"
	.size	.L.str.306, 88

	.type	.L.str.307,@object              # @.str.307
.L.str.307:
	.asciz	"c5852db2-7acb-cba3-7f81-e7ef3cd1d3b8CF>>LOOPID:1672,location:UNDEFINED,ID:a57,DUMMY:T,CHECKSUM:2581"
	.size	.L.str.307, 100

	.type	.L.str.308,@object              # @.str.308
.L.str.308:
	.asciz	"c5852db2-7acb-cba3-7f81-e7ef3cd1d3b8CF>>LOOPID:1674,location:AFTER,ID:a58,CHECKSUM:3B14"
	.size	.L.str.308, 88

	.type	.L.str.309,@object              # @.str.309
.L.str.309:
	.asciz	"c5852db2-7acb-cba3-7f81-e7ef3cd1d3b8CF>>LOOPID:1674,location:UNDEFINED,ID:a59,DUMMY:T,CHECKSUM:4523"
	.size	.L.str.309, 100

	.type	.L.str.310,@object              # @.str.310
.L.str.310:
	.asciz	"c5852db2-7acb-cba3-7f81-e7ef3cd1d3b8CF>>LOOPID:1670,location:AFTER,ID:a5a,CHECKSUM:F2E6"
	.size	.L.str.310, 88

	.type	.L.str.311,@object              # @.str.311
.L.str.311:
	.asciz	"c5852db2-7acb-cba3-7f81-e7ef3cd1d3b8CF>>LOOPID:1670,location:UNDEFINED,ID:a5b,DUMMY:T,CHECKSUM:B619"
	.size	.L.str.311, 100

	.type	.L.str.312,@object              # @.str.312
.L.str.312:
	.asciz	"c5852db2-7acb-cba3-7f81-e7ef3cd1d3b8CF>>LOOPID:1669,location:UNDEFINED,ID:a5c,DUMMY:T,CHECKSUM:FA90"
	.size	.L.str.312, 100

	.type	.L.str.313,@object              # @.str.313
.L.str.313:
	.asciz	"c5852db2-7acb-cba3-7f81-e7ef3cd1d3b8CF>>LOOPID:1669,location:AFTER,ID:a5d,CHECKSUM:5ED1"
	.size	.L.str.313, 88

	.type	.L.str.314,@object              # @.str.314
.L.str.314:
	.asciz	"c5852db2-7acb-cba3-7f81-e7ef3cd1d3b8CF>>LOOPID:1669,location:UNDEFINED,ID:a5e,DUMMY:T,CHECKSUM:5ABB"
	.size	.L.str.314, 100

	.type	.L.str.315,@object              # @.str.315
.L.str.315:
	.asciz	"c5852db2-7acb-cba3-7f81-e7ef3cd1d3b8FF>>functionName:CF_function_299,AUTOGENERATED:T,ID:afa,CHECKSUM:1B80"
	.size	.L.str.315, 106

	.type	.L.str.316,@object              # @.str.316
.L.str.316:
	.asciz	"c5852db2-7acb-cba3-7f81-e7ef3cd1d3b8FF>>callable:1,functionName:main,AUTOGENERATED:T,ID:afb,CHECKSUM:5818"
	.size	.L.str.316, 106

	.type	.L.str.317,@object              # @.str.317
.L.str.317:
	.asciz	"c5852db2-7acb-cba3-7f81-e7ef3cd1d3b8MD>>ID:978,version:1.0.0,CHECKSUM:2F96"
	.size	.L.str.317, 75

	.type	.L.str.318,@object              # @.str.318
.L.str.318:
	.asciz	"c5852db2-7acb-cba3-7f81-e7ef3cd1d3b8CF>>ID:979,CHECKSUM:433A"
	.size	.L.str.318, 61

	.type	.L.str.319,@object              # @.str.319
.L.str.319:
	.asciz	"c5852db2-7acb-cba3-7f81-e7ef3cd1d3b8CF>>ID:97a,CHECKSUM:B93B"
	.size	.L.str.319, 61

	.type	.L.str.320,@object              # @.str.320
.L.str.320:
	.asciz	"c5852db2-7acb-cba3-7f81-e7ef3cd1d3b8CF>>ID:97b,CHECKSUM:B87B"
	.size	.L.str.320, 61

	.type	.L.str.321,@object              # @.str.321
.L.str.321:
	.asciz	"c5852db2-7acb-cba3-7f81-e7ef3cd1d3b8CF>>ID:97c,CHECKSUM:78BA"
	.size	.L.str.321, 61

	.type	.L.str.322,@object              # @.str.322
.L.str.322:
	.asciz	"c5852db2-7acb-cba3-7f81-e7ef3cd1d3b8CF>>LVN:CF_LV1630,loopcom:WHILE,ICC:T,LVT:INT,LOOPID:1630,INEXP:5181,UPEXP:/=3,EBM:T,PLID:-1,EBR:T,NESTLEV:0,TSEXP:>=5,UNR:NU,finitude:PFL,location:BEFORE,ID:97d,EXR:T,EGA:T,CHECKSUM:0F8F"
	.size	.L.str.322, 224

	.type	.L.str.323,@object              # @.str.323
.L.str.323:
	.asciz	"c5852db2-7acb-cba3-7f81-e7ef3cd1d3b8CF>>LOOPID:1630,location:BODY,ID:97e,__DECIMAL_FIELD__:%d,CHECKSUM:B6D0"
	.size	.L.str.323, 108

	.type	.L.str.324,@object              # @.str.324
.L.str.324:
	.asciz	"c5852db2-7acb-cba3-7f81-e7ef3cd1d3b8CF>>LOOPID:1630,location:AFTER,ID:97f,CHECKSUM:5655"
	.size	.L.str.324, 88

	.type	.L.str.325,@object              # @.str.325
.L.str.325:
	.asciz	"c5852db2-7acb-cba3-7f81-e7ef3cd1d3b8CF>>LOOPID:1630,location:UNDEFINED,ID:980,DUMMY:T,CHECKSUM:F947"
	.size	.L.str.325, 100

	.type	.L.str.326,@object              # @.str.326
.L.str.326:
	.asciz	"c5852db2-7acb-cba3-7f81-e7ef3cd1d3b8CF>>ID:9d3,CHECKSUM:B486"
	.size	.L.str.326, 61

	.type	.L.str.327,@object              # @.str.327
.L.str.327:
	.asciz	"c5852db2-7acb-cba3-7f81-e7ef3cd1d3b8CF>>ID:9d4,CHECKSUM:76C7"
	.size	.L.str.327, 61

	.type	.L.str.328,@object              # @.str.328
.L.str.328:
	.asciz	"c5852db2-7acb-cba3-7f81-e7ef3cd1d3b8CF>>ID:9d5,CHECKSUM:B606"
	.size	.L.str.328, 61

	.type	.L.str.329,@object              # @.str.329
.L.str.329:
	.asciz	"c5852db2-7acb-cba3-7f81-e7ef3cd1d3b8CF>>ID:9d6,CHECKSUM:B746"
	.size	.L.str.329, 61

	.type	.L.str.330,@object              # @.str.330
.L.str.330:
	.asciz	"c5852db2-7acb-cba3-7f81-e7ef3cd1d3b8CF>>ID:9d7,CHECKSUM:7787"
	.size	.L.str.330, 61

	.type	.L.str.331,@object              # @.str.331
.L.str.331:
	.asciz	"c5852db2-7acb-cba3-7f81-e7ef3cd1d3b8CF>>ID:9d8,CHECKSUM:73C7"
	.size	.L.str.331, 61

	.type	.L.str.332,@object              # @.str.332
.L.str.332:
	.asciz	"c5852db2-7acb-cba3-7f81-e7ef3cd1d3b8CF>>ID:9d9,CHECKSUM:B306"
	.size	.L.str.332, 61

	.type	.L.str.333,@object              # @.str.333
.L.str.333:
	.asciz	"c5852db2-7acb-cba3-7f81-e7ef3cd1d3b8CF>>ID:9da,CHECKSUM:4907"
	.size	.L.str.333, 61

	.type	.L.str.334,@object              # @.str.334
.L.str.334:
	.asciz	"c5852db2-7acb-cba3-7f81-e7ef3cd1d3b8CF>>ID:9db,CHECKSUM:4847"
	.size	.L.str.334, 61

	.type	.L.str.335,@object              # @.str.335
.L.str.335:
	.asciz	"c5852db2-7acb-cba3-7f81-e7ef3cd1d3b8CF>>ID:9dc,CHECKSUM:8886"
	.size	.L.str.335, 61

	.type	.L.str.336,@object              # @.str.336
.L.str.336:
	.asciz	"c5852db2-7acb-cba3-7f81-e7ef3cd1d3b8CF>>ID:9dd,CHECKSUM:4AC7"
	.size	.L.str.336, 61

	.type	.L.str.337,@object              # @.str.337
.L.str.337:
	.asciz	"c5852db2-7acb-cba3-7f81-e7ef3cd1d3b8CF>>ID:9de,CHECKSUM:8A06"
	.size	.L.str.337, 61

	.type	.L.str.338,@object              # @.str.338
.L.str.338:
	.asciz	"c5852db2-7acb-cba3-7f81-e7ef3cd1d3b8CF>>ID:9df,CHECKSUM:8B46"
	.size	.L.str.338, 61

	.type	.L.str.339,@object              # @.str.339
.L.str.339:
	.asciz	"c5852db2-7acb-cba3-7f81-e7ef3cd1d3b8CF>>ID:9e0,CHECKSUM:25C7"
	.size	.L.str.339, 61

	.type	.L.str.340,@object              # @.str.340
.L.str.340:
	.asciz	"c5852db2-7acb-cba3-7f81-e7ef3cd1d3b8CF>>ID:9e1,CHECKSUM:E506"
	.size	.L.str.340, 61

	.type	.L.str.341,@object              # @.str.341
.L.str.341:
	.asciz	"c5852db2-7acb-cba3-7f81-e7ef3cd1d3b8CF>>ID:9e2,CHECKSUM:E446"
	.size	.L.str.341, 61

	.type	.L.str.342,@object              # @.str.342
.L.str.342:
	.asciz	"c5852db2-7acb-cba3-7f81-e7ef3cd1d3b8CF>>ID:9e3,CHECKSUM:2487"
	.size	.L.str.342, 61

	.type	.L.str.343,@object              # @.str.343
.L.str.343:
	.asciz	"c5852db2-7acb-cba3-7f81-e7ef3cd1d3b8CF>>ID:9e4,CHECKSUM:E6C6"
	.size	.L.str.343, 61

	.type	.L.str.344,@object              # @.str.344
.L.str.344:
	.asciz	"c5852db2-7acb-cba3-7f81-e7ef3cd1d3b8CF>>ID:9e5,CHECKSUM:2607"
	.size	.L.str.344, 61

	.type	.L.str.345,@object              # @.str.345
.L.str.345:
	.asciz	"c5852db2-7acb-cba3-7f81-e7ef3cd1d3b8CF>>ID:9e6,CHECKSUM:2747"
	.size	.L.str.345, 61

	.type	.L.str.346,@object              # @.str.346
.L.str.346:
	.asciz	"c5852db2-7acb-cba3-7f81-e7ef3cd1d3b8CF>>ID:9e7,CHECKSUM:E786"
	.size	.L.str.346, 61

	.type	.L.str.347,@object              # @.str.347
.L.str.347:
	.asciz	"c5852db2-7acb-cba3-7f81-e7ef3cd1d3b8CF>>ID:9e8,CHECKSUM:E3C6"
	.size	.L.str.347, 61

	.type	.L.str.348,@object              # @.str.348
.L.str.348:
	.asciz	"c5852db2-7acb-cba3-7f81-e7ef3cd1d3b8CF>>ID:9e9,CHECKSUM:2307"
	.size	.L.str.348, 61

	.type	.L.str.349,@object              # @.str.349
.L.str.349:
	.asciz	"c5852db2-7acb-cba3-7f81-e7ef3cd1d3b8CF>>ID:9ea,CHECKSUM:D906"
	.size	.L.str.349, 61

	.type	.L.str.350,@object              # @.str.350
.L.str.350:
	.asciz	"c5852db2-7acb-cba3-7f81-e7ef3cd1d3b8CF>>ID:9eb,CHECKSUM:D846"
	.size	.L.str.350, 61

	.type	.L.str.351,@object              # @.str.351
.L.str.351:
	.asciz	"c5852db2-7acb-cba3-7f81-e7ef3cd1d3b8CF>>ID:a24,CHECKSUM:0579"
	.size	.L.str.351, 61

	.type	.L.str.352,@object              # @.str.352
.L.str.352:
	.asciz	"c5852db2-7acb-cba3-7f81-e7ef3cd1d3b8CF>>ID:a25,CHECKSUM:C5B8"
	.size	.L.str.352, 61

	.type	.L.str.353,@object              # @.str.353
.L.str.353:
	.asciz	"c5852db2-7acb-cba3-7f81-e7ef3cd1d3b8CF>>ID:a26,CHECKSUM:C4F8"
	.size	.L.str.353, 61

	.type	.L.str.354,@object              # @.str.354
.L.str.354:
	.asciz	"c5852db2-7acb-cba3-7f81-e7ef3cd1d3b8CF>>ID:a27,CHECKSUM:0439"
	.size	.L.str.354, 61

	.type	.L.str.355,@object              # @.str.355
.L.str.355:
	.asciz	"c5852db2-7acb-cba3-7f81-e7ef3cd1d3b8CF>>ID:a28,CHECKSUM:0079"
	.size	.L.str.355, 61

	.type	.L.str.356,@object              # @.str.356
.L.str.356:
	.asciz	"c5852db2-7acb-cba3-7f81-e7ef3cd1d3b8CF>>ID:a29,CHECKSUM:C0B8"
	.size	.L.str.356, 61

	.type	.L.str.357,@object              # @.str.357
.L.str.357:
	.asciz	"c5852db2-7acb-cba3-7f81-e7ef3cd1d3b8CF>>ID:a2a,CHECKSUM:3AB9"
	.size	.L.str.357, 61

	.type	.L.str.358,@object              # @.str.358
.L.str.358:
	.asciz	"c5852db2-7acb-cba3-7f81-e7ef3cd1d3b8CF>>ID:a2b,CHECKSUM:3BF9"
	.size	.L.str.358, 61

	.type	.L.str.359,@object              # @.str.359
.L.str.359:
	.asciz	"c5852db2-7acb-cba3-7f81-e7ef3cd1d3b8CF>>ID:a2c,CHECKSUM:FB38"
	.size	.L.str.359, 61

	.type	.L.str.360,@object              # @.str.360
.L.str.360:
	.asciz	"c5852db2-7acb-cba3-7f81-e7ef3cd1d3b8CF>>ID:a2d,CHECKSUM:3979"
	.size	.L.str.360, 61

	.type	.L.str.361,@object              # @.str.361
.L.str.361:
	.asciz	"c5852db2-7acb-cba3-7f81-e7ef3cd1d3b8CF>>ID:a2e,CHECKSUM:F9B8"
	.size	.L.str.361, 61

	.type	.L.str.362,@object              # @.str.362
.L.str.362:
	.asciz	"c5852db2-7acb-cba3-7f81-e7ef3cd1d3b8CF>>ID:a2f,CHECKSUM:F8F8"
	.size	.L.str.362, 61

	.type	.L.str.363,@object              # @.str.363
.L.str.363:
	.asciz	"c5852db2-7acb-cba3-7f81-e7ef3cd1d3b8CF>>ID:a30,CHECKSUM:5679"
	.size	.L.str.363, 61

	.type	.L.str.364,@object              # @.str.364
.L.str.364:
	.asciz	"c5852db2-7acb-cba3-7f81-e7ef3cd1d3b8CF>>ID:a31,CHECKSUM:96B8"
	.size	.L.str.364, 61

	.type	.L.str.365,@object              # @.str.365
.L.str.365:
	.asciz	"c5852db2-7acb-cba3-7f81-e7ef3cd1d3b8CF>>ID:a32,CHECKSUM:97F8"
	.size	.L.str.365, 61

	.type	.L.str.366,@object              # @.str.366
.L.str.366:
	.asciz	"c5852db2-7acb-cba3-7f81-e7ef3cd1d3b8CF>>ID:a33,CHECKSUM:5739"
	.size	.L.str.366, 61

	.type	.L.str.367,@object              # @.str.367
.L.str.367:
	.asciz	"c5852db2-7acb-cba3-7f81-e7ef3cd1d3b8CF>>ID:a34,CHECKSUM:9578"
	.size	.L.str.367, 61

	.type	.L.str.368,@object              # @.str.368
.L.str.368:
	.asciz	"c5852db2-7acb-cba3-7f81-e7ef3cd1d3b8CF>>ID:a35,CHECKSUM:55B9"
	.size	.L.str.368, 61

	.type	.L.str.369,@object              # @.str.369
.L.str.369:
	.asciz	"c5852db2-7acb-cba3-7f81-e7ef3cd1d3b8CF>>ID:a36,CHECKSUM:54F9"
	.size	.L.str.369, 61

	.type	.L.str.370,@object              # @.str.370
.L.str.370:
	.asciz	"c5852db2-7acb-cba3-7f81-e7ef3cd1d3b8CF>>ID:a37,CHECKSUM:9438"
	.size	.L.str.370, 61

	.type	.L.str.371,@object              # @.str.371
.L.str.371:
	.asciz	"c5852db2-7acb-cba3-7f81-e7ef3cd1d3b8CF>>ID:a38,CHECKSUM:9078"
	.size	.L.str.371, 61

	.type	.L.str.372,@object              # @.str.372
.L.str.372:
	.asciz	"c5852db2-7acb-cba3-7f81-e7ef3cd1d3b8CF>>ID:a39,CHECKSUM:50B9"
	.size	.L.str.372, 61

	.type	.L.str.373,@object              # @.str.373
.L.str.373:
	.asciz	"c5852db2-7acb-cba3-7f81-e7ef3cd1d3b8CF>>ID:a3a,CHECKSUM:AAB8"
	.size	.L.str.373, 61

	.type	.L.str.374,@object              # @.str.374
.L.str.374:
	.asciz	"c5852db2-7acb-cba3-7f81-e7ef3cd1d3b8CF>>ID:a3b,CHECKSUM:ABF8"
	.size	.L.str.374, 61

	.type	.L.str.375,@object              # @.str.375
.L.str.375:
	.asciz	"c5852db2-7acb-cba3-7f81-e7ef3cd1d3b8FF>>functionName:main,AUTOGENERATED:T,ID:afc,CHECKSUM:FBA0"
	.size	.L.str.375, 95

	.ident	"Ubuntu clang version 14.0.0-1ubuntu1.1"
	.ident	"Ubuntu clang version 14.0.0-1ubuntu1.1"
	.section	".note.GNU-stack","",@progbits
