	.text
	.file	"llvm-link"
	.globl	functie_voor_datastructuren     # -- Begin function functie_voor_datastructuren
	.p2align	4, 0x90
	.type	functie_voor_datastructuren,@function
functie_voor_datastructuren:            # @functie_voor_datastructuren
	.cfi_startproc
# %bb.0:
	pushq	%rbx
	.cfi_def_cfa_offset 16
	.cfi_offset %rbx, -16
	movq	%rdi, %rbx
	movl	$.L.str, %edi
	xorl	%eax, %eax
	callq	printf@PLT
	xorps	%xmm0, %xmm0
	movups	%xmm0, (%rbx)
	movl	$.L.str.1, %edi
	xorl	%eax, %eax
	popq	%rbx
	.cfi_def_cfa_offset 8
	jmp	printf@PLT                      # TAILCALL
.Lfunc_end0:
	.size	functie_voor_datastructuren, .Lfunc_end0-functie_voor_datastructuren
	.cfi_endproc
                                        # -- End function
	.globl	FF_function_88                  # -- Begin function FF_function_88
	.p2align	4, 0x90
	.type	FF_function_88,@function
FF_function_88:                         # @FF_function_88
	.cfi_startproc
# %bb.0:
	pushq	%rax
	.cfi_def_cfa_offset 16
	movl	$.L.str.2, %edi
	xorl	%eax, %eax
	callq	printf@PLT
	movl	$.L.str.1.3, %edi
	xorl	%eax, %eax
	callq	printf@PLT
	movabsq	$4539628424389459968, %rax      # imm = 0x3F00000000000000
	xorl	%edx, %edx
	popq	%rcx
	.cfi_def_cfa_offset 8
	retq
.Lfunc_end1:
	.size	FF_function_88, .Lfunc_end1-FF_function_88
	.cfi_endproc
                                        # -- End function
	.globl	FF_function_89                  # -- Begin function FF_function_89
	.p2align	4, 0x90
	.type	FF_function_89,@function
FF_function_89:                         # @FF_function_89
	.cfi_startproc
# %bb.0:
	pushq	%rax
	.cfi_def_cfa_offset 16
	movl	$.L.str.2.4, %edi
	xorl	%eax, %eax
	callq	printf@PLT
	movl	$.L.str.3, %edi
	xorl	%eax, %eax
	callq	printf@PLT
	movabsq	$4539628424389459968, %rax      # imm = 0x3F00000000000000
	xorl	%edx, %edx
	popq	%rcx
	.cfi_def_cfa_offset 8
	retq
.Lfunc_end2:
	.size	FF_function_89, .Lfunc_end2-FF_function_89
	.cfi_endproc
                                        # -- End function
	.globl	FF_function_90                  # -- Begin function FF_function_90
	.p2align	4, 0x90
	.type	FF_function_90,@function
FF_function_90:                         # @FF_function_90
	.cfi_startproc
# %bb.0:
	pushq	%rax
	.cfi_def_cfa_offset 16
	movl	$.L.str.4, %edi
	xorl	%eax, %eax
	callq	printf@PLT
	movl	$.L.str.5, %edi
	xorl	%eax, %eax
	callq	printf@PLT
	movabsq	$4539628424389459968, %rax      # imm = 0x3F00000000000000
	xorl	%edx, %edx
	popq	%rcx
	.cfi_def_cfa_offset 8
	retq
.Lfunc_end3:
	.size	FF_function_90, .Lfunc_end3-FF_function_90
	.cfi_endproc
                                        # -- End function
	.globl	FF_function_91                  # -- Begin function FF_function_91
	.p2align	4, 0x90
	.type	FF_function_91,@function
FF_function_91:                         # @FF_function_91
	.cfi_startproc
# %bb.0:
	pushq	%rax
	.cfi_def_cfa_offset 16
	movl	$.L.str.6, %edi
	xorl	%eax, %eax
	callq	printf@PLT
	movl	$.L.str.7, %edi
	xorl	%eax, %eax
	callq	printf@PLT
	movabsq	$4539628424389459968, %rax      # imm = 0x3F00000000000000
	xorl	%edx, %edx
	popq	%rcx
	.cfi_def_cfa_offset 8
	retq
.Lfunc_end4:
	.size	FF_function_91, .Lfunc_end4-FF_function_91
	.cfi_endproc
                                        # -- End function
	.globl	FF_function_92                  # -- Begin function FF_function_92
	.p2align	4, 0x90
	.type	FF_function_92,@function
FF_function_92:                         # @FF_function_92
	.cfi_startproc
# %bb.0:
	pushq	%rax
	.cfi_def_cfa_offset 16
	movl	$.L.str.8, %edi
	xorl	%eax, %eax
	callq	printf@PLT
	movl	$.L.str.9, %edi
	xorl	%eax, %eax
	callq	printf@PLT
	movabsq	$4539628424389459968, %rax      # imm = 0x3F00000000000000
	xorl	%edx, %edx
	popq	%rcx
	.cfi_def_cfa_offset 8
	retq
.Lfunc_end5:
	.size	FF_function_92, .Lfunc_end5-FF_function_92
	.cfi_endproc
                                        # -- End function
	.globl	FF_function_93                  # -- Begin function FF_function_93
	.p2align	4, 0x90
	.type	FF_function_93,@function
FF_function_93:                         # @FF_function_93
	.cfi_startproc
# %bb.0:
	pushq	%rax
	.cfi_def_cfa_offset 16
	movl	$.L.str.10, %edi
	xorl	%eax, %eax
	callq	printf@PLT
	movl	$.L.str.11, %edi
	xorl	%eax, %eax
	callq	printf@PLT
	movabsq	$4539628424389459968, %rax      # imm = 0x3F00000000000000
	xorl	%edx, %edx
	popq	%rcx
	.cfi_def_cfa_offset 8
	retq
.Lfunc_end6:
	.size	FF_function_93, .Lfunc_end6-FF_function_93
	.cfi_endproc
                                        # -- End function
	.globl	FF_function_94                  # -- Begin function FF_function_94
	.p2align	4, 0x90
	.type	FF_function_94,@function
FF_function_94:                         # @FF_function_94
	.cfi_startproc
# %bb.0:
	pushq	%rax
	.cfi_def_cfa_offset 16
	movl	$.L.str.12, %edi
	xorl	%eax, %eax
	callq	printf@PLT
	movl	$.L.str.13, %edi
	xorl	%eax, %eax
	callq	printf@PLT
	movabsq	$4539628424389459968, %rax      # imm = 0x3F00000000000000
	xorl	%edx, %edx
	popq	%rcx
	.cfi_def_cfa_offset 8
	retq
.Lfunc_end7:
	.size	FF_function_94, .Lfunc_end7-FF_function_94
	.cfi_endproc
                                        # -- End function
	.globl	FF_function_95                  # -- Begin function FF_function_95
	.p2align	4, 0x90
	.type	FF_function_95,@function
FF_function_95:                         # @FF_function_95
	.cfi_startproc
# %bb.0:
	pushq	%rax
	.cfi_def_cfa_offset 16
	movl	$.L.str.14, %edi
	xorl	%eax, %eax
	callq	printf@PLT
	movl	$.L.str.15, %edi
	xorl	%eax, %eax
	callq	printf@PLT
	movabsq	$4539628424389459968, %rax      # imm = 0x3F00000000000000
	xorl	%edx, %edx
	popq	%rcx
	.cfi_def_cfa_offset 8
	retq
.Lfunc_end8:
	.size	FF_function_95, .Lfunc_end8-FF_function_95
	.cfi_endproc
                                        # -- End function
	.globl	FF_function_96                  # -- Begin function FF_function_96
	.p2align	4, 0x90
	.type	FF_function_96,@function
FF_function_96:                         # @FF_function_96
	.cfi_startproc
# %bb.0:
	pushq	%rax
	.cfi_def_cfa_offset 16
	movl	$.L.str.16, %edi
	xorl	%eax, %eax
	callq	printf@PLT
	movl	$.L.str.17, %edi
	xorl	%eax, %eax
	callq	printf@PLT
	movabsq	$4539628424389459968, %rax      # imm = 0x3F00000000000000
	xorl	%edx, %edx
	popq	%rcx
	.cfi_def_cfa_offset 8
	retq
.Lfunc_end9:
	.size	FF_function_96, .Lfunc_end9-FF_function_96
	.cfi_endproc
                                        # -- End function
	.globl	FF_function_97                  # -- Begin function FF_function_97
	.p2align	4, 0x90
	.type	FF_function_97,@function
FF_function_97:                         # @FF_function_97
	.cfi_startproc
# %bb.0:
	pushq	%rax
	.cfi_def_cfa_offset 16
	movl	$.L.str.18, %edi
	xorl	%eax, %eax
	callq	printf@PLT
	movl	$.L.str.19, %edi
	xorl	%eax, %eax
	callq	printf@PLT
	movabsq	$4539628424389459968, %rax      # imm = 0x3F00000000000000
	xorl	%edx, %edx
	popq	%rcx
	.cfi_def_cfa_offset 8
	retq
.Lfunc_end10:
	.size	FF_function_97, .Lfunc_end10-FF_function_97
	.cfi_endproc
                                        # -- End function
	.globl	FF_function_99                  # -- Begin function FF_function_99
	.p2align	4, 0x90
	.type	FF_function_99,@function
FF_function_99:                         # @FF_function_99
	.cfi_startproc
# %bb.0:
	pushq	%r14
	.cfi_def_cfa_offset 16
	pushq	%rbx
	.cfi_def_cfa_offset 24
	subq	$216, %rsp
	.cfi_def_cfa_offset 240
	.cfi_offset %rbx, -24
	.cfi_offset %r14, -16
	movq	%rsi, 40(%rsp)
	movq	%rdx, 48(%rsp)
	movq	%rcx, 56(%rsp)
	movq	%r8, 64(%rsp)
	movq	%r9, 72(%rsp)
	testb	%al, %al
	je	.LBB11_5
# %bb.4:
	movaps	%xmm0, 80(%rsp)
	movaps	%xmm1, 96(%rsp)
	movaps	%xmm2, 112(%rsp)
	movaps	%xmm3, 128(%rsp)
	movaps	%xmm4, 144(%rsp)
	movaps	%xmm5, 160(%rsp)
	movaps	%xmm6, 176(%rsp)
	movaps	%xmm7, 192(%rsp)
.LBB11_5:
	movl	$.L.str.20, %edi
	xorl	%eax, %eax
	callq	printf@PLT
	leaq	32(%rsp), %rax
	movq	%rax, 16(%rsp)
	leaq	240(%rsp), %rax
	movq	%rax, 8(%rsp)
	movabsq	$206158430216, %rax             # imm = 0x3000000008
	movq	%rax, (%rsp)
	movl	$8, %ecx
	cmpq	$32, %rcx
	ja	.LBB11_2
# %bb.1:
	movl	$8, %eax
	addq	16(%rsp), %rax
	addl	$16, %ecx
	movl	%ecx, (%rsp)
	jmp	.LBB11_3
.LBB11_2:
	movq	8(%rsp), %rax
	leaq	16(%rax), %rcx
	movq	%rcx, 8(%rsp)
.LBB11_3:
	movq	(%rax), %rbx
	movq	8(%rax), %r14
	xorl	%edi, %edi
	movl	$1, %esi
	xorl	%eax, %eax
	callq	FF_function_99
	xorl	%edi, %edi
	movl	$1, %esi
	movl	$2, %edx
	movl	$3, %ecx
	xorl	%eax, %eax
	callq	FF_function_99
	movl	$.L.str.21, %edi
	xorl	%eax, %eax
	callq	printf@PLT
	movq	%rbx, %rax
	movq	%r14, %rdx
	addq	$216, %rsp
	.cfi_def_cfa_offset 24
	popq	%rbx
	.cfi_def_cfa_offset 16
	popq	%r14
	.cfi_def_cfa_offset 8
	retq
.Lfunc_end11:
	.size	FF_function_99, .Lfunc_end11-FF_function_99
	.cfi_endproc
                                        # -- End function
	.globl	FF_function_101                 # -- Begin function FF_function_101
	.p2align	4, 0x90
	.type	FF_function_101,@function
FF_function_101:                        # @FF_function_101
	.cfi_startproc
# %bb.0:
	pushq	%rbx
	.cfi_def_cfa_offset 16
	subq	$208, %rsp
	.cfi_def_cfa_offset 224
	.cfi_offset %rbx, -16
	movq	%rsi, 40(%rsp)
	movq	%rdx, 48(%rsp)
	movq	%rcx, 56(%rsp)
	movq	%r8, 64(%rsp)
	movq	%r9, 72(%rsp)
	testb	%al, %al
	je	.LBB12_5
# %bb.4:
	movaps	%xmm0, 80(%rsp)
	movaps	%xmm1, 96(%rsp)
	movaps	%xmm2, 112(%rsp)
	movaps	%xmm3, 128(%rsp)
	movaps	%xmm4, 144(%rsp)
	movaps	%xmm5, 160(%rsp)
	movaps	%xmm6, 176(%rsp)
	movaps	%xmm7, 192(%rsp)
.LBB12_5:
	movl	$.L.str.22, %edi
	xorl	%eax, %eax
	callq	printf@PLT
	leaq	32(%rsp), %rax
	movq	%rax, 16(%rsp)
	leaq	224(%rsp), %rax
	movq	%rax, 8(%rsp)
	movabsq	$206158430216, %rax             # imm = 0x3000000008
	movq	%rax, (%rsp)
	movl	$8, %ecx
	cmpq	$40, %rcx
	ja	.LBB12_2
# %bb.1:
	movl	$8, %eax
	addq	16(%rsp), %rax
	addl	$8, %ecx
	movl	%ecx, (%rsp)
	jmp	.LBB12_3
.LBB12_2:
	movq	8(%rsp), %rax
	leaq	8(%rax), %rcx
	movq	%rcx, 8(%rsp)
.LBB12_3:
	movb	(%rax), %bl
	movl	$1, %esi
	xorl	%eax, %eax
	callq	FF_function_101
	movl	$1, %esi
	movl	$2, %edx
	movl	$3, %ecx
	xorl	%eax, %eax
	callq	FF_function_101
	movl	$.L.str.23, %edi
	xorl	%eax, %eax
	callq	printf@PLT
	movl	%ebx, %eax
	addq	$208, %rsp
	.cfi_def_cfa_offset 16
	popq	%rbx
	.cfi_def_cfa_offset 8
	retq
.Lfunc_end12:
	.size	FF_function_101, .Lfunc_end12-FF_function_101
	.cfi_endproc
                                        # -- End function
	.globl	FF_function_103                 # -- Begin function FF_function_103
	.p2align	4, 0x90
	.type	FF_function_103,@function
FF_function_103:                        # @FF_function_103
	.cfi_startproc
# %bb.0:
	pushq	%rbx
	.cfi_def_cfa_offset 16
	subq	$208, %rsp
	.cfi_def_cfa_offset 224
	.cfi_offset %rbx, -16
	movq	%rdi, 32(%rsp)
	movq	%rsi, 40(%rsp)
	movq	%rdx, 48(%rsp)
	movq	%rcx, 56(%rsp)
	movq	%r8, 64(%rsp)
	movq	%r9, 72(%rsp)
	testb	%al, %al
	je	.LBB13_5
# %bb.4:
	movaps	%xmm1, 96(%rsp)
	movaps	%xmm2, 112(%rsp)
	movaps	%xmm3, 128(%rsp)
	movaps	%xmm4, 144(%rsp)
	movaps	%xmm5, 160(%rsp)
	movaps	%xmm6, 176(%rsp)
	movaps	%xmm7, 192(%rsp)
.LBB13_5:
	movl	$.L.str.24, %edi
	xorl	%eax, %eax
	callq	printf@PLT
	leaq	32(%rsp), %rax
	movq	%rax, 16(%rsp)
	leaq	224(%rsp), %rax
	movq	%rax, 8(%rsp)
	movabsq	$274877906944, %rax             # imm = 0x4000000000
	movq	%rax, (%rsp)
	movl	$40, %eax
	negq	%rax
	ja	.LBB13_2
# %bb.1:
	movq	16(%rsp), %rax
	movl	$8, (%rsp)
	jmp	.LBB13_3
.LBB13_2:
	movq	8(%rsp), %rax
	leaq	8(%rax), %rcx
	movq	%rcx, 8(%rsp)
.LBB13_3:
	movq	(%rax), %rbx
	movl	$1, %edi
	movb	$1, %al
	callq	FF_function_103
	movl	$1, %edi
	movl	$2, %esi
	movl	$3, %edx
	movb	$1, %al
	callq	FF_function_103
	movl	$.L.str.25, %edi
	xorl	%eax, %eax
	callq	printf@PLT
	movq	%rbx, %rax
	addq	$208, %rsp
	.cfi_def_cfa_offset 16
	popq	%rbx
	.cfi_def_cfa_offset 8
	retq
.Lfunc_end13:
	.size	FF_function_103, .Lfunc_end13-FF_function_103
	.cfi_endproc
                                        # -- End function
	.globl	FF_function_112                 # -- Begin function FF_function_112
	.p2align	4, 0x90
	.type	FF_function_112,@function
FF_function_112:                        # @FF_function_112
	.cfi_startproc
# %bb.0:
	pushq	%rbx
	.cfi_def_cfa_offset 16
	subq	$208, %rsp
	.cfi_def_cfa_offset 224
	.cfi_offset %rbx, -16
	movq	%rdx, 48(%rsp)
	movq	%rcx, 56(%rsp)
	movq	%r8, 64(%rsp)
	movq	%r9, 72(%rsp)
	testb	%al, %al
	je	.LBB14_5
# %bb.4:
	movaps	%xmm0, 80(%rsp)
	movaps	%xmm1, 96(%rsp)
	movaps	%xmm2, 112(%rsp)
	movaps	%xmm3, 128(%rsp)
	movaps	%xmm4, 144(%rsp)
	movaps	%xmm5, 160(%rsp)
	movaps	%xmm6, 176(%rsp)
	movaps	%xmm7, 192(%rsp)
.LBB14_5:
	movl	$.L.str.26, %edi
	xorl	%eax, %eax
	callq	printf@PLT
	leaq	32(%rsp), %rax
	movq	%rax, 16(%rsp)
	leaq	224(%rsp), %rax
	movq	%rax, 8(%rsp)
	movabsq	$206158430224, %rax             # imm = 0x3000000010
	movq	%rax, (%rsp)
	movl	$16, %ecx
	cmpq	$40, %rcx
	ja	.LBB14_2
# %bb.1:
	movl	$16, %eax
	addq	16(%rsp), %rax
	addl	$8, %ecx
	movl	%ecx, (%rsp)
	jmp	.LBB14_3
.LBB14_2:
	movq	8(%rsp), %rax
	leaq	8(%rax), %rcx
	movq	%rcx, 8(%rsp)
.LBB14_3:
	movb	(%rax), %bl
	movl	$1, %edx
	xorl	%eax, %eax
	callq	FF_function_112
	movl	$1, %edx
	movl	$2, %ecx
	movl	$3, %r8d
	xorl	%eax, %eax
	callq	FF_function_112
	movl	$.L.str.27, %edi
	xorl	%eax, %eax
	callq	printf@PLT
	movl	%ebx, %eax
	addq	$208, %rsp
	.cfi_def_cfa_offset 16
	popq	%rbx
	.cfi_def_cfa_offset 8
	retq
.Lfunc_end14:
	.size	FF_function_112, .Lfunc_end14-FF_function_112
	.cfi_endproc
                                        # -- End function
	.globl	FF_function_117                 # -- Begin function FF_function_117
	.p2align	4, 0x90
	.type	FF_function_117,@function
FF_function_117:                        # @FF_function_117
	.cfi_startproc
# %bb.0:
	pushq	%rbx
	.cfi_def_cfa_offset 16
	subq	$208, %rsp
	.cfi_def_cfa_offset 224
	.cfi_offset %rbx, -16
	movq	%rsi, 40(%rsp)
	movq	%rdx, 48(%rsp)
	movq	%rcx, 56(%rsp)
	movq	%r8, 64(%rsp)
	movq	%r9, 72(%rsp)
	testb	%al, %al
	je	.LBB15_5
# %bb.4:
	movaps	%xmm0, 80(%rsp)
	movaps	%xmm1, 96(%rsp)
	movaps	%xmm2, 112(%rsp)
	movaps	%xmm3, 128(%rsp)
	movaps	%xmm4, 144(%rsp)
	movaps	%xmm5, 160(%rsp)
	movaps	%xmm6, 176(%rsp)
	movaps	%xmm7, 192(%rsp)
.LBB15_5:
	movl	$.L.str.28, %edi
	xorl	%eax, %eax
	callq	printf@PLT
	leaq	32(%rsp), %rax
	movq	%rax, 16(%rsp)
	leaq	224(%rsp), %rax
	movq	%rax, 8(%rsp)
	movabsq	$206158430216, %rax             # imm = 0x3000000008
	movq	%rax, (%rsp)
	movl	$8, %ecx
	cmpq	$40, %rcx
	ja	.LBB15_2
# %bb.1:
	movl	$8, %eax
	addq	16(%rsp), %rax
	addl	$8, %ecx
	movl	%ecx, (%rsp)
	jmp	.LBB15_3
.LBB15_2:
	movq	8(%rsp), %rax
	leaq	8(%rax), %rcx
	movq	%rcx, 8(%rsp)
.LBB15_3:
	movb	(%rax), %bl
	movl	$1, %esi
	xorl	%eax, %eax
	callq	FF_function_117
	movl	$1, %esi
	movl	$2, %edx
	movl	$3, %ecx
	xorl	%eax, %eax
	callq	FF_function_117
	movl	$.L.str.29, %edi
	xorl	%eax, %eax
	callq	printf@PLT
	movl	%ebx, %eax
	addq	$208, %rsp
	.cfi_def_cfa_offset 16
	popq	%rbx
	.cfi_def_cfa_offset 8
	retq
.Lfunc_end15:
	.size	FF_function_117, .Lfunc_end15-FF_function_117
	.cfi_endproc
                                        # -- End function
	.globl	FF_function_123                 # -- Begin function FF_function_123
	.p2align	4, 0x90
	.type	FF_function_123,@function
FF_function_123:                        # @FF_function_123
	.cfi_startproc
# %bb.0:
	pushq	%rbx
	.cfi_def_cfa_offset 16
	subq	$208, %rsp
	.cfi_def_cfa_offset 224
	.cfi_offset %rbx, -16
	movq	%rsi, 40(%rsp)
	movq	%rdx, 48(%rsp)
	movq	%rcx, 56(%rsp)
	movq	%r8, 64(%rsp)
	movq	%r9, 72(%rsp)
	testb	%al, %al
	je	.LBB16_5
# %bb.4:
	movaps	%xmm0, 80(%rsp)
	movaps	%xmm1, 96(%rsp)
	movaps	%xmm2, 112(%rsp)
	movaps	%xmm3, 128(%rsp)
	movaps	%xmm4, 144(%rsp)
	movaps	%xmm5, 160(%rsp)
	movaps	%xmm6, 176(%rsp)
	movaps	%xmm7, 192(%rsp)
.LBB16_5:
	movl	$.L.str.30, %edi
	xorl	%eax, %eax
	callq	printf@PLT
	leaq	32(%rsp), %rax
	movq	%rax, 16(%rsp)
	leaq	224(%rsp), %rax
	movq	%rax, 8(%rsp)
	movabsq	$206158430216, %rax             # imm = 0x3000000008
	movq	%rax, (%rsp)
	movl	$8, %ecx
	cmpq	$40, %rcx
	ja	.LBB16_2
# %bb.1:
	movl	$8, %eax
	addq	16(%rsp), %rax
	addl	$8, %ecx
	movl	%ecx, (%rsp)
	jmp	.LBB16_3
.LBB16_2:
	movq	8(%rsp), %rax
	leaq	8(%rax), %rcx
	movq	%rcx, 8(%rsp)
.LBB16_3:
	movzwl	(%rax), %ebx
	movl	$1, %esi
	xorl	%eax, %eax
	callq	FF_function_123
	movl	$1, %esi
	movl	$2, %edx
	movl	$3, %ecx
	xorl	%eax, %eax
	callq	FF_function_123
	movl	$.L.str.31, %edi
	xorl	%eax, %eax
	callq	printf@PLT
	movl	%ebx, %eax
	addq	$208, %rsp
	.cfi_def_cfa_offset 16
	popq	%rbx
	.cfi_def_cfa_offset 8
	retq
.Lfunc_end16:
	.size	FF_function_123, .Lfunc_end16-FF_function_123
	.cfi_endproc
                                        # -- End function
	.globl	FF_function_128                 # -- Begin function FF_function_128
	.p2align	4, 0x90
	.type	FF_function_128,@function
FF_function_128:                        # @FF_function_128
	.cfi_startproc
# %bb.0:
	pushq	%rbx
	.cfi_def_cfa_offset 16
	subq	$208, %rsp
	.cfi_def_cfa_offset 224
	.cfi_offset %rbx, -16
	movq	%rsi, 40(%rsp)
	movq	%rdx, 48(%rsp)
	movq	%rcx, 56(%rsp)
	movq	%r8, 64(%rsp)
	movq	%r9, 72(%rsp)
	testb	%al, %al
	je	.LBB17_5
# %bb.4:
	movaps	%xmm0, 80(%rsp)
	movaps	%xmm1, 96(%rsp)
	movaps	%xmm2, 112(%rsp)
	movaps	%xmm3, 128(%rsp)
	movaps	%xmm4, 144(%rsp)
	movaps	%xmm5, 160(%rsp)
	movaps	%xmm6, 176(%rsp)
	movaps	%xmm7, 192(%rsp)
.LBB17_5:
	movl	$.L.str.32, %edi
	xorl	%eax, %eax
	callq	printf@PLT
	leaq	32(%rsp), %rax
	movq	%rax, 16(%rsp)
	leaq	224(%rsp), %rax
	movq	%rax, 8(%rsp)
	movabsq	$206158430216, %rax             # imm = 0x3000000008
	movq	%rax, (%rsp)
	movl	$8, %ecx
	cmpq	$40, %rcx
	ja	.LBB17_2
# %bb.1:
	movl	$8, %eax
	addq	16(%rsp), %rax
	addl	$8, %ecx
	movl	%ecx, (%rsp)
	jmp	.LBB17_3
.LBB17_2:
	movq	8(%rsp), %rax
	leaq	8(%rax), %rcx
	movq	%rcx, 8(%rsp)
.LBB17_3:
	movb	(%rax), %bl
	movl	$1, %esi
	xorl	%eax, %eax
	callq	FF_function_128
	movl	$1, %esi
	movl	$2, %edx
	movl	$3, %ecx
	xorl	%eax, %eax
	callq	FF_function_128
	movl	$.L.str.33, %edi
	xorl	%eax, %eax
	callq	printf@PLT
	movl	%ebx, %eax
	addq	$208, %rsp
	.cfi_def_cfa_offset 16
	popq	%rbx
	.cfi_def_cfa_offset 8
	retq
.Lfunc_end17:
	.size	FF_function_128, .Lfunc_end17-FF_function_128
	.cfi_endproc
                                        # -- End function
	.globl	FF_function_140                 # -- Begin function FF_function_140
	.p2align	4, 0x90
	.type	FF_function_140,@function
FF_function_140:                        # @FF_function_140
	.cfi_startproc
# %bb.0:
	pushq	%rax
	.cfi_def_cfa_offset 16
	movl	$.L.str.34, %edi
	xorl	%eax, %eax
	callq	printf@PLT
	callq	rand@PLT
	testl	%eax, %eax
	jle	.LBB18_2
# %bb.1:
	callq	rand@PLT
.LBB18_2:
	xorl	%eax, %eax
	popq	%rcx
	.cfi_def_cfa_offset 8
	retq
.Lfunc_end18:
	.size	FF_function_140, .Lfunc_end18-FF_function_140
	.cfi_endproc
                                        # -- End function
	.globl	FF_function_139                 # -- Begin function FF_function_139
	.p2align	4, 0x90
	.type	FF_function_139,@function
FF_function_139:                        # @FF_function_139
	.cfi_startproc
# %bb.0:
	pushq	%rax
	.cfi_def_cfa_offset 16
	movl	$.L.str.35, %edi
	xorl	%eax, %eax
	callq	printf@PLT
	callq	rand@PLT
	testl	%eax, %eax
	jle	.LBB19_8
# %bb.1:
	callq	rand@PLT
	testl	%eax, %eax
	jle	.LBB19_8
# %bb.2:
	callq	rand@PLT
	testl	%eax, %eax
	jle	.LBB19_8
# %bb.3:
	callq	rand@PLT
	testl	%eax, %eax
	jle	.LBB19_8
# %bb.4:
	callq	rand@PLT
	testl	%eax, %eax
	jle	.LBB19_8
# %bb.5:
	movl	$.L.str.34, %edi
	xorl	%eax, %eax
	callq	printf@PLT
	callq	rand@PLT
	testl	%eax, %eax
	jle	.LBB19_7
# %bb.6:
	callq	rand@PLT
.LBB19_7:
	movl	$.L.str.36, %edi
	xorl	%eax, %eax
	callq	printf@PLT
.LBB19_8:
	xorl	%eax, %eax
	popq	%rcx
	.cfi_def_cfa_offset 8
	retq
.Lfunc_end19:
	.size	FF_function_139, .Lfunc_end19-FF_function_139
	.cfi_endproc
                                        # -- End function
	.globl	FF_function_141                 # -- Begin function FF_function_141
	.p2align	4, 0x90
	.type	FF_function_141,@function
FF_function_141:                        # @FF_function_141
	.cfi_startproc
# %bb.0:
	pushq	%rax
	.cfi_def_cfa_offset 16
	movl	$.L.str.37, %edi
	xorl	%eax, %eax
	callq	printf@PLT
	xorl	%eax, %eax
	popq	%rcx
	.cfi_def_cfa_offset 8
	retq
.Lfunc_end20:
	.size	FF_function_141, .Lfunc_end20-FF_function_141
	.cfi_endproc
                                        # -- End function
	.globl	FF_function_142                 # -- Begin function FF_function_142
	.p2align	4, 0x90
	.type	FF_function_142,@function
FF_function_142:                        # @FF_function_142
	.cfi_startproc
# %bb.0:
	pushq	%rax
	.cfi_def_cfa_offset 16
	movl	$.L.str.38, %edi
	xorl	%eax, %eax
	callq	printf@PLT
	callq	rand@PLT
	xorl	%eax, %eax
	popq	%rcx
	.cfi_def_cfa_offset 8
	retq
.Lfunc_end21:
	.size	FF_function_142, .Lfunc_end21-FF_function_142
	.cfi_endproc
                                        # -- End function
	.globl	FF_function_144                 # -- Begin function FF_function_144
	.p2align	4, 0x90
	.type	FF_function_144,@function
FF_function_144:                        # @FF_function_144
	.cfi_startproc
# %bb.0:
	pushq	%rbx
	.cfi_def_cfa_offset 16
	subq	$208, %rsp
	.cfi_def_cfa_offset 224
	.cfi_offset %rbx, -16
	movq	%rsi, 40(%rsp)
	movq	%rdx, 48(%rsp)
	movq	%rcx, 56(%rsp)
	movq	%r8, 64(%rsp)
	movq	%r9, 72(%rsp)
	testb	%al, %al
	je	.LBB22_5
# %bb.4:
	movaps	%xmm0, 80(%rsp)
	movaps	%xmm1, 96(%rsp)
	movaps	%xmm2, 112(%rsp)
	movaps	%xmm3, 128(%rsp)
	movaps	%xmm4, 144(%rsp)
	movaps	%xmm5, 160(%rsp)
	movaps	%xmm6, 176(%rsp)
	movaps	%xmm7, 192(%rsp)
.LBB22_5:
	movl	$.L.str.39, %edi
	xorl	%eax, %eax
	callq	printf@PLT
	leaq	32(%rsp), %rax
	movq	%rax, 16(%rsp)
	leaq	224(%rsp), %rax
	movq	%rax, 8(%rsp)
	movabsq	$206158430216, %rax             # imm = 0x3000000008
	movq	%rax, (%rsp)
	movl	$8, %ecx
	cmpq	$40, %rcx
	ja	.LBB22_2
# %bb.1:
	movl	$8, %eax
	addq	16(%rsp), %rax
	addl	$8, %ecx
	movl	%ecx, (%rsp)
	jmp	.LBB22_3
.LBB22_2:
	movq	8(%rsp), %rax
	leaq	8(%rax), %rcx
	movq	%rcx, 8(%rsp)
.LBB22_3:
	movq	(%rax), %rbx
	xorl	%edi, %edi
	movl	$1, %esi
	xorl	%eax, %eax
	callq	FF_function_144
	xorl	%edi, %edi
	movl	$1, %esi
	movl	$2, %edx
	movl	$3, %ecx
	xorl	%eax, %eax
	callq	FF_function_144
	movl	$.L.str.40, %edi
	xorl	%eax, %eax
	callq	printf@PLT
	movq	%rbx, %rax
	addq	$208, %rsp
	.cfi_def_cfa_offset 16
	popq	%rbx
	.cfi_def_cfa_offset 8
	retq
.Lfunc_end22:
	.size	FF_function_144, .Lfunc_end22-FF_function_144
	.cfi_endproc
                                        # -- End function
	.globl	FF_function_145                 # -- Begin function FF_function_145
	.p2align	4, 0x90
	.type	FF_function_145,@function
FF_function_145:                        # @FF_function_145
	.cfi_startproc
# %bb.0:
	pushq	%rax
	.cfi_def_cfa_offset 16
	movl	$.L.str.41, %edi
	xorl	%eax, %eax
	callq	printf@PLT
	movl	$.L.str.42, %edi
	xorl	%eax, %eax
	callq	printf@PLT
	xorl	%eax, %eax
	popq	%rcx
	.cfi_def_cfa_offset 8
	retq
.Lfunc_end23:
	.size	FF_function_145, .Lfunc_end23-FF_function_145
	.cfi_endproc
                                        # -- End function
	.globl	FF_function_146                 # -- Begin function FF_function_146
	.p2align	4, 0x90
	.type	FF_function_146,@function
FF_function_146:                        # @FF_function_146
	.cfi_startproc
# %bb.0:
	pushq	%rax
	.cfi_def_cfa_offset 16
	movl	$.L.str.43, %edi
	xorl	%eax, %eax
	callq	printf@PLT
	movl	$.L.str.44, %edi
	xorl	%eax, %eax
	callq	printf@PLT
	xorps	%xmm0, %xmm0
	popq	%rax
	.cfi_def_cfa_offset 8
	retq
.Lfunc_end24:
	.size	FF_function_146, .Lfunc_end24-FF_function_146
	.cfi_endproc
                                        # -- End function
	.globl	FF_function_147                 # -- Begin function FF_function_147
	.p2align	4, 0x90
	.type	FF_function_147,@function
FF_function_147:                        # @FF_function_147
	.cfi_startproc
# %bb.0:
	pushq	%rax
	.cfi_def_cfa_offset 16
	movl	$.L.str.45, %edi
	xorl	%eax, %eax
	callq	printf@PLT
	xorl	%eax, %eax
	popq	%rcx
	.cfi_def_cfa_offset 8
	retq
.Lfunc_end25:
	.size	FF_function_147, .Lfunc_end25-FF_function_147
	.cfi_endproc
                                        # -- End function
	.globl	FF_function_148                 # -- Begin function FF_function_148
	.p2align	4, 0x90
	.type	FF_function_148,@function
FF_function_148:                        # @FF_function_148
	.cfi_startproc
# %bb.0:
	pushq	%rax
	.cfi_def_cfa_offset 16
	movl	$.L.str.46, %edi
	xorl	%eax, %eax
	callq	printf@PLT
	movl	$.L.str.47, %edi
	xorl	%eax, %eax
	callq	printf@PLT
	xorl	%eax, %eax
	popq	%rcx
	.cfi_def_cfa_offset 8
	retq
.Lfunc_end26:
	.size	FF_function_148, .Lfunc_end26-FF_function_148
	.cfi_endproc
                                        # -- End function
	.globl	FF_function_149                 # -- Begin function FF_function_149
	.p2align	4, 0x90
	.type	FF_function_149,@function
FF_function_149:                        # @FF_function_149
	.cfi_startproc
# %bb.0:
	pushq	%rax
	.cfi_def_cfa_offset 16
	movl	$.L.str.48, %edi
	xorl	%eax, %eax
	callq	printf@PLT
	callq	rand@PLT
	testl	%eax, %eax
	jle	.LBB27_2
# %bb.1:
	movl	$.L.str.49, %edi
	xorl	%eax, %eax
	callq	printf@PLT
.LBB27_2:
	xorl	%eax, %eax
	popq	%rcx
	.cfi_def_cfa_offset 8
	retq
.Lfunc_end27:
	.size	FF_function_149, .Lfunc_end27-FF_function_149
	.cfi_endproc
                                        # -- End function
	.globl	FF_function_151                 # -- Begin function FF_function_151
	.p2align	4, 0x90
	.type	FF_function_151,@function
FF_function_151:                        # @FF_function_151
	.cfi_startproc
# %bb.0:
	pushq	%rax
	.cfi_def_cfa_offset 16
	movl	$.L.str.50, %edi
	xorl	%eax, %eax
	callq	printf@PLT
	movl	$.L.str.51, %edi
	xorl	%eax, %eax
	callq	printf@PLT
	xorl	%eax, %eax
	popq	%rcx
	.cfi_def_cfa_offset 8
	retq
.Lfunc_end28:
	.size	FF_function_151, .Lfunc_end28-FF_function_151
	.cfi_endproc
                                        # -- End function
	.globl	FF_function_152                 # -- Begin function FF_function_152
	.p2align	4, 0x90
	.type	FF_function_152,@function
FF_function_152:                        # @FF_function_152
	.cfi_startproc
# %bb.0:
	pushq	%rax
	.cfi_def_cfa_offset 16
	movl	$.L.str.52, %edi
	xorl	%eax, %eax
	callq	printf@PLT
	movl	$.L.str.53, %edi
	xorl	%eax, %eax
	callq	printf@PLT
	xorl	%eax, %eax
	popq	%rcx
	.cfi_def_cfa_offset 8
	retq
.Lfunc_end29:
	.size	FF_function_152, .Lfunc_end29-FF_function_152
	.cfi_endproc
                                        # -- End function
	.globl	FF_function_150                 # -- Begin function FF_function_150
	.p2align	4, 0x90
	.type	FF_function_150,@function
FF_function_150:                        # @FF_function_150
	.cfi_startproc
# %bb.0:
	pushq	%rax
	.cfi_def_cfa_offset 16
	movl	$.L.str.54, %edi
	xorl	%eax, %eax
	callq	printf@PLT
	movl	$.L.str.50, %edi
	xorl	%eax, %eax
	callq	printf@PLT
	movl	$.L.str.51, %edi
	xorl	%eax, %eax
	callq	printf@PLT
	movl	$.L.str.52, %edi
	xorl	%eax, %eax
	callq	printf@PLT
	movl	$.L.str.53, %edi
	xorl	%eax, %eax
	callq	printf@PLT
	movl	$.L.str.55, %edi
	xorl	%eax, %eax
	callq	printf@PLT
	xorl	%eax, %eax
	popq	%rcx
	.cfi_def_cfa_offset 8
	retq
.Lfunc_end30:
	.size	FF_function_150, .Lfunc_end30-FF_function_150
	.cfi_endproc
                                        # -- End function
	.globl	FF_function_138                 # -- Begin function FF_function_138
	.p2align	4, 0x90
	.type	FF_function_138,@function
FF_function_138:                        # @FF_function_138
	.cfi_startproc
# %bb.0:
	pushq	%rax
	.cfi_def_cfa_offset 16
	movl	$.L.str.56, %edi
	xorl	%eax, %eax
	callq	printf@PLT
	movl	$.L.str.37, %edi
	xorl	%eax, %eax
	callq	printf@PLT
	movl	$.L.str.38, %edi
	xorl	%eax, %eax
	callq	printf@PLT
	callq	rand@PLT
	xorps	%xmm0, %xmm0
	xorl	%edi, %edi
	xorl	%esi, %esi
	movb	$1, %al
	callq	FF_function_144
	movl	$.L.str.41, %edi
	xorl	%eax, %eax
	callq	printf@PLT
	movl	$.L.str.42, %edi
	xorl	%eax, %eax
	callq	printf@PLT
	movl	$.L.str.43, %edi
	xorl	%eax, %eax
	callq	printf@PLT
	movl	$.L.str.44, %edi
	xorl	%eax, %eax
	callq	printf@PLT
	movl	$.L.str.45, %edi
	xorl	%eax, %eax
	callq	printf@PLT
	movl	$.L.str.46, %edi
	xorl	%eax, %eax
	callq	printf@PLT
	movl	$.L.str.47, %edi
	xorl	%eax, %eax
	callq	printf@PLT
	movl	$.L.str.48, %edi
	xorl	%eax, %eax
	callq	printf@PLT
	callq	rand@PLT
	testl	%eax, %eax
	jle	.LBB31_2
# %bb.1:
	movl	$.L.str.49, %edi
	xorl	%eax, %eax
	callq	printf@PLT
.LBB31_2:
	xorl	%r9d, %r9d
	callq	FF_function_139
	movl	$.L.str.54, %edi
	xorl	%eax, %eax
	callq	printf@PLT
	movl	$.L.str.50, %edi
	xorl	%eax, %eax
	callq	printf@PLT
	movl	$.L.str.51, %edi
	xorl	%eax, %eax
	callq	printf@PLT
	movl	$.L.str.52, %edi
	xorl	%eax, %eax
	callq	printf@PLT
	movl	$.L.str.53, %edi
	xorl	%eax, %eax
	callq	printf@PLT
	movl	$.L.str.55, %edi
	xorl	%eax, %eax
	callq	printf@PLT
	movl	$.L.str.57, %edi
	xorl	%eax, %eax
	callq	printf@PLT
	xorl	%eax, %eax
	popq	%rcx
	.cfi_def_cfa_offset 8
	retq
.Lfunc_end31:
	.size	FF_function_138, .Lfunc_end31-FF_function_138
	.cfi_endproc
                                        # -- End function
	.globl	FF_function_154                 # -- Begin function FF_function_154
	.p2align	4, 0x90
	.type	FF_function_154,@function
FF_function_154:                        # @FF_function_154
	.cfi_startproc
# %bb.0:
	pushq	%rax
	.cfi_def_cfa_offset 16
	movl	$.L.str.58, %edi
	xorl	%eax, %eax
	callq	printf@PLT
	movl	$.L.str.59, %edi
	xorl	%eax, %eax
	callq	printf@PLT
	movabsq	$4539628424389459968, %rax      # imm = 0x3F00000000000000
	xorl	%edx, %edx
	popq	%rcx
	.cfi_def_cfa_offset 8
	retq
.Lfunc_end32:
	.size	FF_function_154, .Lfunc_end32-FF_function_154
	.cfi_endproc
                                        # -- End function
	.globl	FF_function_155                 # -- Begin function FF_function_155
	.p2align	4, 0x90
	.type	FF_function_155,@function
FF_function_155:                        # @FF_function_155
	.cfi_startproc
# %bb.0:
	pushq	%rax
	.cfi_def_cfa_offset 16
	movl	$.L.str.60, %edi
	xorl	%eax, %eax
	callq	printf@PLT
	movl	$.L.str.61, %edi
	xorl	%eax, %eax
	callq	printf@PLT
	xorps	%xmm0, %xmm0
	popq	%rax
	.cfi_def_cfa_offset 8
	retq
.Lfunc_end33:
	.size	FF_function_155, .Lfunc_end33-FF_function_155
	.cfi_endproc
                                        # -- End function
	.globl	FF_function_153                 # -- Begin function FF_function_153
	.p2align	4, 0x90
	.type	FF_function_153,@function
FF_function_153:                        # @FF_function_153
	.cfi_startproc
# %bb.0:
	pushq	%rax
	.cfi_def_cfa_offset 16
	movl	$.L.str.62, %edi
	xorl	%eax, %eax
	callq	printf@PLT
	movl	$.L.str.58, %edi
	xorl	%eax, %eax
	callq	printf@PLT
	movl	$.L.str.59, %edi
	xorl	%eax, %eax
	callq	printf@PLT
	movl	$.L.str.60, %edi
	xorl	%eax, %eax
	callq	printf@PLT
	movl	$.L.str.61, %edi
	xorl	%eax, %eax
	callq	printf@PLT
	movl	$.L.str.63, %edi
	xorl	%eax, %eax
	callq	printf@PLT
	xorps	%xmm0, %xmm0
	popq	%rax
	.cfi_def_cfa_offset 8
	retq
.Lfunc_end34:
	.size	FF_function_153, .Lfunc_end34-FF_function_153
	.cfi_endproc
                                        # -- End function
	.globl	FF_function_158                 # -- Begin function FF_function_158
	.p2align	4, 0x90
	.type	FF_function_158,@function
FF_function_158:                        # @FF_function_158
	.cfi_startproc
# %bb.0:
	pushq	%rax
	.cfi_def_cfa_offset 16
	movl	$.L.str.64, %edi
	xorl	%eax, %eax
	callq	printf@PLT
	movl	$.L.str.65, %edi
	xorl	%eax, %eax
	callq	printf@PLT
	xorps	%xmm0, %xmm0
	popq	%rax
	.cfi_def_cfa_offset 8
	retq
.Lfunc_end35:
	.size	FF_function_158, .Lfunc_end35-FF_function_158
	.cfi_endproc
                                        # -- End function
	.globl	FF_function_157                 # -- Begin function FF_function_157
	.p2align	4, 0x90
	.type	FF_function_157,@function
FF_function_157:                        # @FF_function_157
	.cfi_startproc
# %bb.0:
	pushq	%rax
	.cfi_def_cfa_offset 16
	movl	$.L.str.66, %edi
	xorl	%eax, %eax
	callq	printf@PLT
	movl	$.L.str.64, %edi
	xorl	%eax, %eax
	callq	printf@PLT
	movl	$.L.str.65, %edi
	xorl	%eax, %eax
	callq	printf@PLT
	movl	$.L.str.67, %edi
	xorl	%eax, %eax
	callq	printf@PLT
	xorps	%xmm0, %xmm0
	popq	%rax
	.cfi_def_cfa_offset 8
	retq
.Lfunc_end36:
	.size	FF_function_157, .Lfunc_end36-FF_function_157
	.cfi_endproc
                                        # -- End function
	.globl	FF_function_160                 # -- Begin function FF_function_160
	.p2align	4, 0x90
	.type	FF_function_160,@function
FF_function_160:                        # @FF_function_160
	.cfi_startproc
# %bb.0:
	pushq	%rax
	.cfi_def_cfa_offset 16
	movl	$.L.str.68, %edi
	xorl	%eax, %eax
	callq	printf@PLT
	movl	$.L.str.69, %edi
	xorl	%eax, %eax
	callq	printf@PLT
	xorl	%eax, %eax
	popq	%rcx
	.cfi_def_cfa_offset 8
	retq
.Lfunc_end37:
	.size	FF_function_160, .Lfunc_end37-FF_function_160
	.cfi_endproc
                                        # -- End function
	.globl	FF_function_161                 # -- Begin function FF_function_161
	.p2align	4, 0x90
	.type	FF_function_161,@function
FF_function_161:                        # @FF_function_161
	.cfi_startproc
# %bb.0:
	pushq	%rax
	.cfi_def_cfa_offset 16
	movl	$.L.str.70, %edi
	xorl	%eax, %eax
	callq	printf@PLT
	xorl	%eax, %eax
	popq	%rcx
	.cfi_def_cfa_offset 8
	retq
.Lfunc_end38:
	.size	FF_function_161, .Lfunc_end38-FF_function_161
	.cfi_endproc
                                        # -- End function
	.globl	FF_function_159                 # -- Begin function FF_function_159
	.p2align	4, 0x90
	.type	FF_function_159,@function
FF_function_159:                        # @FF_function_159
	.cfi_startproc
# %bb.0:
	pushq	%rax
	.cfi_def_cfa_offset 16
	movl	$.L.str.71, %edi
	xorl	%eax, %eax
	callq	printf@PLT
	movl	$.L.str.68, %edi
	xorl	%eax, %eax
	callq	printf@PLT
	movl	$.L.str.69, %edi
	xorl	%eax, %eax
	callq	printf@PLT
	movl	$.L.str.70, %edi
	xorl	%eax, %eax
	callq	printf@PLT
	movl	$.L.str.72, %edi
	xorl	%eax, %eax
	callq	printf@PLT
	xorl	%eax, %eax
	popq	%rcx
	.cfi_def_cfa_offset 8
	retq
.Lfunc_end39:
	.size	FF_function_159, .Lfunc_end39-FF_function_159
	.cfi_endproc
                                        # -- End function
	.globl	FF_function_156                 # -- Begin function FF_function_156
	.p2align	4, 0x90
	.type	FF_function_156,@function
FF_function_156:                        # @FF_function_156
	.cfi_startproc
# %bb.0:
	pushq	%rax
	.cfi_def_cfa_offset 16
	movl	$.L.str.73, %edi
	xorl	%eax, %eax
	callq	printf@PLT
	movl	$.L.str.66, %edi
	xorl	%eax, %eax
	callq	printf@PLT
	movl	$.L.str.64, %edi
	xorl	%eax, %eax
	callq	printf@PLT
	movl	$.L.str.65, %edi
	xorl	%eax, %eax
	callq	printf@PLT
	movl	$.L.str.67, %edi
	xorl	%eax, %eax
	callq	printf@PLT
	movl	$.L.str.71, %edi
	xorl	%eax, %eax
	callq	printf@PLT
	movl	$.L.str.68, %edi
	xorl	%eax, %eax
	callq	printf@PLT
	movl	$.L.str.69, %edi
	xorl	%eax, %eax
	callq	printf@PLT
	movl	$.L.str.70, %edi
	xorl	%eax, %eax
	callq	printf@PLT
	movl	$.L.str.72, %edi
	xorl	%eax, %eax
	callq	printf@PLT
	movl	$.L.str.74, %edi
	xorl	%eax, %eax
	callq	printf@PLT
	xorl	%eax, %eax
	popq	%rcx
	.cfi_def_cfa_offset 8
	retq
.Lfunc_end40:
	.size	FF_function_156, .Lfunc_end40-FF_function_156
	.cfi_endproc
                                        # -- End function
	.globl	FF_function_164                 # -- Begin function FF_function_164
	.p2align	4, 0x90
	.type	FF_function_164,@function
FF_function_164:                        # @FF_function_164
	.cfi_startproc
# %bb.0:
	pushq	%rax
	.cfi_def_cfa_offset 16
	movl	$.L.str.75, %edi
	xorl	%eax, %eax
	callq	printf@PLT
	movl	$.L.str.76, %edi
	xorl	%eax, %eax
	callq	printf@PLT
	movabsq	$4539628424389459968, %rax      # imm = 0x3F00000000000000
	xorl	%edx, %edx
	popq	%rcx
	.cfi_def_cfa_offset 8
	retq
.Lfunc_end41:
	.size	FF_function_164, .Lfunc_end41-FF_function_164
	.cfi_endproc
                                        # -- End function
	.globl	FF_function_165                 # -- Begin function FF_function_165
	.p2align	4, 0x90
	.type	FF_function_165,@function
FF_function_165:                        # @FF_function_165
	.cfi_startproc
# %bb.0:
	pushq	%rax
	.cfi_def_cfa_offset 16
	movl	$.L.str.77, %edi
	xorl	%eax, %eax
	callq	printf@PLT
	movl	$.L.str.78, %edi
	xorl	%eax, %eax
	callq	printf@PLT
	movabsq	$4539628424389459968, %rax      # imm = 0x3F00000000000000
	xorl	%edx, %edx
	popq	%rcx
	.cfi_def_cfa_offset 8
	retq
.Lfunc_end42:
	.size	FF_function_165, .Lfunc_end42-FF_function_165
	.cfi_endproc
                                        # -- End function
	.globl	FF_function_163                 # -- Begin function FF_function_163
	.p2align	4, 0x90
	.type	FF_function_163,@function
FF_function_163:                        # @FF_function_163
	.cfi_startproc
# %bb.0:
	pushq	%rax
	.cfi_def_cfa_offset 16
	movl	$.L.str.79, %edi
	xorl	%eax, %eax
	callq	printf@PLT
	movl	$.L.str.75, %edi
	xorl	%eax, %eax
	callq	printf@PLT
	movl	$.L.str.76, %edi
	xorl	%eax, %eax
	callq	printf@PLT
	movl	$.L.str.77, %edi
	xorl	%eax, %eax
	callq	printf@PLT
	movl	$.L.str.78, %edi
	xorl	%eax, %eax
	callq	printf@PLT
	movl	$.L.str.80, %edi
	xorl	%eax, %eax
	callq	printf@PLT
	movabsq	$4539628424389459968, %rax      # imm = 0x3F00000000000000
	xorl	%edx, %edx
	popq	%rcx
	.cfi_def_cfa_offset 8
	retq
.Lfunc_end43:
	.size	FF_function_163, .Lfunc_end43-FF_function_163
	.cfi_endproc
                                        # -- End function
	.globl	FF_function_167                 # -- Begin function FF_function_167
	.p2align	4, 0x90
	.type	FF_function_167,@function
FF_function_167:                        # @FF_function_167
	.cfi_startproc
# %bb.0:
	pushq	%rax
	.cfi_def_cfa_offset 16
	movl	$.L.str.81, %edi
	xorl	%eax, %eax
	callq	printf@PLT
	movabsq	$4539628424389459968, %rax      # imm = 0x3F00000000000000
	xorl	%edx, %edx
	popq	%rcx
	.cfi_def_cfa_offset 8
	retq
.Lfunc_end44:
	.size	FF_function_167, .Lfunc_end44-FF_function_167
	.cfi_endproc
                                        # -- End function
	.globl	FF_function_169                 # -- Begin function FF_function_169
	.p2align	4, 0x90
	.type	FF_function_169,@function
FF_function_169:                        # @FF_function_169
	.cfi_startproc
# %bb.0:
	pushq	%rax
	.cfi_def_cfa_offset 16
	movl	$.L.str.82, %edi
	xorl	%eax, %eax
	callq	printf@PLT
	movl	$.L.str.83, %edi
	xorl	%eax, %eax
	callq	printf@PLT
	xorl	%eax, %eax
	popq	%rcx
	.cfi_def_cfa_offset 8
	retq
.Lfunc_end45:
	.size	FF_function_169, .Lfunc_end45-FF_function_169
	.cfi_endproc
                                        # -- End function
	.globl	FF_function_168                 # -- Begin function FF_function_168
	.p2align	4, 0x90
	.type	FF_function_168,@function
FF_function_168:                        # @FF_function_168
	.cfi_startproc
# %bb.0:
	pushq	%rax
	.cfi_def_cfa_offset 16
	movl	$.L.str.84, %edi
	xorl	%eax, %eax
	callq	printf@PLT
	movl	$.L.str.82, %edi
	xorl	%eax, %eax
	callq	printf@PLT
	movl	$.L.str.83, %edi
	xorl	%eax, %eax
	callq	printf@PLT
	movl	$.L.str.85, %edi
	xorl	%eax, %eax
	callq	printf@PLT
	xorl	%eax, %eax
	popq	%rcx
	.cfi_def_cfa_offset 8
	retq
.Lfunc_end46:
	.size	FF_function_168, .Lfunc_end46-FF_function_168
	.cfi_endproc
                                        # -- End function
	.globl	FF_function_171                 # -- Begin function FF_function_171
	.p2align	4, 0x90
	.type	FF_function_171,@function
FF_function_171:                        # @FF_function_171
	.cfi_startproc
# %bb.0:
	pushq	%rbx
	.cfi_def_cfa_offset 16
	subq	$208, %rsp
	.cfi_def_cfa_offset 224
	.cfi_offset %rbx, -16
	movq	%rdx, 48(%rsp)
	movq	%rcx, 56(%rsp)
	movq	%r8, 64(%rsp)
	movq	%r9, 72(%rsp)
	testb	%al, %al
	je	.LBB47_5
# %bb.4:
	movaps	%xmm0, 80(%rsp)
	movaps	%xmm1, 96(%rsp)
	movaps	%xmm2, 112(%rsp)
	movaps	%xmm3, 128(%rsp)
	movaps	%xmm4, 144(%rsp)
	movaps	%xmm5, 160(%rsp)
	movaps	%xmm6, 176(%rsp)
	movaps	%xmm7, 192(%rsp)
.LBB47_5:
	movl	$.L.str.86, %edi
	xorl	%eax, %eax
	callq	printf@PLT
	leaq	32(%rsp), %rax
	movq	%rax, 16(%rsp)
	leaq	224(%rsp), %rax
	movq	%rax, 8(%rsp)
	movabsq	$206158430224, %rax             # imm = 0x3000000010
	movq	%rax, (%rsp)
	movl	$16, %ecx
	cmpq	$40, %rcx
	ja	.LBB47_2
# %bb.1:
	movl	$16, %eax
	addq	16(%rsp), %rax
	addl	$8, %ecx
	movl	%ecx, (%rsp)
	jmp	.LBB47_3
.LBB47_2:
	movq	8(%rsp), %rax
	leaq	8(%rax), %rcx
	movq	%rcx, 8(%rsp)
.LBB47_3:
	movq	(%rax), %rbx
	movl	$1, %edx
	xorl	%eax, %eax
	callq	FF_function_171
	movl	$1, %edx
	movl	$2, %ecx
	movl	$3, %r8d
	xorl	%eax, %eax
	callq	FF_function_171
	movl	$.L.str.87, %edi
	xorl	%eax, %eax
	callq	printf@PLT
	movq	%rbx, %rax
	addq	$208, %rsp
	.cfi_def_cfa_offset 16
	popq	%rbx
	.cfi_def_cfa_offset 8
	retq
.Lfunc_end47:
	.size	FF_function_171, .Lfunc_end47-FF_function_171
	.cfi_endproc
                                        # -- End function
	.globl	FF_function_166                 # -- Begin function FF_function_166
	.p2align	4, 0x90
	.type	FF_function_166,@function
FF_function_166:                        # @FF_function_166
	.cfi_startproc
# %bb.0:
	pushq	%rax
	.cfi_def_cfa_offset 16
	movl	$.L.str.88, %edi
	xorl	%eax, %eax
	callq	printf@PLT
	movl	$.L.str.81, %edi
	xorl	%eax, %eax
	callq	printf@PLT
	xorps	%xmm0, %xmm0
	xorl	%edx, %edx
	movb	$1, %al
	callq	FF_function_171
	movl	$.L.str.84, %edi
	xorl	%eax, %eax
	callq	printf@PLT
	movl	$.L.str.82, %edi
	xorl	%eax, %eax
	callq	printf@PLT
	movl	$.L.str.83, %edi
	xorl	%eax, %eax
	callq	printf@PLT
	movl	$.L.str.85, %edi
	xorl	%eax, %eax
	callq	printf@PLT
	movl	$.L.str.89, %edi
	xorl	%eax, %eax
	callq	printf@PLT
	xorl	%eax, %eax
	popq	%rcx
	.cfi_def_cfa_offset 8
	retq
.Lfunc_end48:
	.size	FF_function_166, .Lfunc_end48-FF_function_166
	.cfi_endproc
                                        # -- End function
	.globl	FF_function_173                 # -- Begin function FF_function_173
	.p2align	4, 0x90
	.type	FF_function_173,@function
FF_function_173:                        # @FF_function_173
	.cfi_startproc
# %bb.0:
	pushq	%rax
	.cfi_def_cfa_offset 16
	movl	$.L.str.90, %edi
	xorl	%eax, %eax
	callq	printf@PLT
	movl	$.L.str.91, %edi
	xorl	%eax, %eax
	callq	printf@PLT
	xorl	%eax, %eax
	popq	%rcx
	.cfi_def_cfa_offset 8
	retq
.Lfunc_end49:
	.size	FF_function_173, .Lfunc_end49-FF_function_173
	.cfi_endproc
                                        # -- End function
	.globl	FF_function_172                 # -- Begin function FF_function_172
	.p2align	4, 0x90
	.type	FF_function_172,@function
FF_function_172:                        # @FF_function_172
	.cfi_startproc
# %bb.0:
	pushq	%rax
	.cfi_def_cfa_offset 16
	movl	$.L.str.92, %edi
	xorl	%eax, %eax
	callq	printf@PLT
	xorl	%eax, %eax
	popq	%rcx
	.cfi_def_cfa_offset 8
	retq
.Lfunc_end50:
	.size	FF_function_172, .Lfunc_end50-FF_function_172
	.cfi_endproc
                                        # -- End function
	.globl	FF_function_162                 # -- Begin function FF_function_162
	.p2align	4, 0x90
	.type	FF_function_162,@function
FF_function_162:                        # @FF_function_162
	.cfi_startproc
# %bb.0:
	pushq	%rax
	.cfi_def_cfa_offset 16
	movl	$.L.str.93, %edi
	xorl	%eax, %eax
	callq	printf@PLT
	movl	$.L.str.79, %edi
	xorl	%eax, %eax
	callq	printf@PLT
	movl	$.L.str.75, %edi
	xorl	%eax, %eax
	callq	printf@PLT
	movl	$.L.str.76, %edi
	xorl	%eax, %eax
	callq	printf@PLT
	movl	$.L.str.77, %edi
	xorl	%eax, %eax
	callq	printf@PLT
	movl	$.L.str.78, %edi
	xorl	%eax, %eax
	callq	printf@PLT
	movl	$.L.str.80, %edi
	xorl	%eax, %eax
	callq	printf@PLT
	movl	$.L.str.92, %edi
	xorl	%eax, %eax
	callq	printf@PLT
	movl	$.L.str.88, %edi
	xorl	%eax, %eax
	callq	printf@PLT
	movl	$.L.str.81, %edi
	xorl	%eax, %eax
	callq	printf@PLT
	xorps	%xmm0, %xmm0
	xorl	%edx, %edx
	movb	$1, %al
	callq	FF_function_171
	movl	$.L.str.84, %edi
	xorl	%eax, %eax
	callq	printf@PLT
	movl	$.L.str.82, %edi
	xorl	%eax, %eax
	callq	printf@PLT
	movl	$.L.str.83, %edi
	xorl	%eax, %eax
	callq	printf@PLT
	movl	$.L.str.85, %edi
	xorl	%eax, %eax
	callq	printf@PLT
	movl	$.L.str.89, %edi
	xorl	%eax, %eax
	callq	printf@PLT
	movl	$.L.str.94, %edi
	xorl	%eax, %eax
	callq	printf@PLT
	xorl	%eax, %eax
	popq	%rcx
	.cfi_def_cfa_offset 8
	retq
.Lfunc_end51:
	.size	FF_function_162, .Lfunc_end51-FF_function_162
	.cfi_endproc
                                        # -- End function
	.globl	FF_function_137                 # -- Begin function FF_function_137
	.p2align	4, 0x90
	.type	FF_function_137,@function
FF_function_137:                        # @FF_function_137
	.cfi_startproc
# %bb.0:
	pushq	%rax
	.cfi_def_cfa_offset 16
	movl	$.L.str.95, %edi
	xorl	%eax, %eax
	callq	printf@PLT
	movl	$.L.str.62, %edi
	xorl	%eax, %eax
	callq	printf@PLT
	movl	$.L.str.58, %edi
	xorl	%eax, %eax
	callq	printf@PLT
	movl	$.L.str.59, %edi
	xorl	%eax, %eax
	callq	printf@PLT
	movl	$.L.str.60, %edi
	xorl	%eax, %eax
	callq	printf@PLT
	movl	$.L.str.61, %edi
	xorl	%eax, %eax
	callq	printf@PLT
	movl	$.L.str.63, %edi
	xorl	%eax, %eax
	callq	printf@PLT
	callq	FF_function_138
	xorl	%eax, %eax
	popq	%rcx
	.cfi_def_cfa_offset 8
	retq
.Lfunc_end52:
	.size	FF_function_137, .Lfunc_end52-FF_function_137
	.cfi_endproc
                                        # -- End function
	.globl	FF_function_136                 # -- Begin function FF_function_136
	.p2align	4, 0x90
	.type	FF_function_136,@function
FF_function_136:                        # @FF_function_136
	.cfi_startproc
# %bb.0:
	pushq	%rax
	.cfi_def_cfa_offset 16
	movl	$.L.str.96, %edi
	xorl	%eax, %eax
	callq	printf@PLT
	movl	$.L.str.95, %edi
	xorl	%eax, %eax
	callq	printf@PLT
	movl	$.L.str.62, %edi
	xorl	%eax, %eax
	callq	printf@PLT
	movl	$.L.str.58, %edi
	xorl	%eax, %eax
	callq	printf@PLT
	movl	$.L.str.59, %edi
	xorl	%eax, %eax
	callq	printf@PLT
	movl	$.L.str.60, %edi
	xorl	%eax, %eax
	callq	printf@PLT
	movl	$.L.str.61, %edi
	xorl	%eax, %eax
	callq	printf@PLT
	movl	$.L.str.63, %edi
	xorl	%eax, %eax
	callq	printf@PLT
	callq	FF_function_138
	movl	$.L.str.97, %edi
	xorl	%eax, %eax
	callq	printf@PLT
	movabsq	$4539628424389459968, %rax      # imm = 0x3F00000000000000
	xorl	%edx, %edx
	popq	%rcx
	.cfi_def_cfa_offset 8
	retq
.Lfunc_end53:
	.size	FF_function_136, .Lfunc_end53-FF_function_136
	.cfi_endproc
                                        # -- End function
	.globl	FF_function_135                 # -- Begin function FF_function_135
	.p2align	4, 0x90
	.type	FF_function_135,@function
FF_function_135:                        # @FF_function_135
	.cfi_startproc
# %bb.0:
	pushq	%rax
	.cfi_def_cfa_offset 16
	movl	$.L.str.98, %edi
	xorl	%eax, %eax
	callq	printf@PLT
	movl	$.L.str.96, %edi
	xorl	%eax, %eax
	callq	printf@PLT
	movl	$.L.str.95, %edi
	xorl	%eax, %eax
	callq	printf@PLT
	movl	$.L.str.62, %edi
	xorl	%eax, %eax
	callq	printf@PLT
	movl	$.L.str.58, %edi
	xorl	%eax, %eax
	callq	printf@PLT
	movl	$.L.str.59, %edi
	xorl	%eax, %eax
	callq	printf@PLT
	movl	$.L.str.60, %edi
	xorl	%eax, %eax
	callq	printf@PLT
	movl	$.L.str.61, %edi
	xorl	%eax, %eax
	callq	printf@PLT
	movl	$.L.str.63, %edi
	xorl	%eax, %eax
	callq	printf@PLT
	callq	FF_function_138
	movl	$.L.str.97, %edi
	xorl	%eax, %eax
	callq	printf@PLT
	movl	$.L.str.99, %edi
	xorl	%eax, %eax
	callq	printf@PLT
	xorl	%eax, %eax
	popq	%rcx
	.cfi_def_cfa_offset 8
	retq
.Lfunc_end54:
	.size	FF_function_135, .Lfunc_end54-FF_function_135
	.cfi_endproc
                                        # -- End function
	.globl	FF_function_134                 # -- Begin function FF_function_134
	.p2align	4, 0x90
	.type	FF_function_134,@function
FF_function_134:                        # @FF_function_134
	.cfi_startproc
# %bb.0:
	pushq	%rax
	.cfi_def_cfa_offset 16
	movl	$.L.str.100, %edi
	xorl	%eax, %eax
	callq	printf@PLT
	xorl	%esi, %esi
	callq	FF_function_135
	movl	$.L.str.101, %edi
	xorl	%eax, %eax
	callq	printf@PLT
	movabsq	$4539628424389459968, %rax      # imm = 0x3F00000000000000
	xorl	%edx, %edx
	popq	%rcx
	.cfi_def_cfa_offset 8
	retq
.Lfunc_end55:
	.size	FF_function_134, .Lfunc_end55-FF_function_134
	.cfi_endproc
                                        # -- End function
	.globl	FF_function_133                 # -- Begin function FF_function_133
	.p2align	4, 0x90
	.type	FF_function_133,@function
FF_function_133:                        # @FF_function_133
	.cfi_startproc
# %bb.0:
	pushq	%rax
	.cfi_def_cfa_offset 16
	movl	$.L.str.102, %edi
	xorl	%eax, %eax
	callq	printf@PLT
	movl	$.L.str.100, %edi
	xorl	%eax, %eax
	callq	printf@PLT
	xorl	%esi, %esi
	callq	FF_function_135
	movl	$.L.str.101, %edi
	xorl	%eax, %eax
	callq	printf@PLT
	movl	$.L.str.103, %edi
	xorl	%eax, %eax
	callq	printf@PLT
	xorl	%eax, %eax
	popq	%rcx
	.cfi_def_cfa_offset 8
	retq
.Lfunc_end56:
	.size	FF_function_133, .Lfunc_end56-FF_function_133
	.cfi_endproc
                                        # -- End function
	.globl	FF_function_132                 # -- Begin function FF_function_132
	.p2align	4, 0x90
	.type	FF_function_132,@function
FF_function_132:                        # @FF_function_132
	.cfi_startproc
# %bb.0:
	pushq	%rax
	.cfi_def_cfa_offset 16
	movl	$.L.str.104, %edi
	xorl	%eax, %eax
	callq	printf@PLT
	movl	$.L.str.102, %edi
	xorl	%eax, %eax
	callq	printf@PLT
	movl	$.L.str.100, %edi
	xorl	%eax, %eax
	callq	printf@PLT
	xorl	%esi, %esi
	callq	FF_function_135
	movl	$.L.str.101, %edi
	xorl	%eax, %eax
	callq	printf@PLT
	movl	$.L.str.103, %edi
	xorl	%eax, %eax
	callq	printf@PLT
	movl	$.L.str.105, %edi
	xorl	%eax, %eax
	callq	printf@PLT
	xorl	%eax, %eax
	popq	%rcx
	.cfi_def_cfa_offset 8
	retq
.Lfunc_end57:
	.size	FF_function_132, .Lfunc_end57-FF_function_132
	.cfi_endproc
                                        # -- End function
	.globl	FF_function_131                 # -- Begin function FF_function_131
	.p2align	4, 0x90
	.type	FF_function_131,@function
FF_function_131:                        # @FF_function_131
	.cfi_startproc
# %bb.0:
	pushq	%rax
	.cfi_def_cfa_offset 16
	movl	$.L.str.106, %edi
	xorl	%eax, %eax
	callq	printf@PLT
	movl	$.L.str.104, %edi
	xorl	%eax, %eax
	callq	printf@PLT
	movl	$.L.str.102, %edi
	xorl	%eax, %eax
	callq	printf@PLT
	movl	$.L.str.100, %edi
	xorl	%eax, %eax
	callq	printf@PLT
	xorl	%esi, %esi
	callq	FF_function_135
	movl	$.L.str.101, %edi
	xorl	%eax, %eax
	callq	printf@PLT
	movl	$.L.str.103, %edi
	xorl	%eax, %eax
	callq	printf@PLT
	movl	$.L.str.105, %edi
	xorl	%eax, %eax
	callq	printf@PLT
	movl	$.L.str.107, %edi
	xorl	%eax, %eax
	callq	printf@PLT
	xorl	%eax, %eax
	popq	%rcx
	.cfi_def_cfa_offset 8
	retq
.Lfunc_end58:
	.size	FF_function_131, .Lfunc_end58-FF_function_131
	.cfi_endproc
                                        # -- End function
	.globl	FF_function_130                 # -- Begin function FF_function_130
	.p2align	4, 0x90
	.type	FF_function_130,@function
FF_function_130:                        # @FF_function_130
	.cfi_startproc
# %bb.0:
	pushq	%rax
	.cfi_def_cfa_offset 16
	movl	$.L.str.108, %edi
	xorl	%eax, %eax
	callq	printf@PLT
	movl	$.L.str.106, %edi
	xorl	%eax, %eax
	callq	printf@PLT
	movl	$.L.str.104, %edi
	xorl	%eax, %eax
	callq	printf@PLT
	movl	$.L.str.102, %edi
	xorl	%eax, %eax
	callq	printf@PLT
	movl	$.L.str.100, %edi
	xorl	%eax, %eax
	callq	printf@PLT
	xorl	%esi, %esi
	callq	FF_function_135
	movl	$.L.str.101, %edi
	xorl	%eax, %eax
	callq	printf@PLT
	movl	$.L.str.103, %edi
	xorl	%eax, %eax
	callq	printf@PLT
	movl	$.L.str.105, %edi
	xorl	%eax, %eax
	callq	printf@PLT
	movl	$.L.str.107, %edi
	xorl	%eax, %eax
	callq	printf@PLT
	movl	$.L.str.109, %edi
	xorl	%eax, %eax
	callq	printf@PLT
	xorl	%eax, %eax
	popq	%rcx
	.cfi_def_cfa_offset 8
	retq
.Lfunc_end59:
	.size	FF_function_130, .Lfunc_end59-FF_function_130
	.cfi_endproc
                                        # -- End function
	.globl	FF_function_129                 # -- Begin function FF_function_129
	.p2align	4, 0x90
	.type	FF_function_129,@function
FF_function_129:                        # @FF_function_129
	.cfi_startproc
# %bb.0:
	pushq	%rax
	.cfi_def_cfa_offset 16
	movl	$.L.str.110, %edi
	xorl	%eax, %eax
	callq	printf@PLT
	movl	$.L.str.108, %edi
	xorl	%eax, %eax
	callq	printf@PLT
	movl	$.L.str.106, %edi
	xorl	%eax, %eax
	callq	printf@PLT
	movl	$.L.str.104, %edi
	xorl	%eax, %eax
	callq	printf@PLT
	movl	$.L.str.102, %edi
	xorl	%eax, %eax
	callq	printf@PLT
	movl	$.L.str.100, %edi
	xorl	%eax, %eax
	callq	printf@PLT
	xorl	%esi, %esi
	callq	FF_function_135
	movl	$.L.str.101, %edi
	xorl	%eax, %eax
	callq	printf@PLT
	movl	$.L.str.103, %edi
	xorl	%eax, %eax
	callq	printf@PLT
	movl	$.L.str.105, %edi
	xorl	%eax, %eax
	callq	printf@PLT
	movl	$.L.str.107, %edi
	xorl	%eax, %eax
	callq	printf@PLT
	movl	$.L.str.109, %edi
	xorl	%eax, %eax
	callq	printf@PLT
	callq	rand@PLT
	testl	%eax, %eax
	jle	.LBB60_2
# %bb.1:
	movl	$.L.str.111, %edi
	xorl	%eax, %eax
	callq	printf@PLT
.LBB60_2:
	xorl	%eax, %eax
	popq	%rcx
	.cfi_def_cfa_offset 8
	retq
.Lfunc_end60:
	.size	FF_function_129, .Lfunc_end60-FF_function_129
	.cfi_endproc
                                        # -- End function
	.globl	FF_function_126                 # -- Begin function FF_function_126
	.p2align	4, 0x90
	.type	FF_function_126,@function
FF_function_126:                        # @FF_function_126
	.cfi_startproc
# %bb.0:
	subq	$56, %rsp
	.cfi_def_cfa_offset 64
	movl	$.L.str.112, %edi
	xorl	%eax, %eax
	callq	printf@PLT
	movl	$0, 40(%rsp)
	movl	$0, 24(%rsp)
	movl	$0, 16(%rsp)
	movl	$0, 8(%rsp)
	movl	$0, (%rsp)
	xorl	%edi, %edi
	xorl	%r8d, %r8d
	callq	FF_function_129
	xorps	%xmm0, %xmm0
	xorl	%esi, %esi
	movb	$1, %al
	callq	FF_function_128
	callq	rand@PLT
	testl	%eax, %eax
	jle	.LBB61_2
# %bb.1:
	movl	$.L.str.113, %edi
	xorl	%eax, %eax
	callq	printf@PLT
.LBB61_2:
	xorl	%eax, %eax
	addq	$56, %rsp
	.cfi_def_cfa_offset 8
	retq
.Lfunc_end61:
	.size	FF_function_126, .Lfunc_end61-FF_function_126
	.cfi_endproc
                                        # -- End function
	.globl	FF_function_125                 # -- Begin function FF_function_125
	.p2align	4, 0x90
	.type	FF_function_125,@function
FF_function_125:                        # @FF_function_125
	.cfi_startproc
# %bb.0:
	subq	$56, %rsp
	.cfi_def_cfa_offset 64
	movl	$.L.str.114, %edi
	xorl	%eax, %eax
	callq	printf@PLT
	movl	$.L.str.112, %edi
	xorl	%eax, %eax
	callq	printf@PLT
	movl	$0, 40(%rsp)
	movl	$0, 24(%rsp)
	movl	$0, 16(%rsp)
	movl	$0, 8(%rsp)
	movl	$0, (%rsp)
	xorl	%edi, %edi
	xorl	%r8d, %r8d
	callq	FF_function_129
	xorps	%xmm0, %xmm0
	xorl	%esi, %esi
	movb	$1, %al
	callq	FF_function_128
	callq	rand@PLT
	testl	%eax, %eax
	jle	.LBB62_2
# %bb.1:
	movl	$.L.str.113, %edi
	xorl	%eax, %eax
	callq	printf@PLT
.LBB62_2:
	movl	$.L.str.115, %edi
	xorl	%eax, %eax
	callq	printf@PLT
	movabsq	$4539628424389459968, %rax      # imm = 0x3F00000000000000
	xorl	%edx, %edx
	addq	$56, %rsp
	.cfi_def_cfa_offset 8
	retq
.Lfunc_end62:
	.size	FF_function_125, .Lfunc_end62-FF_function_125
	.cfi_endproc
                                        # -- End function
	.globl	FF_function_124                 # -- Begin function FF_function_124
	.p2align	4, 0x90
	.type	FF_function_124,@function
FF_function_124:                        # @FF_function_124
	.cfi_startproc
# %bb.0:
	pushq	%rax
	.cfi_def_cfa_offset 16
	movl	$.L.str.116, %edi
	xorl	%eax, %eax
	callq	printf@PLT
	callq	FF_function_125
	movl	$.L.str.117, %edi
	xorl	%eax, %eax
	callq	printf@PLT
	xorl	%eax, %eax
	popq	%rcx
	.cfi_def_cfa_offset 8
	retq
.Lfunc_end63:
	.size	FF_function_124, .Lfunc_end63-FF_function_124
	.cfi_endproc
                                        # -- End function
	.globl	FF_function_121                 # -- Begin function FF_function_121
	.p2align	4, 0x90
	.type	FF_function_121,@function
FF_function_121:                        # @FF_function_121
	.cfi_startproc
# %bb.0:
	pushq	%rax
	.cfi_def_cfa_offset 16
	movl	$.L.str.118, %edi
	xorl	%eax, %eax
	callq	printf@PLT
	movl	$.L.str.116, %edi
	xorl	%eax, %eax
	callq	printf@PLT
	callq	FF_function_125
	movl	$.L.str.117, %edi
	xorl	%eax, %eax
	callq	printf@PLT
	xorps	%xmm0, %xmm0
	xorl	%esi, %esi
	movb	$1, %al
	callq	FF_function_123
	movl	$.L.str.119, %edi
	xorl	%eax, %eax
	callq	printf@PLT
	xorps	%xmm0, %xmm0
	popq	%rax
	.cfi_def_cfa_offset 8
	retq
.Lfunc_end64:
	.size	FF_function_121, .Lfunc_end64-FF_function_121
	.cfi_endproc
                                        # -- End function
	.globl	FF_function_120                 # -- Begin function FF_function_120
	.p2align	4, 0x90
	.type	FF_function_120,@function
FF_function_120:                        # @FF_function_120
	.cfi_startproc
# %bb.0:
	pushq	%rax
	.cfi_def_cfa_offset 16
	movl	$.L.str.120, %edi
	xorl	%eax, %eax
	callq	printf@PLT
	movl	$.L.str.118, %edi
	xorl	%eax, %eax
	callq	printf@PLT
	movl	$.L.str.116, %edi
	xorl	%eax, %eax
	callq	printf@PLT
	callq	FF_function_125
	movl	$.L.str.117, %edi
	xorl	%eax, %eax
	callq	printf@PLT
	xorps	%xmm0, %xmm0
	xorl	%esi, %esi
	movb	$1, %al
	callq	FF_function_123
	movl	$.L.str.119, %edi
	xorl	%eax, %eax
	callq	printf@PLT
	movl	$.L.str.121, %edi
	xorl	%eax, %eax
	callq	printf@PLT
	movabsq	$4539628424389459968, %rax      # imm = 0x3F00000000000000
	xorl	%edx, %edx
	popq	%rcx
	.cfi_def_cfa_offset 8
	retq
.Lfunc_end65:
	.size	FF_function_120, .Lfunc_end65-FF_function_120
	.cfi_endproc
                                        # -- End function
	.globl	FF_function_119                 # -- Begin function FF_function_119
	.p2align	4, 0x90
	.type	FF_function_119,@function
FF_function_119:                        # @FF_function_119
	.cfi_startproc
# %bb.0:
	pushq	%rax
	.cfi_def_cfa_offset 16
	movl	$.L.str.122, %edi
	xorl	%eax, %eax
	callq	printf@PLT
	movl	$.L.str.120, %edi
	xorl	%eax, %eax
	callq	printf@PLT
	movl	$.L.str.118, %edi
	xorl	%eax, %eax
	callq	printf@PLT
	movl	$.L.str.116, %edi
	xorl	%eax, %eax
	callq	printf@PLT
	callq	FF_function_125
	movl	$.L.str.117, %edi
	xorl	%eax, %eax
	callq	printf@PLT
	xorps	%xmm0, %xmm0
	xorl	%esi, %esi
	movb	$1, %al
	callq	FF_function_123
	movl	$.L.str.119, %edi
	xorl	%eax, %eax
	callq	printf@PLT
	movl	$.L.str.121, %edi
	xorl	%eax, %eax
	callq	printf@PLT
	movl	$.L.str.123, %edi
	xorl	%eax, %eax
	callq	printf@PLT
	xorl	%eax, %eax
	popq	%rcx
	.cfi_def_cfa_offset 8
	retq
.Lfunc_end66:
	.size	FF_function_119, .Lfunc_end66-FF_function_119
	.cfi_endproc
                                        # -- End function
	.globl	FF_function_118                 # -- Begin function FF_function_118
	.p2align	4, 0x90
	.type	FF_function_118,@function
FF_function_118:                        # @FF_function_118
	.cfi_startproc
# %bb.0:
	pushq	%rax
	.cfi_def_cfa_offset 16
	movl	$.L.str.124, %edi
	xorl	%eax, %eax
	callq	printf@PLT
	movl	$.L.str.122, %edi
	xorl	%eax, %eax
	callq	printf@PLT
	movl	$.L.str.120, %edi
	xorl	%eax, %eax
	callq	printf@PLT
	movl	$.L.str.118, %edi
	xorl	%eax, %eax
	callq	printf@PLT
	movl	$.L.str.116, %edi
	xorl	%eax, %eax
	callq	printf@PLT
	callq	FF_function_125
	movl	$.L.str.117, %edi
	xorl	%eax, %eax
	callq	printf@PLT
	xorps	%xmm0, %xmm0
	xorl	%esi, %esi
	movb	$1, %al
	callq	FF_function_123
	movl	$.L.str.119, %edi
	xorl	%eax, %eax
	callq	printf@PLT
	movl	$.L.str.121, %edi
	xorl	%eax, %eax
	callq	printf@PLT
	movl	$.L.str.123, %edi
	xorl	%eax, %eax
	callq	printf@PLT
	movl	$.L.str.125, %edi
	xorl	%eax, %eax
	callq	printf@PLT
	xorl	%eax, %eax
	popq	%rcx
	.cfi_def_cfa_offset 8
	retq
.Lfunc_end67:
	.size	FF_function_118, .Lfunc_end67-FF_function_118
	.cfi_endproc
                                        # -- End function
	.globl	FF_function_115                 # -- Begin function FF_function_115
	.p2align	4, 0x90
	.type	FF_function_115,@function
FF_function_115:                        # @FF_function_115
	.cfi_startproc
# %bb.0:
	pushq	%rax
	.cfi_def_cfa_offset 16
	movl	$.L.str.126, %edi
	xorl	%eax, %eax
	callq	printf@PLT
	callq	FF_function_118
	xorps	%xmm0, %xmm0
	xorps	%xmm1, %xmm1
	movb	$2, %al
	callq	FF_function_117
	movl	$.L.str.127, %edi
	xorl	%eax, %eax
	callq	printf@PLT
	xorl	%eax, %eax
	popq	%rcx
	.cfi_def_cfa_offset 8
	retq
.Lfunc_end68:
	.size	FF_function_115, .Lfunc_end68-FF_function_115
	.cfi_endproc
                                        # -- End function
	.globl	FF_function_114                 # -- Begin function FF_function_114
	.p2align	4, 0x90
	.type	FF_function_114,@function
FF_function_114:                        # @FF_function_114
	.cfi_startproc
# %bb.0:
	pushq	%rax
	.cfi_def_cfa_offset 16
	movl	$.L.str.128, %edi
	xorl	%eax, %eax
	callq	printf@PLT
	movl	$.L.str.126, %edi
	xorl	%eax, %eax
	callq	printf@PLT
	callq	FF_function_118
	xorps	%xmm0, %xmm0
	xorps	%xmm1, %xmm1
	movb	$2, %al
	callq	FF_function_117
	movl	$.L.str.127, %edi
	xorl	%eax, %eax
	callq	printf@PLT
	movl	$.L.str.129, %edi
	xorl	%eax, %eax
	callq	printf@PLT
	xorl	%eax, %eax
	popq	%rcx
	.cfi_def_cfa_offset 8
	retq
.Lfunc_end69:
	.size	FF_function_114, .Lfunc_end69-FF_function_114
	.cfi_endproc
                                        # -- End function
	.globl	FF_function_113                 # -- Begin function FF_function_113
	.p2align	4, 0x90
	.type	FF_function_113,@function
FF_function_113:                        # @FF_function_113
	.cfi_startproc
# %bb.0:
	pushq	%rax
	.cfi_def_cfa_offset 16
	movl	$.L.str.130, %edi
	xorl	%eax, %eax
	callq	printf@PLT
	movl	$.L.str.128, %edi
	xorl	%eax, %eax
	callq	printf@PLT
	movl	$.L.str.126, %edi
	xorl	%eax, %eax
	callq	printf@PLT
	callq	FF_function_118
	xorps	%xmm0, %xmm0
	xorps	%xmm1, %xmm1
	movb	$2, %al
	callq	FF_function_117
	movl	$.L.str.127, %edi
	xorl	%eax, %eax
	callq	printf@PLT
	movl	$.L.str.129, %edi
	xorl	%eax, %eax
	callq	printf@PLT
	movl	$.L.str.131, %edi
	xorl	%eax, %eax
	callq	printf@PLT
	movabsq	$4539628424389459968, %rax      # imm = 0x3F00000000000000
	xorl	%edx, %edx
	popq	%rcx
	.cfi_def_cfa_offset 8
	retq
.Lfunc_end70:
	.size	FF_function_113, .Lfunc_end70-FF_function_113
	.cfi_endproc
                                        # -- End function
	.globl	FF_function_110                 # -- Begin function FF_function_110
	.p2align	4, 0x90
	.type	FF_function_110,@function
FF_function_110:                        # @FF_function_110
	.cfi_startproc
# %bb.0:
	pushq	%rax
	.cfi_def_cfa_offset 16
	movl	$.L.str.132, %edi
	xorl	%eax, %eax
	callq	printf@PLT
	movl	$.L.str.130, %edi
	xorl	%eax, %eax
	callq	printf@PLT
	movl	$.L.str.128, %edi
	xorl	%eax, %eax
	callq	printf@PLT
	movl	$.L.str.126, %edi
	xorl	%eax, %eax
	callq	printf@PLT
	callq	FF_function_118
	xorps	%xmm0, %xmm0
	xorps	%xmm1, %xmm1
	movb	$2, %al
	callq	FF_function_117
	movl	$.L.str.127, %edi
	xorl	%eax, %eax
	callq	printf@PLT
	movl	$.L.str.129, %edi
	xorl	%eax, %eax
	callq	printf@PLT
	movl	$.L.str.131, %edi
	xorl	%eax, %eax
	callq	printf@PLT
	xorl	%edx, %edx
	xorl	%ecx, %ecx
	xorl	%eax, %eax
	callq	FF_function_112
	xorl	%eax, %eax
	popq	%rcx
	.cfi_def_cfa_offset 8
	retq
.Lfunc_end71:
	.size	FF_function_110, .Lfunc_end71-FF_function_110
	.cfi_endproc
                                        # -- End function
	.globl	FF_function_109                 # -- Begin function FF_function_109
	.p2align	4, 0x90
	.type	FF_function_109,@function
FF_function_109:                        # @FF_function_109
	.cfi_startproc
# %bb.0:
	pushq	%rax
	.cfi_def_cfa_offset 16
	movl	$.L.str.133, %edi
	xorl	%eax, %eax
	callq	printf@PLT
	movl	$.L.str.132, %edi
	xorl	%eax, %eax
	callq	printf@PLT
	movl	$.L.str.130, %edi
	xorl	%eax, %eax
	callq	printf@PLT
	movl	$.L.str.128, %edi
	xorl	%eax, %eax
	callq	printf@PLT
	movl	$.L.str.126, %edi
	xorl	%eax, %eax
	callq	printf@PLT
	callq	FF_function_118
	xorps	%xmm0, %xmm0
	xorps	%xmm1, %xmm1
	movb	$2, %al
	callq	FF_function_117
	movl	$.L.str.127, %edi
	xorl	%eax, %eax
	callq	printf@PLT
	movl	$.L.str.129, %edi
	xorl	%eax, %eax
	callq	printf@PLT
	movl	$.L.str.131, %edi
	xorl	%eax, %eax
	callq	printf@PLT
	xorl	%edx, %edx
	xorl	%ecx, %ecx
	xorl	%eax, %eax
	callq	FF_function_112
	movl	$.L.str.134, %edi
	xorl	%eax, %eax
	callq	printf@PLT
	xorl	%eax, %eax
	popq	%rcx
	.cfi_def_cfa_offset 8
	retq
.Lfunc_end72:
	.size	FF_function_109, .Lfunc_end72-FF_function_109
	.cfi_endproc
                                        # -- End function
	.globl	FF_function_108                 # -- Begin function FF_function_108
	.p2align	4, 0x90
	.type	FF_function_108,@function
FF_function_108:                        # @FF_function_108
	.cfi_startproc
# %bb.0:
	pushq	%rax
	.cfi_def_cfa_offset 16
	movl	$.L.str.135, %edi
	xorl	%eax, %eax
	callq	printf@PLT
	callq	FF_function_109
	movl	$.L.str.136, %edi
	xorl	%eax, %eax
	callq	printf@PLT
	xorl	%eax, %eax
	popq	%rcx
	.cfi_def_cfa_offset 8
	retq
.Lfunc_end73:
	.size	FF_function_108, .Lfunc_end73-FF_function_108
	.cfi_endproc
                                        # -- End function
	.globl	FF_function_107                 # -- Begin function FF_function_107
	.p2align	4, 0x90
	.type	FF_function_107,@function
FF_function_107:                        # @FF_function_107
	.cfi_startproc
# %bb.0:
	pushq	%rax
	.cfi_def_cfa_offset 16
	movl	$.L.str.137, %edi
	xorl	%eax, %eax
	callq	printf@PLT
	movl	$.L.str.135, %edi
	xorl	%eax, %eax
	callq	printf@PLT
	callq	FF_function_109
	movl	$.L.str.136, %edi
	xorl	%eax, %eax
	callq	printf@PLT
	xorl	%eax, %eax
	popq	%rcx
	.cfi_def_cfa_offset 8
	retq
.Lfunc_end74:
	.size	FF_function_107, .Lfunc_end74-FF_function_107
	.cfi_endproc
                                        # -- End function
	.globl	FF_function_106                 # -- Begin function FF_function_106
	.p2align	4, 0x90
	.type	FF_function_106,@function
FF_function_106:                        # @FF_function_106
	.cfi_startproc
# %bb.0:
	pushq	%rax
	.cfi_def_cfa_offset 16
	movl	$.L.str.138, %edi
	xorl	%eax, %eax
	callq	printf@PLT
	movl	$.L.str.137, %edi
	xorl	%eax, %eax
	callq	printf@PLT
	movl	$.L.str.135, %edi
	xorl	%eax, %eax
	callq	printf@PLT
	callq	FF_function_109
	movl	$.L.str.136, %edi
	xorl	%eax, %eax
	callq	printf@PLT
	callq	rand@PLT
	testl	%eax, %eax
	jle	.LBB75_2
# %bb.1:
	movl	$.L.str.139, %edi
	xorl	%eax, %eax
	callq	printf@PLT
.LBB75_2:
	xorl	%eax, %eax
	popq	%rcx
	.cfi_def_cfa_offset 8
	retq
.Lfunc_end75:
	.size	FF_function_106, .Lfunc_end75-FF_function_106
	.cfi_endproc
                                        # -- End function
	.globl	FF_function_105                 # -- Begin function FF_function_105
	.p2align	4, 0x90
	.type	FF_function_105,@function
FF_function_105:                        # @FF_function_105
	.cfi_startproc
# %bb.0:
	pushq	%rax
	.cfi_def_cfa_offset 16
	movl	$.L.str.140, %edi
	xorl	%eax, %eax
	callq	printf@PLT
	movl	$.L.str.138, %edi
	xorl	%eax, %eax
	callq	printf@PLT
	movl	$.L.str.137, %edi
	xorl	%eax, %eax
	callq	printf@PLT
	movl	$.L.str.135, %edi
	xorl	%eax, %eax
	callq	printf@PLT
	callq	FF_function_109
	movl	$.L.str.136, %edi
	xorl	%eax, %eax
	callq	printf@PLT
	callq	rand@PLT
	testl	%eax, %eax
	jle	.LBB76_2
# %bb.1:
	movl	$.L.str.139, %edi
	xorl	%eax, %eax
	callq	printf@PLT
.LBB76_2:
	movl	$.L.str.141, %edi
	xorl	%eax, %eax
	callq	printf@PLT
	movabsq	$4539628424389459968, %rax      # imm = 0x3F00000000000000
	xorl	%edx, %edx
	popq	%rcx
	.cfi_def_cfa_offset 8
	retq
.Lfunc_end76:
	.size	FF_function_105, .Lfunc_end76-FF_function_105
	.cfi_endproc
                                        # -- End function
	.globl	FF_function_104                 # -- Begin function FF_function_104
	.p2align	4, 0x90
	.type	FF_function_104,@function
FF_function_104:                        # @FF_function_104
	.cfi_startproc
# %bb.0:
	pushq	%rax
	.cfi_def_cfa_offset 16
	movl	$.L.str.142, %edi
	xorl	%eax, %eax
	callq	printf@PLT
	xorl	%edi, %edi
	xorl	%esi, %esi
	callq	FF_function_105
	movl	$.L.str.143, %edi
	xorl	%eax, %eax
	callq	printf@PLT
	xorps	%xmm0, %xmm0
	popq	%rax
	.cfi_def_cfa_offset 8
	retq
.Lfunc_end77:
	.size	FF_function_104, .Lfunc_end77-FF_function_104
	.cfi_endproc
                                        # -- End function
	.globl	CF_function_174                 # -- Begin function CF_function_174
	.p2align	4, 0x90
	.type	CF_function_174,@function
CF_function_174:                        # @CF_function_174
	.cfi_startproc
# %bb.0:
	pushq	%rbx
	.cfi_def_cfa_offset 16
	.cfi_offset %rbx, -16
	movl	$.L.str.144, %edi
	xorl	%eax, %eax
	callq	printf@PLT
	movl	$.L.str.145, %edi
	xorl	%eax, %eax
	callq	printf@PLT
	movl	$.L.str.146, %edi
	xorl	%eax, %eax
	callq	printf@PLT
	movq	stdin@GOTPCREL(%rip), %rbx
	movq	(%rbx), %rdi
	callq	getc@PLT
	movl	$.L.str.146, %edi
	xorl	%eax, %eax
	callq	printf@PLT
	movq	(%rbx), %rdi
	callq	getc@PLT
	movl	$.L.str.146, %edi
	xorl	%eax, %eax
	callq	printf@PLT
	movq	(%rbx), %rdi
	callq	getc@PLT
	movl	$.L.str.146, %edi
	xorl	%eax, %eax
	callq	printf@PLT
	movq	(%rbx), %rdi
	callq	getc@PLT
	movl	$.L.str.146, %edi
	xorl	%eax, %eax
	callq	printf@PLT
	movq	(%rbx), %rdi
	callq	getc@PLT
	movl	$.L.str.146, %edi
	xorl	%eax, %eax
	callq	printf@PLT
	movq	(%rbx), %rdi
	callq	getc@PLT
	movl	$.L.str.146, %edi
	xorl	%eax, %eax
	callq	printf@PLT
	movq	(%rbx), %rdi
	callq	getc@PLT
	movl	$.L.str.146, %edi
	xorl	%eax, %eax
	callq	printf@PLT
	movq	(%rbx), %rdi
	callq	getc@PLT
	movl	$.L.str.146, %edi
	xorl	%eax, %eax
	callq	printf@PLT
	movq	(%rbx), %rdi
	callq	getc@PLT
	movl	$.L.str.146, %edi
	xorl	%eax, %eax
	callq	printf@PLT
	movq	(%rbx), %rdi
	callq	getc@PLT
	movl	$.L.str.146, %edi
	xorl	%eax, %eax
	callq	printf@PLT
	movq	(%rbx), %rdi
	callq	getc@PLT
	movl	$.L.str.146, %edi
	xorl	%eax, %eax
	callq	printf@PLT
	movq	(%rbx), %rdi
	callq	getc@PLT
	movl	$.L.str.146, %edi
	xorl	%eax, %eax
	callq	printf@PLT
	movq	(%rbx), %rdi
	callq	getc@PLT
	movl	$.L.str.146, %edi
	xorl	%eax, %eax
	callq	printf@PLT
	movq	(%rbx), %rdi
	callq	getc@PLT
	movl	$.L.str.146, %edi
	xorl	%eax, %eax
	callq	printf@PLT
	movq	(%rbx), %rdi
	callq	getc@PLT
	movl	$.L.str.146, %edi
	xorl	%eax, %eax
	callq	printf@PLT
	movq	(%rbx), %rdi
	callq	getc@PLT
	movl	$.L.str.146, %edi
	xorl	%eax, %eax
	callq	printf@PLT
	movq	(%rbx), %rdi
	callq	getc@PLT
	movl	$.L.str.146, %edi
	xorl	%eax, %eax
	callq	printf@PLT
	movq	(%rbx), %rdi
	callq	getc@PLT
	movl	$.L.str.147, %edi
	xorl	%eax, %eax
	callq	printf@PLT
	movl	$.L.str.118, %edi
	xorl	%eax, %eax
	callq	printf@PLT
	movl	$.L.str.116, %edi
	xorl	%eax, %eax
	callq	printf@PLT
	callq	FF_function_125
	movl	$.L.str.117, %edi
	xorl	%eax, %eax
	callq	printf@PLT
	xorps	%xmm0, %xmm0
	xorl	%esi, %esi
	movb	$1, %al
	callq	FF_function_123
	movl	$.L.str.119, %edi
	xorl	%eax, %eax
	callq	printf@PLT
	movl	$.L.str.148, %edi
	xorl	%eax, %eax
	callq	printf@PLT
	xorl	%eax, %eax
	popq	%rbx
	.cfi_def_cfa_offset 8
	retq
.Lfunc_end78:
	.size	CF_function_174, .Lfunc_end78-CF_function_174
	.cfi_endproc
                                        # -- End function
	.globl	FF_function_176                 # -- Begin function FF_function_176
	.p2align	4, 0x90
	.type	FF_function_176,@function
FF_function_176:                        # @FF_function_176
	.cfi_startproc
# %bb.0:
	pushq	%rbx
	.cfi_def_cfa_offset 16
	subq	$208, %rsp
	.cfi_def_cfa_offset 224
	.cfi_offset %rbx, -16
	movq	%rsi, 40(%rsp)
	movq	%rdx, 48(%rsp)
	movq	%rcx, 56(%rsp)
	movq	%r8, 64(%rsp)
	movq	%r9, 72(%rsp)
	testb	%al, %al
	je	.LBB79_5
# %bb.4:
	movaps	%xmm0, 80(%rsp)
	movaps	%xmm1, 96(%rsp)
	movaps	%xmm2, 112(%rsp)
	movaps	%xmm3, 128(%rsp)
	movaps	%xmm4, 144(%rsp)
	movaps	%xmm5, 160(%rsp)
	movaps	%xmm6, 176(%rsp)
	movaps	%xmm7, 192(%rsp)
.LBB79_5:
	movl	$.L.str.149, %edi
	xorl	%eax, %eax
	callq	printf@PLT
	leaq	32(%rsp), %rax
	movq	%rax, 16(%rsp)
	leaq	224(%rsp), %rax
	movq	%rax, 8(%rsp)
	movabsq	$206158430216, %rax             # imm = 0x3000000008
	movq	%rax, (%rsp)
	movl	$8, %ecx
	cmpq	$40, %rcx
	ja	.LBB79_2
# %bb.1:
	movl	$8, %eax
	addq	16(%rsp), %rax
	addl	$8, %ecx
	movl	%ecx, (%rsp)
	jmp	.LBB79_3
.LBB79_2:
	movq	8(%rsp), %rax
	leaq	8(%rax), %rcx
	movq	%rcx, 8(%rsp)
.LBB79_3:
	movb	(%rax), %bl
	movl	$1, %esi
	xorl	%eax, %eax
	callq	FF_function_176
	movl	$1, %esi
	movl	$2, %edx
	movl	$3, %ecx
	xorl	%eax, %eax
	callq	FF_function_176
	movl	$.L.str.150, %edi
	xorl	%eax, %eax
	callq	printf@PLT
	movl	%ebx, %eax
	addq	$208, %rsp
	.cfi_def_cfa_offset 16
	popq	%rbx
	.cfi_def_cfa_offset 8
	retq
.Lfunc_end79:
	.size	FF_function_176, .Lfunc_end79-FF_function_176
	.cfi_endproc
                                        # -- End function
	.section	.rodata.cst4,"aM",@progbits,4
	.p2align	2                               # -- Begin function CF_function_177
.LCPI80_0:
	.long	0x456ce8f6                      # float 3790.56006
.LCPI80_2:
	.long	0x3f800000                      # float 1
	.section	.rodata.cst8,"aM",@progbits,8
	.p2align	3
.LCPI80_1:
	.quad	0x40ad9d1ec0000000              # double 3790.56005859375
	.text
	.globl	CF_function_177
	.p2align	4, 0x90
	.type	CF_function_177,@function
CF_function_177:                        # @CF_function_177
	.cfi_startproc
# %bb.0:
	pushq	%rbx
	.cfi_def_cfa_offset 16
	subq	$32, %rsp
	.cfi_def_cfa_offset 48
	.cfi_offset %rbx, -16
	movl	$.L.str.151, %edi
	xorl	%eax, %eax
	callq	printf@PLT
	movl	$.L.str.152, %edi
	xorl	%eax, %eax
	callq	printf@PLT
	movl	$.L.str.153, %edi
	xorl	%eax, %eax
	callq	printf@PLT
	movl	$.L.str.154, %edi
	xorl	%eax, %eax
	callq	printf@PLT
	movq	stdin@GOTPCREL(%rip), %rbx
.LBB80_1:                               # =>This Loop Header: Depth=1
                                        #     Child Loop BB80_4 Depth 2
                                        #       Child Loop BB80_5 Depth 3
                                        #         Child Loop BB80_10 Depth 4
                                        #           Child Loop BB80_11 Depth 5
	movq	(%rbx), %rdi
	callq	getc@PLT
	cmpl	$23, %eax
	je	.LBB80_14
# %bb.2:                                #   in Loop: Header=BB80_1 Depth=1
	movq	(%rbx), %rdi
	callq	getc@PLT
	cmpl	$97, %eax
	je	.LBB80_26
# %bb.3:                                #   in Loop: Header=BB80_1 Depth=1
	xorl	%r9d, %r9d
	callq	FF_function_139
	movl	$.L.str.37, %edi
	xorl	%eax, %eax
	callq	printf@PLT
	movl	$.L.str.155, %edi
.LBB80_4:                               #   Parent Loop BB80_1 Depth=1
                                        # =>  This Loop Header: Depth=2
                                        #       Child Loop BB80_5 Depth 3
                                        #         Child Loop BB80_10 Depth 4
                                        #           Child Loop BB80_11 Depth 5
	xorl	%eax, %eax
	callq	printf@PLT
.LBB80_5:                               #   Parent Loop BB80_1 Depth=1
                                        #     Parent Loop BB80_4 Depth=2
                                        # =>    This Loop Header: Depth=3
                                        #         Child Loop BB80_10 Depth 4
                                        #           Child Loop BB80_11 Depth 5
	movl	$.L.str.156, %edi
	xorl	%eax, %eax
	callq	printf@PLT
	movl	$.L.str.157, %edi
	xorl	%eax, %eax
	callq	printf@PLT
	movq	(%rbx), %rdi
	callq	getc@PLT
	cmpl	$23, %eax
	je	.LBB80_22
# %bb.6:                                #   in Loop: Header=BB80_5 Depth=3
	movq	(%rbx), %rdi
	callq	getc@PLT
	cmpl	$19, %eax
	je	.LBB80_22
# %bb.7:                                #   in Loop: Header=BB80_5 Depth=3
	movq	(%rbx), %rdi
	callq	getc@PLT
	cmpl	$83, %eax
	je	.LBB80_8
# %bb.9:                                #   in Loop: Header=BB80_5 Depth=3
	movl	$.L.str.159, %edi
	xorl	%eax, %eax
	callq	printf@PLT
	movl	$.L.str.160, %edi
	xorl	%eax, %eax
	callq	printf@PLT
	movsd	.LCPI80_1(%rip), %xmm0          # xmm0 = mem[0],zero
	movsd	%xmm0, 24(%rsp)                 # 8-byte Spill
	movss	.LCPI80_0(%rip), %xmm0          # xmm0 = mem[0],zero,zero,zero
.LBB80_10:                              #   Parent Loop BB80_1 Depth=1
                                        #     Parent Loop BB80_4 Depth=2
                                        #       Parent Loop BB80_5 Depth=3
                                        # =>      This Loop Header: Depth=4
                                        #           Child Loop BB80_11 Depth 5
	movss	%xmm0, 20(%rsp)                 # 4-byte Spill
	.p2align	4, 0x90
.LBB80_11:                              #   Parent Loop BB80_1 Depth=1
                                        #     Parent Loop BB80_4 Depth=2
                                        #       Parent Loop BB80_5 Depth=3
                                        #         Parent Loop BB80_10 Depth=4
                                        # =>        This Inner Loop Header: Depth=5
	movl	$.L.str.161, %edi
	movsd	24(%rsp), %xmm0                 # 8-byte Reload
                                        # xmm0 = mem[0],zero
	movb	$1, %al
	callq	printf@PLT
	movl	$.L.str.162, %edi
	xorl	%eax, %eax
	callq	printf@PLT
	movq	(%rbx), %rdi
	callq	getc@PLT
	cmpl	$31, %eax
	je	.LBB80_15
# %bb.12:                               #   in Loop: Header=BB80_11 Depth=5
	movq	(%rbx), %rdi
	callq	getc@PLT
	cmpl	$73, %eax
	je	.LBB80_13
# %bb.16:                               #   in Loop: Header=BB80_11 Depth=5
	movl	$.L.str.164, %edi
	xorl	%eax, %eax
	callq	printf@PLT
	movq	(%rbx), %rdi
	callq	getc@PLT
	cmpl	$67, %eax
	je	.LBB80_11
# %bb.17:                               #   in Loop: Header=BB80_10 Depth=4
	movq	(%rbx), %rdi
	callq	getc@PLT
	cmpl	$17, %eax
	je	.LBB80_19
# %bb.18:                               #   in Loop: Header=BB80_10 Depth=4
	movl	$.L.str.38, %edi
	xorl	%eax, %eax
	callq	printf@PLT
	callq	rand@PLT
.LBB80_19:                              #   in Loop: Header=BB80_10 Depth=4
	movq	(%rbx), %rdi
	callq	getc@PLT
	xorps	%xmm0, %xmm0
	cvtsi2ss	%eax, %xmm0
	movss	20(%rsp), %xmm1                 # 4-byte Reload
                                        # xmm1 = mem[0],zero,zero,zero
	subss	%xmm0, %xmm1
	movaps	%xmm1, %xmm0
	ucomiss	.LCPI80_2(%rip), %xmm1
	cvtss2sd	%xmm1, %xmm1
	movsd	%xmm1, 24(%rsp)                 # 8-byte Spill
	jne	.LBB80_10
	jp	.LBB80_10
# %bb.20:                               #   in Loop: Header=BB80_5 Depth=3
	movl	$.L.str.165, %edi
	xorl	%eax, %eax
	callq	printf@PLT
	movl	$.L.str.82, %edi
	xorl	%eax, %eax
	callq	printf@PLT
	movl	$.L.str.83, %edi
	xorl	%eax, %eax
	callq	printf@PLT
	movq	(%rbx), %rdi
	callq	getc@PLT
	cmpl	$17, %eax
	je	.LBB80_5
# %bb.21:                               #   in Loop: Header=BB80_4 Depth=2
	movl	$.L.str.166, %edi
	jmp	.LBB80_4
	.p2align	4, 0x90
.LBB80_22:                              #   in Loop: Header=BB80_1 Depth=1
	movl	$.L.str.167, %edi
	xorl	%eax, %eax
	callq	printf@PLT
	movl	$.L.str.168, %edi
.LBB80_23:                              #   in Loop: Header=BB80_1 Depth=1
	xorl	%eax, %eax
	callq	printf@PLT
	movq	(%rbx), %rdi
	callq	getc@PLT
	cmpl	$67, %eax
	je	.LBB80_25
# %bb.24:                               #   in Loop: Header=BB80_1 Depth=1
	movl	$.L.str.169, %edi
	xorl	%eax, %eax
	callq	printf@PLT
.LBB80_25:                              #   in Loop: Header=BB80_1 Depth=1
	movl	$.L.str.153, %edi
	xorl	%eax, %eax
	callq	printf@PLT
	movl	$.L.str.154, %edi
	xorl	%eax, %eax
	callq	printf@PLT
	jmp	.LBB80_1
.LBB80_8:                               #   in Loop: Header=BB80_1 Depth=1
	movl	$.L.str.158, %edi
	jmp	.LBB80_23
.LBB80_13:
	movl	$.L.str.163, %edi
	xorl	%eax, %eax
	callq	printf@PLT
.LBB80_14:
	movl	$.L.str.170, %edi
	xorl	%eax, %eax
	callq	printf@PLT
	movl	$.L.str.171, %edi
	xorl	%eax, %eax
	callq	printf@PLT
	movl	$.L.str.172, %edi
	xorl	%eax, %eax
	callq	printf@PLT
.LBB80_15:
	xorps	%xmm0, %xmm0
	addq	$32, %rsp
	.cfi_def_cfa_offset 16
	popq	%rbx
	.cfi_def_cfa_offset 8
	retq
.LBB80_26:
	.cfi_def_cfa_offset 48
	movl	$1923, %edi                     # imm = 0x783
	callq	exit@PLT
.Lfunc_end80:
	.size	CF_function_177, .Lfunc_end80-CF_function_177
	.cfi_endproc
                                        # -- End function
	.section	.rodata.cst4,"aM",@progbits,4
	.p2align	2                               # -- Begin function CF_function_178
.LCPI81_0:
	.long	0x45267d9a                      # float 2663.8501
.LCPI81_2:
	.long	0x3f800000                      # float 1
	.section	.rodata.cst8,"aM",@progbits,8
	.p2align	3
.LCPI81_1:
	.quad	0xc01999999999999a              # double -6.4000000000000004
	.text
	.globl	CF_function_178
	.p2align	4, 0x90
	.type	CF_function_178,@function
CF_function_178:                        # @CF_function_178
	.cfi_startproc
# %bb.0:
	pushq	%rbp
	.cfi_def_cfa_offset 16
	pushq	%rbx
	.cfi_def_cfa_offset 24
	pushq	%rax
	.cfi_def_cfa_offset 32
	.cfi_offset %rbx, -24
	.cfi_offset %rbp, -16
	movl	$.L.str.173, %edi
	xorl	%eax, %eax
	callq	printf@PLT
	movl	$.L.str.174, %edi
	xorl	%eax, %eax
	callq	printf@PLT
	movl	$3, %ebp
	movq	stdin@GOTPCREL(%rip), %rbx
.LBB81_1:                               # =>This Loop Header: Depth=1
                                        #     Child Loop BB81_5 Depth 2
                                        #       Child Loop BB81_6 Depth 3
	movl	$.L.str.175, %edi
	movl	%ebp, %esi
	xorl	%eax, %eax
	callq	printf@PLT
	movl	$.L.str.176, %edi
	xorl	%eax, %eax
	callq	printf@PLT
	movq	(%rbx), %rdi
	callq	getc@PLT
	cmpl	$19, %eax
	je	.LBB81_33
# %bb.2:                                #   in Loop: Header=BB81_1 Depth=1
	movq	(%rbx), %rdi
	callq	getc@PLT
	cmpl	$83, %eax
	je	.LBB81_3
# %bb.4:                                #   in Loop: Header=BB81_1 Depth=1
	movl	$.L.str.178, %edi
	xorl	%eax, %eax
	callq	printf@PLT
	movl	$.L.str.179, %edi
.LBB81_5:                               #   Parent Loop BB81_1 Depth=1
                                        # =>  This Loop Header: Depth=2
                                        #       Child Loop BB81_6 Depth 3
	xorl	%eax, %eax
	callq	printf@PLT
.LBB81_6:                               #   Parent Loop BB81_1 Depth=1
                                        #     Parent Loop BB81_5 Depth=2
                                        # =>    This Inner Loop Header: Depth=3
	movl	$.L.str.180, %edi
	xorl	%eax, %eax
	callq	printf@PLT
	movl	$.L.str.181, %edi
	xorl	%eax, %eax
	callq	printf@PLT
	movq	(%rbx), %rdi
	callq	getc@PLT
	cmpl	$97, %eax
	je	.LBB81_36
# %bb.7:                                #   in Loop: Header=BB81_6 Depth=3
	movq	(%rbx), %rdi
	callq	getc@PLT
	cmpl	$19, %eax
	je	.LBB81_31
# %bb.8:                                #   in Loop: Header=BB81_6 Depth=3
	movq	(%rbx), %rdi
	callq	getc@PLT
	cmpl	$83, %eax
	je	.LBB81_9
# %bb.10:                               #   in Loop: Header=BB81_6 Depth=3
	movq	(%rbx), %rdi
	callq	getc@PLT
	cmpl	$73, %eax
	je	.LBB81_11
# %bb.13:                               #   in Loop: Header=BB81_6 Depth=3
	movl	$.L.str.184, %edi
	xorl	%eax, %eax
	callq	printf@PLT
	movq	(%rbx), %rdi
	callq	getc@PLT
	cmpl	$79, %eax
	je	.LBB81_14
# %bb.29:                               #   in Loop: Header=BB81_6 Depth=3
	movl	$.L.str.197, %edi
	xorl	%eax, %eax
	callq	printf@PLT
	movl	$.L.str.45, %edi
	xorl	%eax, %eax
	callq	printf@PLT
	movq	(%rbx), %rdi
	callq	getc@PLT
	cmpl	$17, %eax
	je	.LBB81_6
# %bb.30:                               #   in Loop: Header=BB81_5 Depth=2
	movl	$.L.str.198, %edi
	jmp	.LBB81_5
	.p2align	4, 0x90
.LBB81_31:                              #   in Loop: Header=BB81_1 Depth=1
	movl	$.L.str.199, %edi
	xorl	%eax, %eax
	callq	printf@PLT
	movl	$.L.str.200, %edi
	jmp	.LBB81_32
	.p2align	4, 0x90
.LBB81_9:                               #   in Loop: Header=BB81_1 Depth=1
	movl	$.L.str.182, %edi
.LBB81_32:                              #   in Loop: Header=BB81_1 Depth=1
	xorl	%eax, %eax
	callq	printf@PLT
	movl	$.L.str.201, %edi
	xorl	%eax, %eax
	callq	printf@PLT
	addl	$1, %ebp
	cmpl	$2626, %ebp                     # imm = 0xA42
	jne	.LBB81_1
	jmp	.LBB81_33
.LBB81_11:
	movl	$.L.str.183, %edi
	jmp	.LBB81_12
.LBB81_14:                              # %.preheader
	movl	$.L.str.185, %edi
.LBB81_15:                              # =>This Loop Header: Depth=1
                                        #     Child Loop BB81_20 Depth 2
	xorl	%eax, %eax
	callq	printf@PLT
	movl	$.L.str.186, %edi
	xorl	%eax, %eax
	callq	printf@PLT
	movl	$.L.str.102, %edi
	xorl	%eax, %eax
	callq	printf@PLT
	movl	$.L.str.100, %edi
	xorl	%eax, %eax
	callq	printf@PLT
	xorl	%esi, %esi
	callq	FF_function_135
	movl	$.L.str.101, %edi
	xorl	%eax, %eax
	callq	printf@PLT
	movl	$.L.str.103, %edi
	xorl	%eax, %eax
	callq	printf@PLT
	movl	$.L.str.43, %edi
	xorl	%eax, %eax
	callq	printf@PLT
	movl	$.L.str.44, %edi
	xorl	%eax, %eax
	callq	printf@PLT
	movl	$.L.str.118, %edi
	xorl	%eax, %eax
	callq	printf@PLT
	movl	$.L.str.116, %edi
	xorl	%eax, %eax
	callq	printf@PLT
	callq	FF_function_125
	movl	$.L.str.117, %edi
	xorl	%eax, %eax
	callq	printf@PLT
	xorps	%xmm0, %xmm0
	xorl	%esi, %esi
	movb	$1, %al
	callq	FF_function_123
	movl	$.L.str.119, %edi
	xorl	%eax, %eax
	callq	printf@PLT
	movq	(%rbx), %rdi
	callq	getc@PLT
	cmpl	$97, %eax
	je	.LBB81_36
# %bb.16:                               #   in Loop: Header=BB81_15 Depth=1
	movq	(%rbx), %rdi
	callq	getc@PLT
	cmpl	$31, %eax
	je	.LBB81_35
# %bb.17:                               #   in Loop: Header=BB81_15 Depth=1
	movl	$.L.str.34, %edi
	xorl	%eax, %eax
	callq	printf@PLT
	callq	rand@PLT
	testl	%eax, %eax
	jle	.LBB81_19
# %bb.18:                               #   in Loop: Header=BB81_15 Depth=1
	callq	rand@PLT
.LBB81_19:                              #   in Loop: Header=BB81_15 Depth=1
	movl	$.L.str.187, %edi
	xorl	%eax, %eax
	callq	printf@PLT
	movss	.LCPI81_0(%rip), %xmm0          # xmm0 = mem[0],zero,zero,zero
	.p2align	4, 0x90
.LBB81_20:                              #   Parent Loop BB81_15 Depth=1
                                        # =>  This Inner Loop Header: Depth=2
	cvtss2sd	%xmm0, %xmm0
	movl	$.L.str.188, %edi
	movsd	%xmm0, (%rsp)                   # 8-byte Spill
	movb	$1, %al
	callq	printf@PLT
	movl	$.L.str.189, %edi
	xorl	%eax, %eax
	callq	printf@PLT
	movq	(%rbx), %rdi
	callq	getc@PLT
	cmpl	$97, %eax
	je	.LBB81_36
# %bb.21:                               #   in Loop: Header=BB81_20 Depth=2
	movq	(%rbx), %rdi
	callq	getc@PLT
	cmpl	$31, %eax
	je	.LBB81_35
# %bb.22:                               #   in Loop: Header=BB81_20 Depth=2
	movq	(%rbx), %rdi
	callq	getc@PLT
	cmpl	$83, %eax
	je	.LBB81_23
# %bb.24:                               #   in Loop: Header=BB81_20 Depth=2
	movq	(%rbx), %rdi
	callq	getc@PLT
	cmpl	$73, %eax
	je	.LBB81_25
# %bb.26:                               #   in Loop: Header=BB81_20 Depth=2
	movl	$.L.str.192, %edi
	xorl	%eax, %eax
	callq	printf@PLT
	movl	$.L.str.193, %edi
	xorl	%eax, %eax
	callq	printf@PLT
	movsd	(%rsp), %xmm0                   # 8-byte Reload
                                        # xmm0 = mem[0],zero
	addsd	.LCPI81_1(%rip), %xmm0
	cvtsd2ss	%xmm0, %xmm0
	ucomiss	.LCPI81_2(%rip), %xmm0
	jae	.LBB81_20
# %bb.27:                               #   in Loop: Header=BB81_15 Depth=1
	movl	$.L.str.194, %edi
	xorl	%eax, %eax
	callq	printf@PLT
	movl	$.L.str.195, %edi
	jmp	.LBB81_28
.LBB81_23:                              #   in Loop: Header=BB81_15 Depth=1
	movl	$.L.str.190, %edi
.LBB81_28:                              #   in Loop: Header=BB81_15 Depth=1
	xorl	%eax, %eax
	callq	printf@PLT
	movl	$.L.str.196, %edi
	jmp	.LBB81_15
.LBB81_25:
	movl	$.L.str.191, %edi
.LBB81_12:
	xorl	%eax, %eax
	callq	printf@PLT
.LBB81_33:
	movl	$.L.str.202, %edi
	xorl	%eax, %eax
	callq	printf@PLT
	movl	$.L.str.203, %edi
.LBB81_34:
	xorl	%eax, %eax
	callq	printf@PLT
	movl	$.L.str.204, %edi
	xorl	%eax, %eax
	callq	printf@PLT
.LBB81_35:
	xorl	%eax, %eax
	addq	$8, %rsp
	.cfi_def_cfa_offset 24
	popq	%rbx
	.cfi_def_cfa_offset 16
	popq	%rbp
	.cfi_def_cfa_offset 8
	retq
.LBB81_3:
	.cfi_def_cfa_offset 32
	movl	$.L.str.177, %edi
	jmp	.LBB81_34
.LBB81_36:
	movl	$1923, %edi                     # imm = 0x783
	callq	exit@PLT
.Lfunc_end81:
	.size	CF_function_178, .Lfunc_end81-CF_function_178
	.cfi_endproc
                                        # -- End function
	.section	.rodata.cst8,"aM",@progbits,8
	.p2align	3                               # -- Begin function CF_function_179
.LCPI82_0:
	.quad	0x40ab9bb340000000              # double 3533.85009765625
.LCPI82_3:
	.quad	0x40a53c6b80000000              # double 2718.2099609375
.LCPI82_4:
	.quad	0x40a54ef0a0000000              # double 2727.469970703125
.LCPI82_5:
	.quad	0x40a56175c0000000              # double 2736.72998046875
.LCPI82_6:
	.quad	0x40a573fae0000000              # double 2745.989990234375
.LCPI82_7:
	.quad	0x40a5868000000000              # double 2755.25
.LCPI82_8:
	.quad	0x40a5990520000000              # double 2764.510009765625
.LCPI82_9:
	.quad	0x40a5ab8a40000000              # double 2773.77001953125
.LCPI82_10:
	.quad	0x40a5be0f60000000              # double 2783.030029296875
.LCPI82_11:
	.quad	0x40a5d09480000000              # double 2792.2900390625
.LCPI82_12:
	.quad	0x40a5e319a0000000              # double 2801.550048828125
.LCPI82_13:
	.quad	0x40a5f59ec0000000              # double 2810.81005859375
.LCPI82_14:
	.quad	0x40a60823e0000000              # double 2820.070068359375
.LCPI82_15:
	.quad	0x40a61aa900000000              # double 2829.330078125
.LCPI82_16:
	.quad	0x40a62d2e20000000              # double 2838.590087890625
	.section	.rodata.cst4,"aM",@progbits,4
	.p2align	2
.LCPI82_1:
	.long	0x455cdd9a                      # float 3533.8501
.LCPI82_2:
	.long	0x40766666                      # float 3.8499999
.LCPI82_17:
	.long	0x3f800000                      # float 1
.LCPI82_18:
	.long	0x4506a000                      # float 2154
	.text
	.globl	CF_function_179
	.p2align	4, 0x90
	.type	CF_function_179,@function
CF_function_179:                        # @CF_function_179
	.cfi_startproc
# %bb.0:
	pushq	%rbp
	.cfi_def_cfa_offset 16
	pushq	%rbx
	.cfi_def_cfa_offset 24
	pushq	%rax
	.cfi_def_cfa_offset 32
	.cfi_offset %rbx, -24
	.cfi_offset %rbp, -16
	movl	$.L.str.205, %edi
	xorl	%eax, %eax
	callq	printf@PLT
	movl	$.L.str.206, %edi
	xorl	%eax, %eax
	callq	printf@PLT
	movsd	.LCPI82_0(%rip), %xmm0          # xmm0 = mem[0],zero
	movl	$.L.str.207, %edi
	movb	$1, %al
	callq	printf@PLT
	movl	$.L.str.208, %edi
	xorl	%eax, %eax
	callq	printf@PLT
	movq	stdin@GOTPCREL(%rip), %rbx
	movq	(%rbx), %rdi
	callq	getc@PLT
	cmpl	$31, %eax
	je	.LBB82_50
# %bb.1:                                # %.preheader6
	movss	.LCPI82_1(%rip), %xmm0          # xmm0 = mem[0],zero,zero,zero
	movss	%xmm0, (%rsp)                   # 4-byte Spill
.LBB82_2:                               # =>This Loop Header: Depth=1
                                        #     Child Loop BB82_6 Depth 2
                                        #       Child Loop BB82_7 Depth 3
                                        #         Child Loop BB82_11 Depth 4
                                        #           Child Loop BB82_19 Depth 5
                                        #             Child Loop BB82_23 Depth 6
                                        #               Child Loop BB82_24 Depth 7
	movq	(%rbx), %rdi
	callq	getc@PLT
	cmpl	$19, %eax
	je	.LBB82_48
# %bb.3:                                #   in Loop: Header=BB82_2 Depth=1
	movq	(%rbx), %rdi
	callq	getc@PLT
	cmpl	$83, %eax
	je	.LBB82_4
# %bb.5:                                #   in Loop: Header=BB82_2 Depth=1
	movl	$.L.str.210, %edi
	xorl	%eax, %eax
	callq	printf@PLT
	movl	$.L.str.211, %edi
.LBB82_6:                               #   Parent Loop BB82_2 Depth=1
                                        # =>  This Loop Header: Depth=2
                                        #       Child Loop BB82_7 Depth 3
                                        #         Child Loop BB82_11 Depth 4
                                        #           Child Loop BB82_19 Depth 5
                                        #             Child Loop BB82_23 Depth 6
                                        #               Child Loop BB82_24 Depth 7
	xorl	%eax, %eax
	callq	printf@PLT
.LBB82_7:                               #   Parent Loop BB82_2 Depth=1
                                        #     Parent Loop BB82_6 Depth=2
                                        # =>    This Loop Header: Depth=3
                                        #         Child Loop BB82_11 Depth 4
                                        #           Child Loop BB82_19 Depth 5
                                        #             Child Loop BB82_23 Depth 6
                                        #               Child Loop BB82_24 Depth 7
	movl	$.L.str.212, %edi
	xorl	%eax, %eax
	callq	printf@PLT
	movl	$.L.str.213, %edi
	xorl	%eax, %eax
	callq	printf@PLT
	movq	(%rbx), %rdi
	callq	getc@PLT
	cmpl	$23, %eax
	je	.LBB82_41
# %bb.8:                                #   in Loop: Header=BB82_7 Depth=3
	movq	(%rbx), %rdi
	callq	getc@PLT
	cmpl	$97, %eax
	je	.LBB82_51
# %bb.9:                                #   in Loop: Header=BB82_7 Depth=3
	movq	(%rbx), %rdi
	callq	getc@PLT
	cmpl	$31, %eax
	je	.LBB82_50
# %bb.10:                               #   in Loop: Header=BB82_7 Depth=3
	xorl	%ebp, %ebp
	movl	$.L.str.214, %edi
	xorl	%eax, %eax
	callq	printf@PLT
	movl	$.L.str.215, %edi
	xorl	%eax, %eax
	callq	printf@PLT
.LBB82_11:                              #   Parent Loop BB82_2 Depth=1
                                        #     Parent Loop BB82_6 Depth=2
                                        #       Parent Loop BB82_7 Depth=3
                                        # =>      This Loop Header: Depth=4
                                        #           Child Loop BB82_19 Depth 5
                                        #             Child Loop BB82_23 Depth 6
                                        #               Child Loop BB82_24 Depth 7
	movl	$.L.str.216, %edi
	movl	%ebp, %esi
	xorl	%eax, %eax
	callq	printf@PLT
	movl	$.L.str.102, %edi
	xorl	%eax, %eax
	callq	printf@PLT
	movl	$.L.str.100, %edi
	xorl	%eax, %eax
	callq	printf@PLT
	movl	$.L.str.98, %edi
	xorl	%eax, %eax
	callq	printf@PLT
	movl	$.L.str.96, %edi
	xorl	%eax, %eax
	callq	printf@PLT
	movl	$.L.str.95, %edi
	xorl	%eax, %eax
	callq	printf@PLT
	movl	$.L.str.62, %edi
	xorl	%eax, %eax
	callq	printf@PLT
	movl	$.L.str.58, %edi
	xorl	%eax, %eax
	callq	printf@PLT
	movl	$.L.str.59, %edi
	xorl	%eax, %eax
	callq	printf@PLT
	movl	$.L.str.60, %edi
	xorl	%eax, %eax
	callq	printf@PLT
	movl	$.L.str.61, %edi
	xorl	%eax, %eax
	callq	printf@PLT
	movl	$.L.str.63, %edi
	xorl	%eax, %eax
	callq	printf@PLT
	callq	FF_function_138
	movl	$.L.str.97, %edi
	xorl	%eax, %eax
	callq	printf@PLT
	movl	$.L.str.99, %edi
	xorl	%eax, %eax
	callq	printf@PLT
	movl	$.L.str.101, %edi
	xorl	%eax, %eax
	callq	printf@PLT
	movl	$.L.str.103, %edi
	xorl	%eax, %eax
	callq	printf@PLT
	movl	$.L.str.132, %edi
	xorl	%eax, %eax
	callq	printf@PLT
	movl	$.L.str.130, %edi
	xorl	%eax, %eax
	callq	printf@PLT
	movl	$.L.str.128, %edi
	xorl	%eax, %eax
	callq	printf@PLT
	movl	$.L.str.126, %edi
	xorl	%eax, %eax
	callq	printf@PLT
	movl	$.L.str.124, %edi
	xorl	%eax, %eax
	callq	printf@PLT
	movl	$.L.str.122, %edi
	xorl	%eax, %eax
	callq	printf@PLT
	movl	$.L.str.120, %edi
	xorl	%eax, %eax
	callq	printf@PLT
	movl	$.L.str.118, %edi
	xorl	%eax, %eax
	callq	printf@PLT
	movl	$.L.str.116, %edi
	xorl	%eax, %eax
	callq	printf@PLT
	movl	$.L.str.114, %edi
	xorl	%eax, %eax
	callq	printf@PLT
	movl	$.L.str.112, %edi
	xorl	%eax, %eax
	callq	printf@PLT
	movl	$.L.str.110, %edi
	xorl	%eax, %eax
	callq	printf@PLT
	movl	$.L.str.108, %edi
	xorl	%eax, %eax
	callq	printf@PLT
	movl	$.L.str.106, %edi
	xorl	%eax, %eax
	callq	printf@PLT
	movl	$.L.str.104, %edi
	xorl	%eax, %eax
	callq	printf@PLT
	movl	$.L.str.102, %edi
	xorl	%eax, %eax
	callq	printf@PLT
	movl	$.L.str.100, %edi
	xorl	%eax, %eax
	callq	printf@PLT
	movl	$.L.str.98, %edi
	xorl	%eax, %eax
	callq	printf@PLT
	movl	$.L.str.96, %edi
	xorl	%eax, %eax
	callq	printf@PLT
	movl	$.L.str.95, %edi
	xorl	%eax, %eax
	callq	printf@PLT
	movl	$.L.str.62, %edi
	xorl	%eax, %eax
	callq	printf@PLT
	movl	$.L.str.58, %edi
	xorl	%eax, %eax
	callq	printf@PLT
	movl	$.L.str.59, %edi
	xorl	%eax, %eax
	callq	printf@PLT
	movl	$.L.str.60, %edi
	xorl	%eax, %eax
	callq	printf@PLT
	movl	$.L.str.61, %edi
	xorl	%eax, %eax
	callq	printf@PLT
	movl	$.L.str.63, %edi
	xorl	%eax, %eax
	callq	printf@PLT
	callq	FF_function_138
	movl	$.L.str.97, %edi
	xorl	%eax, %eax
	callq	printf@PLT
	movl	$.L.str.99, %edi
	xorl	%eax, %eax
	callq	printf@PLT
	movl	$.L.str.101, %edi
	xorl	%eax, %eax
	callq	printf@PLT
	movl	$.L.str.103, %edi
	xorl	%eax, %eax
	callq	printf@PLT
	movl	$.L.str.105, %edi
	xorl	%eax, %eax
	callq	printf@PLT
	movl	$.L.str.107, %edi
	xorl	%eax, %eax
	callq	printf@PLT
	movl	$.L.str.109, %edi
	xorl	%eax, %eax
	callq	printf@PLT
	callq	rand@PLT
	testl	%eax, %eax
	jle	.LBB82_13
# %bb.12:                               #   in Loop: Header=BB82_11 Depth=4
	movl	$.L.str.111, %edi
	xorl	%eax, %eax
	callq	printf@PLT
.LBB82_13:                              #   in Loop: Header=BB82_11 Depth=4
	xorps	%xmm0, %xmm0
	xorl	%esi, %esi
	movb	$1, %al
	callq	FF_function_128
	callq	rand@PLT
	testl	%eax, %eax
	jle	.LBB82_15
# %bb.14:                               #   in Loop: Header=BB82_11 Depth=4
	movl	$.L.str.113, %edi
	xorl	%eax, %eax
	callq	printf@PLT
.LBB82_15:                              #   in Loop: Header=BB82_11 Depth=4
	movl	$.L.str.115, %edi
	xorl	%eax, %eax
	callq	printf@PLT
	movl	$.L.str.117, %edi
	xorl	%eax, %eax
	callq	printf@PLT
	xorps	%xmm0, %xmm0
	xorl	%esi, %esi
	movb	$1, %al
	callq	FF_function_123
	movl	$.L.str.119, %edi
	xorl	%eax, %eax
	callq	printf@PLT
	movl	$.L.str.121, %edi
	xorl	%eax, %eax
	callq	printf@PLT
	movl	$.L.str.123, %edi
	xorl	%eax, %eax
	callq	printf@PLT
	movl	$.L.str.125, %edi
	xorl	%eax, %eax
	callq	printf@PLT
	xorps	%xmm0, %xmm0
	xorps	%xmm1, %xmm1
	movb	$2, %al
	callq	FF_function_117
	movl	$.L.str.127, %edi
	xorl	%eax, %eax
	callq	printf@PLT
	movl	$.L.str.129, %edi
	xorl	%eax, %eax
	callq	printf@PLT
	movl	$.L.str.131, %edi
	xorl	%eax, %eax
	callq	printf@PLT
	xorl	%edx, %edx
	xorl	%ecx, %ecx
	xorl	%eax, %eax
	callq	FF_function_112
	movq	(%rbx), %rdi
	callq	getc@PLT
	cmpl	$97, %eax
	je	.LBB82_51
# %bb.16:                               #   in Loop: Header=BB82_11 Depth=4
	movq	(%rbx), %rdi
	callq	getc@PLT
	cmpl	$31, %eax
	je	.LBB82_50
# %bb.17:                               #   in Loop: Header=BB82_11 Depth=4
	movq	(%rbx), %rdi
	callq	getc@PLT
	cmpl	$19, %eax
	je	.LBB82_38
# %bb.18:                               #   in Loop: Header=BB82_11 Depth=4
	xorl	%eax, %eax
	callq	FF_function_171
	movl	$.L.str.217, %edi
	xorl	%eax, %eax
	callq	printf@PLT
	movss	.LCPI82_2(%rip), %xmm1          # xmm1 = mem[0],zero,zero,zero
	jmp	.LBB82_19
	.p2align	4, 0x90
.LBB82_34:                              #   in Loop: Header=BB82_19 Depth=5
	movss	4(%rsp), %xmm1                  # 4-byte Reload
                                        # xmm1 = mem[0],zero,zero,zero
	addss	.LCPI82_17(%rip), %xmm1
	movss	.LCPI82_18(%rip), %xmm0         # xmm0 = mem[0],zero,zero,zero
	ucomiss	%xmm1, %xmm0
	jb	.LBB82_35
.LBB82_19:                              #   Parent Loop BB82_2 Depth=1
                                        #     Parent Loop BB82_6 Depth=2
                                        #       Parent Loop BB82_7 Depth=3
                                        #         Parent Loop BB82_11 Depth=4
                                        # =>        This Loop Header: Depth=5
                                        #             Child Loop BB82_23 Depth 6
                                        #               Child Loop BB82_24 Depth 7
	movss	%xmm1, 4(%rsp)                  # 4-byte Spill
	xorps	%xmm0, %xmm0
	cvtss2sd	%xmm1, %xmm0
	movl	$.L.str.218, %edi
	movb	$1, %al
	callq	printf@PLT
	movl	$.L.str.219, %edi
	xorl	%eax, %eax
	callq	printf@PLT
	movq	(%rbx), %rdi
	callq	getc@PLT
	cmpl	$23, %eax
	je	.LBB82_35
# %bb.20:                               #   in Loop: Header=BB82_19 Depth=5
	movq	(%rbx), %rdi
	callq	getc@PLT
	cmpl	$97, %eax
	je	.LBB82_51
# %bb.21:                               #   in Loop: Header=BB82_19 Depth=5
	movq	(%rbx), %rdi
	callq	getc@PLT
	cmpl	$31, %eax
	je	.LBB82_50
# %bb.22:                               #   in Loop: Header=BB82_19 Depth=5
	movl	$.L.str.220, %edi
	xorl	%eax, %eax
	callq	printf@PLT
	movl	$.L.str.221, %edi
.LBB82_23:                              #   Parent Loop BB82_2 Depth=1
                                        #     Parent Loop BB82_6 Depth=2
                                        #       Parent Loop BB82_7 Depth=3
                                        #         Parent Loop BB82_11 Depth=4
                                        #           Parent Loop BB82_19 Depth=5
                                        # =>          This Loop Header: Depth=6
                                        #               Child Loop BB82_24 Depth 7
	xorl	%eax, %eax
	callq	printf@PLT
.LBB82_24:                              #   Parent Loop BB82_2 Depth=1
                                        #     Parent Loop BB82_6 Depth=2
                                        #       Parent Loop BB82_7 Depth=3
                                        #         Parent Loop BB82_11 Depth=4
                                        #           Parent Loop BB82_19 Depth=5
                                        #             Parent Loop BB82_23 Depth=6
                                        # =>            This Inner Loop Header: Depth=7
	movl	$.L.str.222, %edi
	xorl	%eax, %eax
	callq	printf@PLT
	movl	$.L.str.223, %edi
	xorl	%eax, %eax
	callq	printf@PLT
	movq	(%rbx), %rdi
	callq	getc@PLT
	cmpl	$23, %eax
	je	.LBB82_29
# %bb.25:                               #   in Loop: Header=BB82_24 Depth=7
	movq	(%rbx), %rdi
	callq	getc@PLT
	cmpl	$97, %eax
	je	.LBB82_51
# %bb.26:                               #   in Loop: Header=BB82_24 Depth=7
	movq	(%rbx), %rdi
	callq	getc@PLT
	cmpl	$73, %eax
	je	.LBB82_47
# %bb.27:                               #   in Loop: Header=BB82_24 Depth=7
	movl	$.L.str.225, %edi
	xorl	%eax, %eax
	callq	printf@PLT
	movq	(%rbx), %rdi
	callq	getc@PLT
	cmpl	$17, %eax
	je	.LBB82_24
# %bb.28:                               #   in Loop: Header=BB82_23 Depth=6
	movl	$.L.str.226, %edi
	jmp	.LBB82_23
	.p2align	4, 0x90
.LBB82_29:                              #   in Loop: Header=BB82_19 Depth=5
	movl	$.L.str.227, %edi
	xorl	%eax, %eax
	callq	printf@PLT
	movl	$.L.str.228, %edi
	xorl	%eax, %eax
	callq	printf@PLT
	movl	$.L.str.229, %edi
	xorl	%eax, %eax
	callq	printf@PLT
	movl	$.L.str.230, %edi
	xorl	%eax, %eax
	callq	printf@PLT
	movq	(%rbx), %rdi
	callq	getc@PLT
	movl	$.L.str.230, %edi
	xorl	%eax, %eax
	callq	printf@PLT
	movq	(%rbx), %rdi
	callq	getc@PLT
	movl	$.L.str.230, %edi
	xorl	%eax, %eax
	callq	printf@PLT
	movq	(%rbx), %rdi
	callq	getc@PLT
	movl	$.L.str.230, %edi
	xorl	%eax, %eax
	callq	printf@PLT
	movq	(%rbx), %rdi
	callq	getc@PLT
	movl	$.L.str.230, %edi
	xorl	%eax, %eax
	callq	printf@PLT
	movq	(%rbx), %rdi
	callq	getc@PLT
	movl	$.L.str.230, %edi
	xorl	%eax, %eax
	callq	printf@PLT
	movq	(%rbx), %rdi
	callq	getc@PLT
	movl	$.L.str.230, %edi
	xorl	%eax, %eax
	callq	printf@PLT
	movq	(%rbx), %rdi
	callq	getc@PLT
	movl	$.L.str.230, %edi
	xorl	%eax, %eax
	callq	printf@PLT
	movq	(%rbx), %rdi
	callq	getc@PLT
	movl	$.L.str.230, %edi
	xorl	%eax, %eax
	callq	printf@PLT
	movq	(%rbx), %rdi
	callq	getc@PLT
	movl	$.L.str.230, %edi
	xorl	%eax, %eax
	callq	printf@PLT
	movq	(%rbx), %rdi
	callq	getc@PLT
	movl	$.L.str.230, %edi
	xorl	%eax, %eax
	callq	printf@PLT
	movq	(%rbx), %rdi
	callq	getc@PLT
	movl	$.L.str.230, %edi
	xorl	%eax, %eax
	callq	printf@PLT
	movq	(%rbx), %rdi
	callq	getc@PLT
	movl	$.L.str.230, %edi
	xorl	%eax, %eax
	callq	printf@PLT
	movq	(%rbx), %rdi
	callq	getc@PLT
	movl	$.L.str.230, %edi
	xorl	%eax, %eax
	callq	printf@PLT
	movq	(%rbx), %rdi
	callq	getc@PLT
	movl	$.L.str.230, %edi
	xorl	%eax, %eax
	callq	printf@PLT
	movq	(%rbx), %rdi
	callq	getc@PLT
	movl	$.L.str.230, %edi
	xorl	%eax, %eax
	callq	printf@PLT
	movq	(%rbx), %rdi
	callq	getc@PLT
	movl	$.L.str.230, %edi
	xorl	%eax, %eax
	callq	printf@PLT
	movq	(%rbx), %rdi
	callq	getc@PLT
	movl	$.L.str.230, %edi
	xorl	%eax, %eax
	callq	printf@PLT
	movq	(%rbx), %rdi
	callq	getc@PLT
	movl	$.L.str.230, %edi
	xorl	%eax, %eax
	callq	printf@PLT
	movq	(%rbx), %rdi
	callq	getc@PLT
	movl	$.L.str.230, %edi
	xorl	%eax, %eax
	callq	printf@PLT
	movq	(%rbx), %rdi
	callq	getc@PLT
	movl	$.L.str.230, %edi
	xorl	%eax, %eax
	callq	printf@PLT
	movq	(%rbx), %rdi
	callq	getc@PLT
	movl	$.L.str.230, %edi
	xorl	%eax, %eax
	callq	printf@PLT
	movq	(%rbx), %rdi
	callq	getc@PLT
	movl	$.L.str.231, %edi
	xorl	%eax, %eax
	callq	printf@PLT
	movl	$.L.str.232, %edi
	xorl	%eax, %eax
	callq	printf@PLT
	movl	$.L.str.233, %edi
	xorl	%eax, %eax
	callq	printf@PLT
	movl	$.L.str.234, %edi
	movl	$2013, %esi                     # imm = 0x7DD
	xorl	%eax, %eax
	callq	printf@PLT
	movq	(%rbx), %rdi
	callq	getc@PLT
	movl	$.L.str.234, %edi
	movl	$2010, %esi                     # imm = 0x7DA
	xorl	%eax, %eax
	callq	printf@PLT
	movq	(%rbx), %rdi
	callq	getc@PLT
	movl	$.L.str.234, %edi
	movl	$2007, %esi                     # imm = 0x7D7
	xorl	%eax, %eax
	callq	printf@PLT
	movq	(%rbx), %rdi
	callq	getc@PLT
	movl	$.L.str.234, %edi
	movl	$2004, %esi                     # imm = 0x7D4
	xorl	%eax, %eax
	callq	printf@PLT
	movq	(%rbx), %rdi
	callq	getc@PLT
	movl	$.L.str.234, %edi
	movl	$2001, %esi                     # imm = 0x7D1
	xorl	%eax, %eax
	callq	printf@PLT
	movq	(%rbx), %rdi
	callq	getc@PLT
	movl	$.L.str.234, %edi
	movl	$1998, %esi                     # imm = 0x7CE
	xorl	%eax, %eax
	callq	printf@PLT
	movq	(%rbx), %rdi
	callq	getc@PLT
	movl	$.L.str.234, %edi
	movl	$1995, %esi                     # imm = 0x7CB
	xorl	%eax, %eax
	callq	printf@PLT
	movq	(%rbx), %rdi
	callq	getc@PLT
	movl	$.L.str.234, %edi
	movl	$1992, %esi                     # imm = 0x7C8
	xorl	%eax, %eax
	callq	printf@PLT
	movq	(%rbx), %rdi
	callq	getc@PLT
	movl	$.L.str.234, %edi
	movl	$1989, %esi                     # imm = 0x7C5
	xorl	%eax, %eax
	callq	printf@PLT
	movq	(%rbx), %rdi
	callq	getc@PLT
	movl	$.L.str.234, %edi
	movl	$1986, %esi                     # imm = 0x7C2
	xorl	%eax, %eax
	callq	printf@PLT
	movq	(%rbx), %rdi
	callq	getc@PLT
	movl	$.L.str.234, %edi
	movl	$1983, %esi                     # imm = 0x7BF
	xorl	%eax, %eax
	callq	printf@PLT
	movq	(%rbx), %rdi
	callq	getc@PLT
	movl	$.L.str.234, %edi
	movl	$1980, %esi                     # imm = 0x7BC
	xorl	%eax, %eax
	callq	printf@PLT
	movq	(%rbx), %rdi
	callq	getc@PLT
	movl	$.L.str.234, %edi
	movl	$1977, %esi                     # imm = 0x7B9
	xorl	%eax, %eax
	callq	printf@PLT
	movq	(%rbx), %rdi
	callq	getc@PLT
	movl	$.L.str.235, %edi
	xorl	%eax, %eax
	callq	printf@PLT
	movl	$.L.str.236, %edi
	xorl	%eax, %eax
	callq	printf@PLT
	movl	$.L.str.237, %edi
	xorl	%eax, %eax
	callq	printf@PLT
	movl	$.L.str.238, %edi
	movsd	.LCPI82_3(%rip), %xmm0          # xmm0 = mem[0],zero
	movb	$1, %al
	callq	printf@PLT
	movq	(%rbx), %rdi
	callq	getc@PLT
	movl	$.L.str.238, %edi
	movsd	.LCPI82_4(%rip), %xmm0          # xmm0 = mem[0],zero
	movb	$1, %al
	callq	printf@PLT
	movq	(%rbx), %rdi
	callq	getc@PLT
	movl	$.L.str.238, %edi
	movsd	.LCPI82_5(%rip), %xmm0          # xmm0 = mem[0],zero
	movb	$1, %al
	callq	printf@PLT
	movq	(%rbx), %rdi
	callq	getc@PLT
	movl	$.L.str.238, %edi
	movsd	.LCPI82_6(%rip), %xmm0          # xmm0 = mem[0],zero
	movb	$1, %al
	callq	printf@PLT
	movq	(%rbx), %rdi
	callq	getc@PLT
	movl	$.L.str.238, %edi
	movsd	.LCPI82_7(%rip), %xmm0          # xmm0 = mem[0],zero
	movb	$1, %al
	callq	printf@PLT
	movq	(%rbx), %rdi
	callq	getc@PLT
	movl	$.L.str.238, %edi
	movsd	.LCPI82_8(%rip), %xmm0          # xmm0 = mem[0],zero
	movb	$1, %al
	callq	printf@PLT
	movq	(%rbx), %rdi
	callq	getc@PLT
	movl	$.L.str.238, %edi
	movsd	.LCPI82_9(%rip), %xmm0          # xmm0 = mem[0],zero
	movb	$1, %al
	callq	printf@PLT
	movq	(%rbx), %rdi
	callq	getc@PLT
	movl	$.L.str.238, %edi
	movsd	.LCPI82_10(%rip), %xmm0         # xmm0 = mem[0],zero
	movb	$1, %al
	callq	printf@PLT
	movq	(%rbx), %rdi
	callq	getc@PLT
	movl	$.L.str.238, %edi
	movsd	.LCPI82_11(%rip), %xmm0         # xmm0 = mem[0],zero
	movb	$1, %al
	callq	printf@PLT
	movq	(%rbx), %rdi
	callq	getc@PLT
	movl	$.L.str.238, %edi
	movsd	.LCPI82_12(%rip), %xmm0         # xmm0 = mem[0],zero
	movb	$1, %al
	callq	printf@PLT
	movq	(%rbx), %rdi
	callq	getc@PLT
	movl	$.L.str.238, %edi
	movsd	.LCPI82_13(%rip), %xmm0         # xmm0 = mem[0],zero
	movb	$1, %al
	callq	printf@PLT
	movq	(%rbx), %rdi
	callq	getc@PLT
	movl	$.L.str.238, %edi
	movsd	.LCPI82_14(%rip), %xmm0         # xmm0 = mem[0],zero
	movb	$1, %al
	callq	printf@PLT
	movq	(%rbx), %rdi
	callq	getc@PLT
	movl	$.L.str.238, %edi
	movsd	.LCPI82_15(%rip), %xmm0         # xmm0 = mem[0],zero
	movb	$1, %al
	callq	printf@PLT
	movq	(%rbx), %rdi
	callq	getc@PLT
	movl	$.L.str.238, %edi
	movsd	.LCPI82_16(%rip), %xmm0         # xmm0 = mem[0],zero
	movb	$1, %al
	callq	printf@PLT
	movq	(%rbx), %rdi
	callq	getc@PLT
	movl	$.L.str.239, %edi
	xorl	%eax, %eax
	callq	printf@PLT
	movl	$.L.str.34, %edi
	xorl	%eax, %eax
	callq	printf@PLT
	callq	rand@PLT
	testl	%eax, %eax
	jle	.LBB82_31
# %bb.30:                               #   in Loop: Header=BB82_19 Depth=5
	callq	rand@PLT
.LBB82_31:                              #   in Loop: Header=BB82_19 Depth=5
	movq	(%rbx), %rdi
	callq	getc@PLT
	cmpl	$67, %eax
	je	.LBB82_34
# %bb.32:                               #   in Loop: Header=BB82_19 Depth=5
	movq	(%rbx), %rdi
	callq	getc@PLT
	cmpl	$17, %eax
	je	.LBB82_34
# %bb.33:                               #   in Loop: Header=BB82_19 Depth=5
	movl	$.L.str.106, %edi
	xorl	%eax, %eax
	callq	printf@PLT
	movl	$.L.str.104, %edi
	xorl	%eax, %eax
	callq	printf@PLT
	movl	$.L.str.102, %edi
	xorl	%eax, %eax
	callq	printf@PLT
	movl	$.L.str.100, %edi
	xorl	%eax, %eax
	callq	printf@PLT
	xorl	%esi, %esi
	callq	FF_function_135
	movl	$.L.str.101, %edi
	xorl	%eax, %eax
	callq	printf@PLT
	movl	$.L.str.103, %edi
	xorl	%eax, %eax
	callq	printf@PLT
	movl	$.L.str.105, %edi
	xorl	%eax, %eax
	callq	printf@PLT
	movl	$.L.str.107, %edi
	xorl	%eax, %eax
	callq	printf@PLT
	jmp	.LBB82_34
.LBB82_35:                              #   in Loop: Header=BB82_11 Depth=4
	movl	$.L.str.240, %edi
	xorl	%eax, %eax
	callq	printf@PLT
	movl	$.L.str.46, %edi
	xorl	%eax, %eax
	callq	printf@PLT
	movl	$.L.str.47, %edi
	xorl	%eax, %eax
	callq	printf@PLT
	movq	(%rbx), %rdi
	callq	getc@PLT
	cmpl	$67, %eax
	je	.LBB82_37
# %bb.36:                               #   in Loop: Header=BB82_11 Depth=4
	movl	$.L.str.241, %edi
	xorl	%eax, %eax
	callq	printf@PLT
.LBB82_37:                              #   in Loop: Header=BB82_11 Depth=4
	addl	$9, %ebp
	cmpl	$9167, %ebp                     # imm = 0x23CF
	jne	.LBB82_11
.LBB82_38:                              #   in Loop: Header=BB82_7 Depth=3
	movl	$.L.str.242, %edi
	xorl	%eax, %eax
	callq	printf@PLT
	movl	$.L.str.243, %edi
	xorl	%eax, %eax
	callq	printf@PLT
	movq	(%rbx), %rdi
	callq	getc@PLT
	cmpl	$67, %eax
	je	.LBB82_7
# %bb.39:                               #   in Loop: Header=BB82_7 Depth=3
	movq	(%rbx), %rdi
	callq	getc@PLT
	cmpl	$17, %eax
	je	.LBB82_7
# %bb.40:                               #   in Loop: Header=BB82_6 Depth=2
	movl	$.L.str.244, %edi
	jmp	.LBB82_6
	.p2align	4, 0x90
.LBB82_41:                              #   in Loop: Header=BB82_2 Depth=1
	movl	$.L.str.245, %edi
	xorl	%eax, %eax
	callq	printf@PLT
	movl	$.L.str.92, %edi
	xorl	%eax, %eax
	callq	printf@PLT
	movq	(%rbx), %rdi
	callq	getc@PLT
	cmpl	$67, %eax
	jne	.LBB82_43
# %bb.42:                               #   in Loop: Header=BB82_2 Depth=1
	movss	(%rsp), %xmm0                   # 4-byte Reload
                                        # xmm0 = mem[0],zero,zero,zero
	jmp	.LBB82_46
	.p2align	4, 0x90
.LBB82_43:                              #   in Loop: Header=BB82_2 Depth=1
	movq	(%rbx), %rdi
	callq	getc@PLT
	cmpl	$17, %eax
	je	.LBB82_45
# %bb.44:                               #   in Loop: Header=BB82_2 Depth=1
	movl	$.L.str.246, %edi
	xorl	%eax, %eax
	callq	printf@PLT
.LBB82_45:                              #   in Loop: Header=BB82_2 Depth=1
	movq	(%rbx), %rdi
	callq	getc@PLT
	xorps	%xmm0, %xmm0
	cvtsi2ss	%eax, %xmm0
	movss	(%rsp), %xmm1                   # 4-byte Reload
                                        # xmm1 = mem[0],zero,zero,zero
	subss	%xmm0, %xmm1
	movaps	%xmm1, %xmm0
.LBB82_46:                              #   in Loop: Header=BB82_2 Depth=1
	movss	%xmm0, (%rsp)                   # 4-byte Spill
	cvtss2sd	%xmm0, %xmm0
	movl	$.L.str.207, %edi
	movb	$1, %al
	callq	printf@PLT
	movl	$.L.str.208, %edi
	xorl	%eax, %eax
	callq	printf@PLT
	movq	(%rbx), %rdi
	callq	getc@PLT
	cmpl	$31, %eax
	jne	.LBB82_2
	jmp	.LBB82_50
.LBB82_47:
	movl	$.L.str.224, %edi
	xorl	%eax, %eax
	callq	printf@PLT
.LBB82_48:
	movl	$.L.str.247, %edi
	xorl	%eax, %eax
	callq	printf@PLT
	callq	FF_function_109
.LBB82_49:
	movl	$.L.str.248, %edi
	xorl	%eax, %eax
	callq	printf@PLT
.LBB82_50:
	xorl	%eax, %eax
	addq	$8, %rsp
	.cfi_def_cfa_offset 24
	popq	%rbx
	.cfi_def_cfa_offset 16
	popq	%rbp
	.cfi_def_cfa_offset 8
	retq
.LBB82_4:
	.cfi_def_cfa_offset 32
	movl	$.L.str.209, %edi
	xorl	%eax, %eax
	callq	printf@PLT
	jmp	.LBB82_49
.LBB82_51:
	movl	$1923, %edi                     # imm = 0x783
	callq	exit@PLT
.Lfunc_end82:
	.size	CF_function_179, .Lfunc_end82-CF_function_179
	.cfi_endproc
                                        # -- End function
	.globl	FF_function_180                 # -- Begin function FF_function_180
	.p2align	4, 0x90
	.type	FF_function_180,@function
FF_function_180:                        # @FF_function_180
	.cfi_startproc
# %bb.0:
	pushq	%rax
	.cfi_def_cfa_offset 16
	movl	$.L.str.249, %edi
	xorl	%eax, %eax
	callq	printf@PLT
	movl	$.L.str.250, %edi
	xorl	%eax, %eax
	callq	printf@PLT
	xorl	%eax, %eax
	popq	%rcx
	.cfi_def_cfa_offset 8
	retq
.Lfunc_end83:
	.size	FF_function_180, .Lfunc_end83-FF_function_180
	.cfi_endproc
                                        # -- End function
	.section	.rodata.cst4,"aM",@progbits,4
	.p2align	2                               # -- Begin function CF_function_181
.LCPI84_0:
	.long	0x45dab214                      # float 6998.25977
.LCPI84_2:
	.long	0x41000000                      # float 8
	.section	.rodata.cst8,"aM",@progbits,8
	.p2align	3
.LCPI84_1:
	.quad	0x401551eb851eb852              # double 5.3300000000000001
	.text
	.globl	CF_function_181
	.p2align	4, 0x90
	.type	CF_function_181,@function
CF_function_181:                        # @CF_function_181
	.cfi_startproc
# %bb.0:
	pushq	%r14
	.cfi_def_cfa_offset 16
	pushq	%rbx
	.cfi_def_cfa_offset 24
	pushq	%rax
	.cfi_def_cfa_offset 32
	.cfi_offset %rbx, -24
	.cfi_offset %r14, -16
	movl	$.L.str.251, %edi
	xorl	%eax, %eax
	callq	printf@PLT
	movl	$.L.str.252, %edi
	xorl	%eax, %eax
	callq	printf@PLT
	movl	$.L.str.253, %edi
	xorl	%eax, %eax
	callq	printf@PLT
	movl	$.L.str.254, %edi
	xorl	%eax, %eax
	callq	printf@PLT
	movq	stdin@GOTPCREL(%rip), %r14
.LBB84_1:                               # =>This Loop Header: Depth=1
                                        #     Child Loop BB84_6 Depth 2
                                        #       Child Loop BB84_11 Depth 3
	movq	(%r14), %rdi
	callq	getc@PLT
	cmpl	$97, %eax
	je	.LBB84_40
# %bb.2:                                #   in Loop: Header=BB84_1 Depth=1
	movq	(%r14), %rdi
	callq	getc@PLT
	cmpl	$19, %eax
	je	.LBB84_14
# %bb.3:                                #   in Loop: Header=BB84_1 Depth=1
	movq	(%r14), %rdi
	callq	getc@PLT
	cmpl	$83, %eax
	je	.LBB84_4
# %bb.5:                                #   in Loop: Header=BB84_1 Depth=1
	movl	$.L.str.256, %edi
	xorl	%eax, %eax
	callq	printf@PLT
	movl	$.L.str.257, %edi
	xorl	%eax, %eax
	callq	printf@PLT
	movss	.LCPI84_0(%rip), %xmm0          # xmm0 = mem[0],zero,zero,zero
	jmp	.LBB84_6
	.p2align	4, 0x90
.LBB84_34:                              #   in Loop: Header=BB84_6 Depth=2
	movl	$.L.str.115, %edi
	xorl	%eax, %eax
	callq	printf@PLT
	movl	$.L.str.117, %edi
	xorl	%eax, %eax
	callq	printf@PLT
	xorps	%xmm0, %xmm0
	xorl	%esi, %esi
	movb	$1, %al
	callq	FF_function_123
	movl	$.L.str.119, %edi
	xorl	%eax, %eax
	callq	printf@PLT
	movl	$.L.str.121, %edi
	xorl	%eax, %eax
	callq	printf@PLT
	movl	$.L.str.123, %edi
	xorl	%eax, %eax
	callq	printf@PLT
	movl	$.L.str.125, %edi
	xorl	%eax, %eax
	callq	printf@PLT
	xorps	%xmm0, %xmm0
	xorps	%xmm1, %xmm1
	movb	$2, %al
	callq	FF_function_117
	movl	$.L.str.127, %edi
	xorl	%eax, %eax
	callq	printf@PLT
	movl	$.L.str.129, %edi
	xorl	%eax, %eax
	callq	printf@PLT
	movl	$.L.str.131, %edi
	xorl	%eax, %eax
	callq	printf@PLT
	xorl	%edx, %edx
	xorl	%ecx, %ecx
	xorl	%eax, %eax
	callq	FF_function_112
.LBB84_35:                              #   in Loop: Header=BB84_6 Depth=2
	movsd	(%rsp), %xmm0                   # 8-byte Reload
                                        # xmm0 = mem[0],zero
	divsd	.LCPI84_1(%rip), %xmm0
	cvtsd2ss	%xmm0, %xmm0
	ucomiss	.LCPI84_2(%rip), %xmm0
	jne	.LBB84_6
	jnp	.LBB84_36
.LBB84_6:                               #   Parent Loop BB84_1 Depth=1
                                        # =>  This Loop Header: Depth=2
                                        #       Child Loop BB84_11 Depth 3
	cvtss2sd	%xmm0, %xmm0
	movl	$.L.str.258, %edi
	movsd	%xmm0, (%rsp)                   # 8-byte Spill
	movb	$1, %al
	callq	printf@PLT
	movl	$.L.str.259, %edi
	xorl	%eax, %eax
	callq	printf@PLT
	movq	(%r14), %rdi
	callq	getc@PLT
	cmpl	$97, %eax
	je	.LBB84_40
# %bb.7:                                #   in Loop: Header=BB84_6 Depth=2
	movq	(%r14), %rdi
	callq	getc@PLT
	cmpl	$83, %eax
	je	.LBB84_8
# %bb.9:                                #   in Loop: Header=BB84_6 Depth=2
	movl	$.L.str.261, %edi
	xorl	%eax, %eax
	callq	printf@PLT
	movl	$.L.str.262, %edi
	xorl	%eax, %eax
	callq	printf@PLT
	movl	$.L.str.263, %edi
	movl	$7206, %esi                     # imm = 0x1C26
	xorl	%eax, %eax
	callq	printf@PLT
	movl	$.L.str.264, %edi
	xorl	%eax, %eax
	callq	printf@PLT
	movq	(%r14), %rdi
	callq	getc@PLT
	cmpl	$23, %eax
	jne	.LBB84_10
.LBB84_20:                              #   in Loop: Header=BB84_6 Depth=2
	movl	$.L.str.269, %edi
	xorl	%eax, %eax
	callq	printf@PLT
	movl	$.L.str.137, %edi
	xorl	%eax, %eax
	callq	printf@PLT
	movl	$.L.str.135, %edi
	xorl	%eax, %eax
	callq	printf@PLT
	movl	$.L.str.133, %edi
	xorl	%eax, %eax
	callq	printf@PLT
	movl	$.L.str.132, %edi
	xorl	%eax, %eax
	callq	printf@PLT
	movl	$.L.str.130, %edi
	xorl	%eax, %eax
	callq	printf@PLT
	movl	$.L.str.128, %edi
	xorl	%eax, %eax
	callq	printf@PLT
	movl	$.L.str.126, %edi
	xorl	%eax, %eax
	callq	printf@PLT
	movl	$.L.str.124, %edi
	xorl	%eax, %eax
	callq	printf@PLT
	movl	$.L.str.122, %edi
	xorl	%eax, %eax
	callq	printf@PLT
	movl	$.L.str.120, %edi
	xorl	%eax, %eax
	callq	printf@PLT
	movl	$.L.str.118, %edi
	xorl	%eax, %eax
	callq	printf@PLT
	movl	$.L.str.116, %edi
	xorl	%eax, %eax
	callq	printf@PLT
	movl	$.L.str.114, %edi
	xorl	%eax, %eax
	callq	printf@PLT
	movl	$.L.str.112, %edi
	xorl	%eax, %eax
	callq	printf@PLT
	movl	$.L.str.110, %edi
	xorl	%eax, %eax
	callq	printf@PLT
	movl	$.L.str.108, %edi
	xorl	%eax, %eax
	callq	printf@PLT
	movl	$.L.str.106, %edi
	xorl	%eax, %eax
	callq	printf@PLT
	movl	$.L.str.104, %edi
	xorl	%eax, %eax
	callq	printf@PLT
	movl	$.L.str.102, %edi
	xorl	%eax, %eax
	callq	printf@PLT
	movl	$.L.str.100, %edi
	xorl	%eax, %eax
	callq	printf@PLT
	movl	$.L.str.98, %edi
	xorl	%eax, %eax
	callq	printf@PLT
	movl	$.L.str.96, %edi
	xorl	%eax, %eax
	callq	printf@PLT
	movl	$.L.str.95, %edi
	xorl	%eax, %eax
	callq	printf@PLT
	movl	$.L.str.62, %edi
	xorl	%eax, %eax
	callq	printf@PLT
	movl	$.L.str.58, %edi
	xorl	%eax, %eax
	callq	printf@PLT
	movl	$.L.str.59, %edi
	xorl	%eax, %eax
	callq	printf@PLT
	movl	$.L.str.60, %edi
	xorl	%eax, %eax
	callq	printf@PLT
	movl	$.L.str.61, %edi
	xorl	%eax, %eax
	callq	printf@PLT
	movl	$.L.str.63, %edi
	xorl	%eax, %eax
	callq	printf@PLT
	callq	FF_function_138
	movl	$.L.str.97, %edi
	xorl	%eax, %eax
	callq	printf@PLT
	movl	$.L.str.99, %edi
	xorl	%eax, %eax
	callq	printf@PLT
	movl	$.L.str.101, %edi
	xorl	%eax, %eax
	callq	printf@PLT
	movl	$.L.str.103, %edi
	xorl	%eax, %eax
	callq	printf@PLT
	movl	$.L.str.105, %edi
	xorl	%eax, %eax
	callq	printf@PLT
	movl	$.L.str.107, %edi
	xorl	%eax, %eax
	callq	printf@PLT
	movl	$.L.str.109, %edi
	xorl	%eax, %eax
	callq	printf@PLT
	callq	rand@PLT
	testl	%eax, %eax
	jle	.LBB84_22
# %bb.21:                               #   in Loop: Header=BB84_6 Depth=2
	movl	$.L.str.111, %edi
	xorl	%eax, %eax
	callq	printf@PLT
.LBB84_22:                              #   in Loop: Header=BB84_6 Depth=2
	xorps	%xmm0, %xmm0
	xorl	%esi, %esi
	movb	$1, %al
	callq	FF_function_128
	callq	rand@PLT
	testl	%eax, %eax
	jle	.LBB84_24
# %bb.23:                               #   in Loop: Header=BB84_6 Depth=2
	movl	$.L.str.113, %edi
	xorl	%eax, %eax
	callq	printf@PLT
.LBB84_24:                              #   in Loop: Header=BB84_6 Depth=2
	movl	$.L.str.115, %edi
	xorl	%eax, %eax
	callq	printf@PLT
	movl	$.L.str.117, %edi
	xorl	%eax, %eax
	callq	printf@PLT
	xorps	%xmm0, %xmm0
	xorl	%esi, %esi
	movb	$1, %al
	callq	FF_function_123
	movl	$.L.str.119, %edi
	xorl	%eax, %eax
	callq	printf@PLT
	movl	$.L.str.121, %edi
	xorl	%eax, %eax
	callq	printf@PLT
	movl	$.L.str.123, %edi
	xorl	%eax, %eax
	callq	printf@PLT
	movl	$.L.str.125, %edi
	xorl	%eax, %eax
	callq	printf@PLT
	xorps	%xmm0, %xmm0
	xorps	%xmm1, %xmm1
	movb	$2, %al
	callq	FF_function_117
	movl	$.L.str.127, %edi
	xorl	%eax, %eax
	callq	printf@PLT
	movl	$.L.str.129, %edi
	xorl	%eax, %eax
	callq	printf@PLT
	movl	$.L.str.131, %edi
	xorl	%eax, %eax
	callq	printf@PLT
	xorl	%edx, %edx
	xorl	%ecx, %ecx
	xorl	%eax, %eax
	callq	FF_function_112
	movl	$.L.str.134, %edi
	xorl	%eax, %eax
	callq	printf@PLT
	movl	$.L.str.136, %edi
	xorl	%eax, %eax
	callq	printf@PLT
	movl	$.L.str.137, %edi
	xorl	%eax, %eax
	callq	printf@PLT
	movl	$.L.str.135, %edi
	xorl	%eax, %eax
	callq	printf@PLT
	movl	$.L.str.133, %edi
	xorl	%eax, %eax
	callq	printf@PLT
	movl	$.L.str.132, %edi
	xorl	%eax, %eax
	callq	printf@PLT
	movl	$.L.str.130, %edi
	xorl	%eax, %eax
	callq	printf@PLT
	movl	$.L.str.128, %edi
	xorl	%eax, %eax
	callq	printf@PLT
	movl	$.L.str.126, %edi
	xorl	%eax, %eax
	callq	printf@PLT
	movl	$.L.str.124, %edi
	xorl	%eax, %eax
	callq	printf@PLT
	movl	$.L.str.122, %edi
	xorl	%eax, %eax
	callq	printf@PLT
	movl	$.L.str.120, %edi
	xorl	%eax, %eax
	callq	printf@PLT
	movl	$.L.str.118, %edi
	xorl	%eax, %eax
	callq	printf@PLT
	movl	$.L.str.116, %edi
	xorl	%eax, %eax
	callq	printf@PLT
	movl	$.L.str.114, %edi
	xorl	%eax, %eax
	callq	printf@PLT
	movl	$.L.str.112, %edi
	xorl	%eax, %eax
	callq	printf@PLT
	movl	$.L.str.110, %edi
	xorl	%eax, %eax
	callq	printf@PLT
	movl	$.L.str.108, %edi
	xorl	%eax, %eax
	callq	printf@PLT
	movl	$.L.str.106, %edi
	xorl	%eax, %eax
	callq	printf@PLT
	movl	$.L.str.104, %edi
	xorl	%eax, %eax
	callq	printf@PLT
	movl	$.L.str.102, %edi
	xorl	%eax, %eax
	callq	printf@PLT
	movl	$.L.str.100, %edi
	xorl	%eax, %eax
	callq	printf@PLT
	movl	$.L.str.98, %edi
	xorl	%eax, %eax
	callq	printf@PLT
	movl	$.L.str.96, %edi
	xorl	%eax, %eax
	callq	printf@PLT
	movl	$.L.str.95, %edi
	xorl	%eax, %eax
	callq	printf@PLT
	movl	$.L.str.62, %edi
	xorl	%eax, %eax
	callq	printf@PLT
	movl	$.L.str.58, %edi
	xorl	%eax, %eax
	callq	printf@PLT
	movl	$.L.str.59, %edi
	xorl	%eax, %eax
	callq	printf@PLT
	movl	$.L.str.60, %edi
	xorl	%eax, %eax
	callq	printf@PLT
	movl	$.L.str.61, %edi
	xorl	%eax, %eax
	callq	printf@PLT
	movl	$.L.str.63, %edi
	xorl	%eax, %eax
	callq	printf@PLT
	callq	FF_function_138
	movl	$.L.str.97, %edi
	xorl	%eax, %eax
	callq	printf@PLT
	movl	$.L.str.99, %edi
	xorl	%eax, %eax
	callq	printf@PLT
	movl	$.L.str.101, %edi
	xorl	%eax, %eax
	callq	printf@PLT
	movl	$.L.str.103, %edi
	xorl	%eax, %eax
	callq	printf@PLT
	movl	$.L.str.105, %edi
	xorl	%eax, %eax
	callq	printf@PLT
	movl	$.L.str.107, %edi
	xorl	%eax, %eax
	callq	printf@PLT
	movl	$.L.str.109, %edi
	xorl	%eax, %eax
	callq	printf@PLT
	callq	rand@PLT
	testl	%eax, %eax
	jle	.LBB84_26
# %bb.25:                               #   in Loop: Header=BB84_6 Depth=2
	movl	$.L.str.111, %edi
	xorl	%eax, %eax
	callq	printf@PLT
.LBB84_26:                              #   in Loop: Header=BB84_6 Depth=2
	xorps	%xmm0, %xmm0
	xorl	%esi, %esi
	movb	$1, %al
	callq	FF_function_128
	callq	rand@PLT
	testl	%eax, %eax
	jle	.LBB84_28
# %bb.27:                               #   in Loop: Header=BB84_6 Depth=2
	movl	$.L.str.113, %edi
	xorl	%eax, %eax
	callq	printf@PLT
.LBB84_28:                              #   in Loop: Header=BB84_6 Depth=2
	movl	$.L.str.115, %edi
	xorl	%eax, %eax
	callq	printf@PLT
	movl	$.L.str.117, %edi
	xorl	%eax, %eax
	callq	printf@PLT
	xorps	%xmm0, %xmm0
	xorl	%esi, %esi
	movb	$1, %al
	callq	FF_function_123
	movl	$.L.str.119, %edi
	xorl	%eax, %eax
	callq	printf@PLT
	movl	$.L.str.121, %edi
	xorl	%eax, %eax
	callq	printf@PLT
	movl	$.L.str.123, %edi
	xorl	%eax, %eax
	callq	printf@PLT
	movl	$.L.str.125, %edi
	xorl	%eax, %eax
	callq	printf@PLT
	xorps	%xmm0, %xmm0
	xorps	%xmm1, %xmm1
	movb	$2, %al
	callq	FF_function_117
	movl	$.L.str.127, %edi
	xorl	%eax, %eax
	callq	printf@PLT
	movl	$.L.str.129, %edi
	xorl	%eax, %eax
	callq	printf@PLT
	movl	$.L.str.131, %edi
	xorl	%eax, %eax
	callq	printf@PLT
	xorl	%edx, %edx
	xorl	%ecx, %ecx
	xorl	%eax, %eax
	callq	FF_function_112
	movl	$.L.str.134, %edi
	xorl	%eax, %eax
	callq	printf@PLT
	movl	$.L.str.136, %edi
	jmp	.LBB84_29
	.p2align	4, 0x90
.LBB84_10:                              # %.preheader
                                        #   in Loop: Header=BB84_6 Depth=2
	movl	$7195, %ebx                     # imm = 0x1C1B
	jmp	.LBB84_11
	.p2align	4, 0x90
.LBB84_19:                              #   in Loop: Header=BB84_11 Depth=3
	movl	$.L.str.263, %edi
	movl	%ebx, %esi
	xorl	%eax, %eax
	callq	printf@PLT
	movl	$.L.str.264, %edi
	xorl	%eax, %eax
	callq	printf@PLT
	movq	(%r14), %rdi
	callq	getc@PLT
	addl	$-11, %ebx
	cmpl	$23, %eax
	je	.LBB84_20
.LBB84_11:                              #   Parent Loop BB84_1 Depth=1
                                        #     Parent Loop BB84_6 Depth=2
                                        # =>    This Inner Loop Header: Depth=3
	movq	(%r14), %rdi
	callq	getc@PLT
	cmpl	$83, %eax
	je	.LBB84_41
# %bb.12:                               #   in Loop: Header=BB84_11 Depth=3
	movq	(%r14), %rdi
	callq	getc@PLT
	cmpl	$73, %eax
	je	.LBB84_13
# %bb.16:                               #   in Loop: Header=BB84_11 Depth=3
	movl	$.L.str.267, %edi
	xorl	%eax, %eax
	callq	printf@PLT
	movq	(%r14), %rdi
	callq	getc@PLT
	cmpl	$67, %eax
	je	.LBB84_19
# %bb.17:                               #   in Loop: Header=BB84_11 Depth=3
	movq	(%r14), %rdi
	callq	getc@PLT
	cmpl	$17, %eax
	je	.LBB84_19
# %bb.18:                               #   in Loop: Header=BB84_11 Depth=3
	movl	$.L.str.268, %edi
	xorl	%eax, %eax
	callq	printf@PLT
	jmp	.LBB84_19
.LBB84_41:                              #   in Loop: Header=BB84_6 Depth=2
	movl	$.L.str.265, %edi
.LBB84_29:                              #   in Loop: Header=BB84_6 Depth=2
	xorl	%eax, %eax
	callq	printf@PLT
	movq	(%r14), %rdi
	callq	getc@PLT
	cmpl	$17, %eax
	je	.LBB84_35
# %bb.30:                               #   in Loop: Header=BB84_6 Depth=2
	movl	$.L.str.132, %edi
	xorl	%eax, %eax
	callq	printf@PLT
	movl	$.L.str.130, %edi
	xorl	%eax, %eax
	callq	printf@PLT
	movl	$.L.str.128, %edi
	xorl	%eax, %eax
	callq	printf@PLT
	movl	$.L.str.126, %edi
	xorl	%eax, %eax
	callq	printf@PLT
	movl	$.L.str.124, %edi
	xorl	%eax, %eax
	callq	printf@PLT
	movl	$.L.str.122, %edi
	xorl	%eax, %eax
	callq	printf@PLT
	movl	$.L.str.120, %edi
	xorl	%eax, %eax
	callq	printf@PLT
	movl	$.L.str.118, %edi
	xorl	%eax, %eax
	callq	printf@PLT
	movl	$.L.str.116, %edi
	xorl	%eax, %eax
	callq	printf@PLT
	movl	$.L.str.114, %edi
	xorl	%eax, %eax
	callq	printf@PLT
	movl	$.L.str.112, %edi
	xorl	%eax, %eax
	callq	printf@PLT
	movl	$.L.str.110, %edi
	xorl	%eax, %eax
	callq	printf@PLT
	movl	$.L.str.108, %edi
	xorl	%eax, %eax
	callq	printf@PLT
	movl	$.L.str.106, %edi
	xorl	%eax, %eax
	callq	printf@PLT
	movl	$.L.str.104, %edi
	xorl	%eax, %eax
	callq	printf@PLT
	movl	$.L.str.102, %edi
	xorl	%eax, %eax
	callq	printf@PLT
	movl	$.L.str.100, %edi
	xorl	%eax, %eax
	callq	printf@PLT
	movl	$.L.str.98, %edi
	xorl	%eax, %eax
	callq	printf@PLT
	movl	$.L.str.96, %edi
	xorl	%eax, %eax
	callq	printf@PLT
	movl	$.L.str.95, %edi
	xorl	%eax, %eax
	callq	printf@PLT
	movl	$.L.str.62, %edi
	xorl	%eax, %eax
	callq	printf@PLT
	movl	$.L.str.58, %edi
	xorl	%eax, %eax
	callq	printf@PLT
	movl	$.L.str.59, %edi
	xorl	%eax, %eax
	callq	printf@PLT
	movl	$.L.str.60, %edi
	xorl	%eax, %eax
	callq	printf@PLT
	movl	$.L.str.61, %edi
	xorl	%eax, %eax
	callq	printf@PLT
	movl	$.L.str.63, %edi
	xorl	%eax, %eax
	callq	printf@PLT
	callq	FF_function_138
	movl	$.L.str.97, %edi
	xorl	%eax, %eax
	callq	printf@PLT
	movl	$.L.str.99, %edi
	xorl	%eax, %eax
	callq	printf@PLT
	movl	$.L.str.101, %edi
	xorl	%eax, %eax
	callq	printf@PLT
	movl	$.L.str.103, %edi
	xorl	%eax, %eax
	callq	printf@PLT
	movl	$.L.str.105, %edi
	xorl	%eax, %eax
	callq	printf@PLT
	movl	$.L.str.107, %edi
	xorl	%eax, %eax
	callq	printf@PLT
	movl	$.L.str.109, %edi
	xorl	%eax, %eax
	callq	printf@PLT
	callq	rand@PLT
	testl	%eax, %eax
	jle	.LBB84_32
# %bb.31:                               #   in Loop: Header=BB84_6 Depth=2
	movl	$.L.str.111, %edi
	xorl	%eax, %eax
	callq	printf@PLT
.LBB84_32:                              #   in Loop: Header=BB84_6 Depth=2
	xorps	%xmm0, %xmm0
	xorl	%esi, %esi
	movb	$1, %al
	callq	FF_function_128
	callq	rand@PLT
	testl	%eax, %eax
	jle	.LBB84_34
# %bb.33:                               #   in Loop: Header=BB84_6 Depth=2
	movl	$.L.str.113, %edi
	xorl	%eax, %eax
	callq	printf@PLT
	jmp	.LBB84_34
.LBB84_8:                               #   in Loop: Header=BB84_1 Depth=1
	movl	$.L.str.260, %edi
	jmp	.LBB84_37
.LBB84_36:                              #   in Loop: Header=BB84_1 Depth=1
	movl	$.L.str.270, %edi
	xorl	%eax, %eax
	callq	printf@PLT
	movl	$.L.str.118, %edi
	xorl	%eax, %eax
	callq	printf@PLT
	movl	$.L.str.116, %edi
	xorl	%eax, %eax
	callq	printf@PLT
	callq	FF_function_125
	movl	$.L.str.117, %edi
	xorl	%eax, %eax
	callq	printf@PLT
	xorps	%xmm0, %xmm0
	xorl	%esi, %esi
	movb	$1, %al
	callq	FF_function_123
	movl	$.L.str.119, %edi
.LBB84_37:                              #   in Loop: Header=BB84_1 Depth=1
	xorl	%eax, %eax
	callq	printf@PLT
	movl	$.L.str.271, %edi
	xorl	%eax, %eax
	callq	printf@PLT
	movl	$.L.str.272, %edi
	xorl	%eax, %eax
	callq	printf@PLT
	movq	(%r14), %rdi
	callq	getc@PLT
	movl	$.L.str.272, %edi
	xorl	%eax, %eax
	callq	printf@PLT
	movq	(%r14), %rdi
	callq	getc@PLT
	movl	$.L.str.272, %edi
	xorl	%eax, %eax
	callq	printf@PLT
	movq	(%r14), %rdi
	callq	getc@PLT
	movl	$.L.str.272, %edi
	xorl	%eax, %eax
	callq	printf@PLT
	movq	(%r14), %rdi
	callq	getc@PLT
	movl	$.L.str.272, %edi
	xorl	%eax, %eax
	callq	printf@PLT
	movq	(%r14), %rdi
	callq	getc@PLT
	movl	$.L.str.272, %edi
	xorl	%eax, %eax
	callq	printf@PLT
	movq	(%r14), %rdi
	callq	getc@PLT
	movl	$.L.str.272, %edi
	xorl	%eax, %eax
	callq	printf@PLT
	movq	(%r14), %rdi
	callq	getc@PLT
	movl	$.L.str.272, %edi
	xorl	%eax, %eax
	callq	printf@PLT
	movq	(%r14), %rdi
	callq	getc@PLT
	movl	$.L.str.272, %edi
	xorl	%eax, %eax
	callq	printf@PLT
	movq	(%r14), %rdi
	callq	getc@PLT
	movl	$.L.str.272, %edi
	xorl	%eax, %eax
	callq	printf@PLT
	movq	(%r14), %rdi
	callq	getc@PLT
	movl	$.L.str.272, %edi
	xorl	%eax, %eax
	callq	printf@PLT
	movq	(%r14), %rdi
	callq	getc@PLT
	movl	$.L.str.272, %edi
	xorl	%eax, %eax
	callq	printf@PLT
	movq	(%r14), %rdi
	callq	getc@PLT
	movl	$.L.str.272, %edi
	xorl	%eax, %eax
	callq	printf@PLT
	movq	(%r14), %rdi
	callq	getc@PLT
	movl	$.L.str.272, %edi
	xorl	%eax, %eax
	callq	printf@PLT
	movq	(%r14), %rdi
	callq	getc@PLT
	movl	$.L.str.272, %edi
	xorl	%eax, %eax
	callq	printf@PLT
	movq	(%r14), %rdi
	callq	getc@PLT
	movl	$.L.str.272, %edi
	xorl	%eax, %eax
	callq	printf@PLT
	movq	(%r14), %rdi
	callq	getc@PLT
	movl	$.L.str.272, %edi
	xorl	%eax, %eax
	callq	printf@PLT
	movq	(%r14), %rdi
	callq	getc@PLT
	movl	$.L.str.272, %edi
	xorl	%eax, %eax
	callq	printf@PLT
	movq	(%r14), %rdi
	callq	getc@PLT
	movl	$.L.str.272, %edi
	xorl	%eax, %eax
	callq	printf@PLT
	movq	(%r14), %rdi
	callq	getc@PLT
	movl	$.L.str.272, %edi
	xorl	%eax, %eax
	callq	printf@PLT
	movq	(%r14), %rdi
	callq	getc@PLT
	movl	$.L.str.273, %edi
	xorl	%eax, %eax
	callq	printf@PLT
	movl	$.L.str.274, %edi
	xorl	%eax, %eax
	callq	printf@PLT
	movq	(%r14), %rdi
	callq	getc@PLT
	cmpl	$17, %eax
	je	.LBB84_39
# %bb.38:                               #   in Loop: Header=BB84_1 Depth=1
	movl	$.L.str.275, %edi
	xorl	%eax, %eax
	callq	printf@PLT
.LBB84_39:                              #   in Loop: Header=BB84_1 Depth=1
	movl	$.L.str.253, %edi
	xorl	%eax, %eax
	callq	printf@PLT
	movl	$.L.str.254, %edi
	xorl	%eax, %eax
	callq	printf@PLT
	jmp	.LBB84_1
.LBB84_13:
	movl	$.L.str.266, %edi
	xorl	%eax, %eax
	callq	printf@PLT
.LBB84_14:
	movl	$.L.str.276, %edi
	xorl	%eax, %eax
	callq	printf@PLT
	movl	$.L.str.116, %edi
	xorl	%eax, %eax
	callq	printf@PLT
	callq	FF_function_125
	movl	$.L.str.117, %edi
.LBB84_15:
	xorl	%eax, %eax
	callq	printf@PLT
	movl	$.L.str.277, %edi
	xorl	%eax, %eax
	callq	printf@PLT
	xorl	%eax, %eax
	addq	$8, %rsp
	.cfi_def_cfa_offset 24
	popq	%rbx
	.cfi_def_cfa_offset 16
	popq	%r14
	.cfi_def_cfa_offset 8
	retq
.LBB84_4:
	.cfi_def_cfa_offset 32
	movl	$.L.str.255, %edi
	jmp	.LBB84_15
.LBB84_40:
	movl	$1923, %edi                     # imm = 0x783
	callq	exit@PLT
.Lfunc_end84:
	.size	CF_function_181, .Lfunc_end84-CF_function_181
	.cfi_endproc
                                        # -- End function
	.globl	FF_function_183                 # -- Begin function FF_function_183
	.p2align	4, 0x90
	.type	FF_function_183,@function
FF_function_183:                        # @FF_function_183
	.cfi_startproc
# %bb.0:
	pushq	%rbx
	.cfi_def_cfa_offset 16
	subq	$208, %rsp
	.cfi_def_cfa_offset 224
	.cfi_offset %rbx, -16
	movq	%rdi, 32(%rsp)
	movq	%rsi, 40(%rsp)
	movq	%rdx, 48(%rsp)
	movq	%rcx, 56(%rsp)
	movq	%r8, 64(%rsp)
	movq	%r9, 72(%rsp)
	testb	%al, %al
	je	.LBB85_5
# %bb.4:
	movaps	%xmm1, 96(%rsp)
	movaps	%xmm2, 112(%rsp)
	movaps	%xmm3, 128(%rsp)
	movaps	%xmm4, 144(%rsp)
	movaps	%xmm5, 160(%rsp)
	movaps	%xmm6, 176(%rsp)
	movaps	%xmm7, 192(%rsp)
.LBB85_5:
	movl	$.L.str.278, %edi
	xorl	%eax, %eax
	callq	printf@PLT
	leaq	32(%rsp), %rax
	movq	%rax, 16(%rsp)
	leaq	224(%rsp), %rax
	movq	%rax, 8(%rsp)
	movabsq	$274877906944, %rax             # imm = 0x4000000000
	movq	%rax, (%rsp)
	movl	$40, %eax
	negq	%rax
	ja	.LBB85_2
# %bb.1:
	movq	16(%rsp), %rax
	movl	$8, (%rsp)
	jmp	.LBB85_3
.LBB85_2:
	movq	8(%rsp), %rax
	leaq	8(%rax), %rcx
	movq	%rcx, 8(%rsp)
.LBB85_3:
	movq	(%rax), %rbx
	movl	$1, %edi
	movb	$1, %al
	callq	FF_function_183
	movl	$1, %edi
	movl	$2, %esi
	movl	$3, %edx
	movb	$1, %al
	callq	FF_function_183
	movl	$.L.str.279, %edi
	xorl	%eax, %eax
	callq	printf@PLT
	movq	%rbx, %rax
	addq	$208, %rsp
	.cfi_def_cfa_offset 16
	popq	%rbx
	.cfi_def_cfa_offset 8
	retq
.Lfunc_end85:
	.size	FF_function_183, .Lfunc_end85-FF_function_183
	.cfi_endproc
                                        # -- End function
	.section	.rodata.cst4,"aM",@progbits,4
	.p2align	2                               # -- Begin function CF_function_184
.LCPI86_0:
	.long	0x46028bcd                      # float 8354.95019
.LCPI86_1:
	.long	0xbf800000                      # float -1
.LCPI86_2:
	.long	0x40000000                      # float 2
	.section	.rodata.cst8,"aM",@progbits,8
	.p2align	3
.LCPI86_3:
	.quad	0x40a7154280000000              # double 2954.6298828125
.LCPI86_4:
	.quad	0x40a7134280000000              # double 2953.6298828125
.LCPI86_5:
	.quad	0x40a7114280000000              # double 2952.6298828125
.LCPI86_6:
	.quad	0x40a70f4280000000              # double 2951.6298828125
.LCPI86_7:
	.quad	0x40a70d4280000000              # double 2950.6298828125
.LCPI86_8:
	.quad	0x40a70b4280000000              # double 2949.6298828125
.LCPI86_9:
	.quad	0x40a7094280000000              # double 2948.6298828125
	.text
	.globl	CF_function_184
	.p2align	4, 0x90
	.type	CF_function_184,@function
CF_function_184:                        # @CF_function_184
	.cfi_startproc
# %bb.0:
	pushq	%rbp
	.cfi_def_cfa_offset 16
	pushq	%rbx
	.cfi_def_cfa_offset 24
	subq	$24, %rsp
	.cfi_def_cfa_offset 48
	.cfi_offset %rbx, -24
	.cfi_offset %rbp, -16
	movl	$.L.str.280, %edi
	xorl	%eax, %eax
	callq	printf@PLT
	movl	$.L.str.281, %edi
	xorl	%eax, %eax
	callq	printf@PLT
	movl	$.L.str.282, %edi
	xorl	%eax, %eax
	callq	printf@PLT
	movl	$.L.str.283, %edi
	xorl	%eax, %eax
	callq	printf@PLT
	movq	stdin@GOTPCREL(%rip), %rbx
.LBB86_1:                               # =>This Loop Header: Depth=1
                                        #     Child Loop BB86_5 Depth 2
                                        #       Child Loop BB86_6 Depth 3
                                        #         Child Loop BB86_16 Depth 4
                                        #     Child Loop BB86_38 Depth 2
	movq	(%rbx), %rdi
	callq	getc@PLT
	cmpl	$19, %eax
	je	.LBB86_12
# %bb.2:                                #   in Loop: Header=BB86_1 Depth=1
	movq	(%rbx), %rdi
	callq	getc@PLT
	cmpl	$83, %eax
	je	.LBB86_3
# %bb.4:                                #   in Loop: Header=BB86_1 Depth=1
	movl	$.L.str.285, %edi
	xorl	%eax, %eax
	callq	printf@PLT
	movl	$.L.str.286, %edi
.LBB86_5:                               #   Parent Loop BB86_1 Depth=1
                                        # =>  This Loop Header: Depth=2
                                        #       Child Loop BB86_6 Depth 3
                                        #         Child Loop BB86_16 Depth 4
	xorl	%eax, %eax
	callq	printf@PLT
.LBB86_6:                               #   Parent Loop BB86_1 Depth=1
                                        #     Parent Loop BB86_5 Depth=2
                                        # =>    This Loop Header: Depth=3
                                        #         Child Loop BB86_16 Depth 4
	movl	$.L.str.287, %edi
	xorl	%eax, %eax
	callq	printf@PLT
	movl	$.L.str.90, %edi
	xorl	%eax, %eax
	callq	printf@PLT
	movl	$.L.str.91, %edi
	xorl	%eax, %eax
	callq	printf@PLT
	movq	(%rbx), %rdi
	callq	getc@PLT
	cmpl	$23, %eax
	je	.LBB86_37
# %bb.7:                                #   in Loop: Header=BB86_6 Depth=3
	movq	(%rbx), %rdi
	callq	getc@PLT
	cmpl	$31, %eax
	je	.LBB86_14
# %bb.8:                                #   in Loop: Header=BB86_6 Depth=3
	movq	(%rbx), %rdi
	callq	getc@PLT
	cmpl	$19, %eax
	je	.LBB86_37
# %bb.9:                                #   in Loop: Header=BB86_6 Depth=3
	movq	(%rbx), %rdi
	callq	getc@PLT
	cmpl	$73, %eax
	je	.LBB86_10
# %bb.15:                               #   in Loop: Header=BB86_6 Depth=3
	movl	$.L.str.289, %edi
	xorl	%eax, %eax
	callq	printf@PLT
	movl	$.L.str.290, %edi
	xorl	%eax, %eax
	callq	printf@PLT
	movss	.LCPI86_0(%rip), %xmm0          # xmm0 = mem[0],zero,zero,zero
	movss	%xmm0, 20(%rsp)                 # 4-byte Spill
	jmp	.LBB86_16
	.p2align	4, 0x90
.LBB86_33:                              #   in Loop: Header=BB86_16 Depth=4
	movss	20(%rsp), %xmm0                 # 4-byte Reload
                                        # xmm0 = mem[0],zero,zero,zero
	addss	.LCPI86_1(%rip), %xmm0
	movss	%xmm0, 20(%rsp)                 # 4-byte Spill
	ucomiss	.LCPI86_2(%rip), %xmm0
	jbe	.LBB86_34
.LBB86_16:                              #   Parent Loop BB86_1 Depth=1
                                        #     Parent Loop BB86_5 Depth=2
                                        #       Parent Loop BB86_6 Depth=3
                                        # =>      This Inner Loop Header: Depth=4
	movss	20(%rsp), %xmm0                 # 4-byte Reload
                                        # xmm0 = mem[0],zero,zero,zero
	cvtss2sd	%xmm0, %xmm0
	movl	$.L.str.291, %edi
	movb	$1, %al
	callq	printf@PLT
	movl	$.L.str.110, %edi
	xorl	%eax, %eax
	callq	printf@PLT
	movl	$.L.str.108, %edi
	xorl	%eax, %eax
	callq	printf@PLT
	movl	$.L.str.106, %edi
	xorl	%eax, %eax
	callq	printf@PLT
	movl	$.L.str.104, %edi
	xorl	%eax, %eax
	callq	printf@PLT
	movl	$.L.str.102, %edi
	xorl	%eax, %eax
	callq	printf@PLT
	movl	$.L.str.100, %edi
	xorl	%eax, %eax
	callq	printf@PLT
	movl	$.L.str.98, %edi
	xorl	%eax, %eax
	callq	printf@PLT
	movl	$.L.str.96, %edi
	xorl	%eax, %eax
	callq	printf@PLT
	movl	$.L.str.95, %edi
	xorl	%eax, %eax
	callq	printf@PLT
	movl	$.L.str.62, %edi
	xorl	%eax, %eax
	callq	printf@PLT
	movl	$.L.str.58, %edi
	xorl	%eax, %eax
	callq	printf@PLT
	movl	$.L.str.59, %edi
	xorl	%eax, %eax
	callq	printf@PLT
	movl	$.L.str.60, %edi
	xorl	%eax, %eax
	callq	printf@PLT
	movl	$.L.str.61, %edi
	xorl	%eax, %eax
	callq	printf@PLT
	movl	$.L.str.63, %edi
	xorl	%eax, %eax
	callq	printf@PLT
	callq	FF_function_138
	movl	$.L.str.97, %edi
	xorl	%eax, %eax
	callq	printf@PLT
	movl	$.L.str.99, %edi
	xorl	%eax, %eax
	callq	printf@PLT
	movl	$.L.str.101, %edi
	xorl	%eax, %eax
	callq	printf@PLT
	movl	$.L.str.103, %edi
	xorl	%eax, %eax
	callq	printf@PLT
	movl	$.L.str.105, %edi
	xorl	%eax, %eax
	callq	printf@PLT
	movl	$.L.str.107, %edi
	xorl	%eax, %eax
	callq	printf@PLT
	movl	$.L.str.109, %edi
	xorl	%eax, %eax
	callq	printf@PLT
	callq	rand@PLT
	testl	%eax, %eax
	jle	.LBB86_18
# %bb.17:                               #   in Loop: Header=BB86_16 Depth=4
	movl	$.L.str.111, %edi
	xorl	%eax, %eax
	callq	printf@PLT
.LBB86_18:                              #   in Loop: Header=BB86_16 Depth=4
	movl	$.L.str.92, %edi
	xorl	%eax, %eax
	callq	printf@PLT
	movl	$.L.str.37, %edi
	xorl	%eax, %eax
	callq	printf@PLT
	movq	(%rbx), %rdi
	callq	getc@PLT
	cmpl	$19, %eax
	je	.LBB86_34
# %bb.19:                               #   in Loop: Header=BB86_16 Depth=4
	movq	(%rbx), %rdi
	callq	getc@PLT
	cmpl	$83, %eax
	je	.LBB86_20
# %bb.21:                               #   in Loop: Header=BB86_16 Depth=4
	movq	(%rbx), %rdi
	callq	getc@PLT
	cmpl	$73, %eax
	je	.LBB86_22
# %bb.23:                               #   in Loop: Header=BB86_16 Depth=4
	movl	$.L.str.294, %edi
	xorl	%eax, %eax
	callq	printf@PLT
	movl	$.L.str.138, %edi
	xorl	%eax, %eax
	callq	printf@PLT
	movl	$.L.str.137, %edi
	xorl	%eax, %eax
	callq	printf@PLT
	movl	$.L.str.135, %edi
	xorl	%eax, %eax
	callq	printf@PLT
	movl	$.L.str.133, %edi
	xorl	%eax, %eax
	callq	printf@PLT
	movl	$.L.str.132, %edi
	xorl	%eax, %eax
	callq	printf@PLT
	movl	$.L.str.130, %edi
	xorl	%eax, %eax
	callq	printf@PLT
	movl	$.L.str.128, %edi
	xorl	%eax, %eax
	callq	printf@PLT
	movl	$.L.str.126, %edi
	xorl	%eax, %eax
	callq	printf@PLT
	movl	$.L.str.124, %edi
	xorl	%eax, %eax
	callq	printf@PLT
	movl	$.L.str.122, %edi
	xorl	%eax, %eax
	callq	printf@PLT
	movl	$.L.str.120, %edi
	xorl	%eax, %eax
	callq	printf@PLT
	movl	$.L.str.118, %edi
	xorl	%eax, %eax
	callq	printf@PLT
	movl	$.L.str.116, %edi
	xorl	%eax, %eax
	callq	printf@PLT
	movl	$.L.str.114, %edi
	xorl	%eax, %eax
	callq	printf@PLT
	movl	$.L.str.112, %edi
	xorl	%eax, %eax
	callq	printf@PLT
	movl	$.L.str.110, %edi
	xorl	%eax, %eax
	callq	printf@PLT
	movl	$.L.str.108, %edi
	xorl	%eax, %eax
	callq	printf@PLT
	movl	$.L.str.106, %edi
	xorl	%eax, %eax
	callq	printf@PLT
	movl	$.L.str.104, %edi
	xorl	%eax, %eax
	callq	printf@PLT
	movl	$.L.str.102, %edi
	xorl	%eax, %eax
	callq	printf@PLT
	movl	$.L.str.100, %edi
	xorl	%eax, %eax
	callq	printf@PLT
	movl	$.L.str.98, %edi
	xorl	%eax, %eax
	callq	printf@PLT
	movl	$.L.str.96, %edi
	xorl	%eax, %eax
	callq	printf@PLT
	movl	$.L.str.95, %edi
	xorl	%eax, %eax
	callq	printf@PLT
	movl	$.L.str.62, %edi
	xorl	%eax, %eax
	callq	printf@PLT
	movl	$.L.str.58, %edi
	xorl	%eax, %eax
	callq	printf@PLT
	movl	$.L.str.59, %edi
	xorl	%eax, %eax
	callq	printf@PLT
	movl	$.L.str.60, %edi
	xorl	%eax, %eax
	callq	printf@PLT
	movl	$.L.str.61, %edi
	xorl	%eax, %eax
	callq	printf@PLT
	movl	$.L.str.63, %edi
	xorl	%eax, %eax
	callq	printf@PLT
	callq	FF_function_138
	movl	$.L.str.97, %edi
	xorl	%eax, %eax
	callq	printf@PLT
	movl	$.L.str.99, %edi
	xorl	%eax, %eax
	callq	printf@PLT
	movl	$.L.str.101, %edi
	xorl	%eax, %eax
	callq	printf@PLT
	movl	$.L.str.103, %edi
	xorl	%eax, %eax
	callq	printf@PLT
	movl	$.L.str.105, %edi
	xorl	%eax, %eax
	callq	printf@PLT
	movl	$.L.str.107, %edi
	xorl	%eax, %eax
	callq	printf@PLT
	movl	$.L.str.109, %edi
	xorl	%eax, %eax
	callq	printf@PLT
	callq	rand@PLT
	testl	%eax, %eax
	jle	.LBB86_25
# %bb.24:                               #   in Loop: Header=BB86_16 Depth=4
	movl	$.L.str.111, %edi
	xorl	%eax, %eax
	callq	printf@PLT
.LBB86_25:                              #   in Loop: Header=BB86_16 Depth=4
	xorps	%xmm0, %xmm0
	xorl	%esi, %esi
	movb	$1, %al
	callq	FF_function_128
	callq	rand@PLT
	testl	%eax, %eax
	jle	.LBB86_27
# %bb.26:                               #   in Loop: Header=BB86_16 Depth=4
	movl	$.L.str.113, %edi
	xorl	%eax, %eax
	callq	printf@PLT
.LBB86_27:                              #   in Loop: Header=BB86_16 Depth=4
	movl	$.L.str.115, %edi
	xorl	%eax, %eax
	callq	printf@PLT
	movl	$.L.str.117, %edi
	xorl	%eax, %eax
	callq	printf@PLT
	xorps	%xmm0, %xmm0
	xorl	%esi, %esi
	movb	$1, %al
	callq	FF_function_123
	movl	$.L.str.119, %edi
	xorl	%eax, %eax
	callq	printf@PLT
	movl	$.L.str.121, %edi
	xorl	%eax, %eax
	callq	printf@PLT
	movl	$.L.str.123, %edi
	xorl	%eax, %eax
	callq	printf@PLT
	movl	$.L.str.125, %edi
	xorl	%eax, %eax
	callq	printf@PLT
	xorps	%xmm0, %xmm0
	xorps	%xmm1, %xmm1
	movb	$2, %al
	callq	FF_function_117
	movl	$.L.str.127, %edi
	xorl	%eax, %eax
	callq	printf@PLT
	movl	$.L.str.129, %edi
	xorl	%eax, %eax
	callq	printf@PLT
	movl	$.L.str.131, %edi
	xorl	%eax, %eax
	callq	printf@PLT
	xorl	%edx, %edx
	xorl	%ecx, %ecx
	xorl	%eax, %eax
	callq	FF_function_112
	movl	$.L.str.134, %edi
	xorl	%eax, %eax
	callq	printf@PLT
	movl	$.L.str.136, %edi
	xorl	%eax, %eax
	callq	printf@PLT
	callq	rand@PLT
	testl	%eax, %eax
	jle	.LBB86_29
# %bb.28:                               #   in Loop: Header=BB86_16 Depth=4
	movl	$.L.str.139, %edi
	xorl	%eax, %eax
	callq	printf@PLT
.LBB86_29:                              #   in Loop: Header=BB86_16 Depth=4
	movl	$.L.str.295, %edi
	xorl	%eax, %eax
	callq	printf@PLT
	movl	$.L.str.60, %edi
	xorl	%eax, %eax
	callq	printf@PLT
	movl	$.L.str.61, %edi
	xorl	%eax, %eax
	callq	printf@PLT
	movl	$.L.str.110, %edi
	xorl	%eax, %eax
	callq	printf@PLT
	movl	$.L.str.108, %edi
	xorl	%eax, %eax
	callq	printf@PLT
	movl	$.L.str.106, %edi
	xorl	%eax, %eax
	callq	printf@PLT
	movl	$.L.str.104, %edi
	xorl	%eax, %eax
	callq	printf@PLT
	movl	$.L.str.102, %edi
	xorl	%eax, %eax
	callq	printf@PLT
	movl	$.L.str.100, %edi
	xorl	%eax, %eax
	callq	printf@PLT
	movl	$.L.str.98, %edi
	xorl	%eax, %eax
	callq	printf@PLT
	movl	$.L.str.96, %edi
	xorl	%eax, %eax
	callq	printf@PLT
	movl	$.L.str.95, %edi
	xorl	%eax, %eax
	callq	printf@PLT
	movl	$.L.str.62, %edi
	xorl	%eax, %eax
	callq	printf@PLT
	movl	$.L.str.58, %edi
	xorl	%eax, %eax
	callq	printf@PLT
	movl	$.L.str.59, %edi
	xorl	%eax, %eax
	callq	printf@PLT
	movl	$.L.str.60, %edi
	xorl	%eax, %eax
	callq	printf@PLT
	movl	$.L.str.61, %edi
	xorl	%eax, %eax
	callq	printf@PLT
	movl	$.L.str.63, %edi
	xorl	%eax, %eax
	callq	printf@PLT
	callq	FF_function_138
	movl	$.L.str.97, %edi
	xorl	%eax, %eax
	callq	printf@PLT
	movl	$.L.str.99, %edi
	xorl	%eax, %eax
	callq	printf@PLT
	movl	$.L.str.101, %edi
	xorl	%eax, %eax
	callq	printf@PLT
	movl	$.L.str.103, %edi
	xorl	%eax, %eax
	callq	printf@PLT
	movl	$.L.str.105, %edi
	xorl	%eax, %eax
	callq	printf@PLT
	movl	$.L.str.107, %edi
	xorl	%eax, %eax
	callq	printf@PLT
	movl	$.L.str.109, %edi
	xorl	%eax, %eax
	callq	printf@PLT
	callq	rand@PLT
	testl	%eax, %eax
	jle	.LBB86_31
# %bb.30:                               #   in Loop: Header=BB86_16 Depth=4
	movl	$.L.str.111, %edi
	xorl	%eax, %eax
	callq	printf@PLT
.LBB86_31:                              #   in Loop: Header=BB86_16 Depth=4
	movl	$.L.str.296, %edi
	xorl	%eax, %eax
	callq	printf@PLT
	movl	$.L.str.93, %edi
	xorl	%eax, %eax
	callq	printf@PLT
	movl	$.L.str.79, %edi
	xorl	%eax, %eax
	callq	printf@PLT
	movl	$.L.str.75, %edi
	xorl	%eax, %eax
	callq	printf@PLT
	movl	$.L.str.76, %edi
	xorl	%eax, %eax
	callq	printf@PLT
	movl	$.L.str.77, %edi
	xorl	%eax, %eax
	callq	printf@PLT
	movl	$.L.str.78, %edi
	xorl	%eax, %eax
	callq	printf@PLT
	movl	$.L.str.80, %edi
	xorl	%eax, %eax
	callq	printf@PLT
	movl	$.L.str.92, %edi
	xorl	%eax, %eax
	callq	printf@PLT
	movl	$.L.str.88, %edi
	xorl	%eax, %eax
	callq	printf@PLT
	movl	$.L.str.81, %edi
	xorl	%eax, %eax
	callq	printf@PLT
	xorps	%xmm0, %xmm0
	xorl	%edx, %edx
	movb	$1, %al
	callq	FF_function_171
	movl	$.L.str.84, %edi
	xorl	%eax, %eax
	callq	printf@PLT
	movl	$.L.str.82, %edi
	xorl	%eax, %eax
	callq	printf@PLT
	movl	$.L.str.83, %edi
	xorl	%eax, %eax
	callq	printf@PLT
	movl	$.L.str.85, %edi
	xorl	%eax, %eax
	callq	printf@PLT
	movl	$.L.str.89, %edi
	xorl	%eax, %eax
	callq	printf@PLT
	movl	$.L.str.94, %edi
	xorl	%eax, %eax
	callq	printf@PLT
	movl	$.L.str.297, %edi
	xorl	%eax, %eax
	callq	printf@PLT
	movl	$.L.str.298, %edi
	xorl	%eax, %eax
	callq	printf@PLT
	movq	(%rbx), %rdi
	callq	getc@PLT
	cmpl	$67, %eax
	je	.LBB86_33
# %bb.32:                               #   in Loop: Header=BB86_16 Depth=4
	movl	$.L.str.299, %edi
	xorl	%eax, %eax
	callq	printf@PLT
	jmp	.LBB86_33
	.p2align	4, 0x90
.LBB86_34:                              #   in Loop: Header=BB86_6 Depth=3
	movl	$.L.str.300, %edi
	xorl	%eax, %eax
	callq	printf@PLT
	movl	$.L.str.301, %edi
	jmp	.LBB86_35
.LBB86_20:                              #   in Loop: Header=BB86_6 Depth=3
	movl	$.L.str.292, %edi
.LBB86_35:                              #   in Loop: Header=BB86_6 Depth=3
	xorl	%eax, %eax
	callq	printf@PLT
	movq	(%rbx), %rdi
	callq	getc@PLT
	cmpl	$67, %eax
	je	.LBB86_6
# %bb.36:                               #   in Loop: Header=BB86_5 Depth=2
	movl	$.L.str.302, %edi
	jmp	.LBB86_5
	.p2align	4, 0x90
.LBB86_37:                              #   in Loop: Header=BB86_1 Depth=1
	movl	$.L.str.303, %edi
	xorl	%eax, %eax
	callq	printf@PLT
	movl	$.L.str.304, %edi
	xorl	%eax, %eax
	callq	printf@PLT
	movl	$.L.str.305, %edi
	xorl	%eax, %eax
	callq	printf@PLT
	movl	$8398, %ebp                     # imm = 0x20CE
	.p2align	4, 0x90
.LBB86_38:                              #   Parent Loop BB86_1 Depth=1
                                        # =>  This Inner Loop Header: Depth=2
	movl	$.L.str.306, %edi
	movl	%ebp, %esi
	xorl	%eax, %eax
	callq	printf@PLT
	movl	$.L.str.307, %edi
	xorl	%eax, %eax
	callq	printf@PLT
	movl	$.L.str.138, %edi
	xorl	%eax, %eax
	callq	printf@PLT
	movl	$.L.str.137, %edi
	xorl	%eax, %eax
	callq	printf@PLT
	movl	$.L.str.135, %edi
	xorl	%eax, %eax
	callq	printf@PLT
	callq	FF_function_109
	movl	$.L.str.136, %edi
	xorl	%eax, %eax
	callq	printf@PLT
	callq	rand@PLT
	testl	%eax, %eax
	jle	.LBB86_40
# %bb.39:                               #   in Loop: Header=BB86_38 Depth=2
	movl	$.L.str.139, %edi
	xorl	%eax, %eax
	callq	printf@PLT
.LBB86_40:                              #   in Loop: Header=BB86_38 Depth=2
	movl	$.L.str.308, %edi
	xorl	%eax, %eax
	callq	printf@PLT
	movl	$.L.str.309, %edi
	xorl	%eax, %eax
	callq	printf@PLT
	callq	FF_function_118
	movl	$.L.str.37, %edi
	xorl	%eax, %eax
	callq	printf@PLT
	movl	$.L.str.62, %edi
	xorl	%eax, %eax
	callq	printf@PLT
	movl	$.L.str.58, %edi
	xorl	%eax, %eax
	callq	printf@PLT
	movl	$.L.str.59, %edi
	xorl	%eax, %eax
	callq	printf@PLT
	movl	$.L.str.60, %edi
	xorl	%eax, %eax
	callq	printf@PLT
	movl	$.L.str.61, %edi
	xorl	%eax, %eax
	callq	printf@PLT
	movl	$.L.str.63, %edi
	xorl	%eax, %eax
	callq	printf@PLT
	movl	$.L.str.126, %edi
	xorl	%eax, %eax
	callq	printf@PLT
	callq	FF_function_118
	xorps	%xmm0, %xmm0
	xorps	%xmm1, %xmm1
	movb	$2, %al
	callq	FF_function_117
	movl	$.L.str.127, %edi
	xorl	%eax, %eax
	callq	printf@PLT
	movl	$.L.str.64, %edi
	xorl	%eax, %eax
	callq	printf@PLT
	movl	$.L.str.65, %edi
	xorl	%eax, %eax
	callq	printf@PLT
	callq	FF_function_109
	movl	$.L.str.310, %edi
	xorl	%eax, %eax
	callq	printf@PLT
	movl	$.L.str.108, %edi
	xorl	%eax, %eax
	callq	printf@PLT
	movl	$.L.str.106, %edi
	xorl	%eax, %eax
	callq	printf@PLT
	movl	$.L.str.104, %edi
	xorl	%eax, %eax
	callq	printf@PLT
	movl	$.L.str.102, %edi
	xorl	%eax, %eax
	callq	printf@PLT
	movl	$.L.str.100, %edi
	xorl	%eax, %eax
	callq	printf@PLT
	xorl	%esi, %esi
	callq	FF_function_135
	movl	$.L.str.101, %edi
	xorl	%eax, %eax
	callq	printf@PLT
	movl	$.L.str.103, %edi
	xorl	%eax, %eax
	callq	printf@PLT
	movl	$.L.str.105, %edi
	xorl	%eax, %eax
	callq	printf@PLT
	movl	$.L.str.107, %edi
	xorl	%eax, %eax
	callq	printf@PLT
	movl	$.L.str.109, %edi
	xorl	%eax, %eax
	callq	printf@PLT
	movl	$.L.str.37, %edi
	xorl	%eax, %eax
	callq	printf@PLT
	movl	$.L.str.311, %edi
	xorl	%eax, %eax
	callq	printf@PLT
	movl	$.L.str.88, %edi
	xorl	%eax, %eax
	callq	printf@PLT
	movl	$.L.str.81, %edi
	xorl	%eax, %eax
	callq	printf@PLT
	xorps	%xmm0, %xmm0
	xorl	%edx, %edx
	movb	$1, %al
	callq	FF_function_171
	movl	$.L.str.84, %edi
	xorl	%eax, %eax
	callq	printf@PLT
	movl	$.L.str.82, %edi
	xorl	%eax, %eax
	callq	printf@PLT
	movl	$.L.str.83, %edi
	xorl	%eax, %eax
	callq	printf@PLT
	movl	$.L.str.85, %edi
	xorl	%eax, %eax
	callq	printf@PLT
	movl	$.L.str.89, %edi
	xorl	%eax, %eax
	callq	printf@PLT
	movl	$.L.str.312, %edi
	xorl	%eax, %eax
	callq	printf@PLT
	movl	$.L.str.108, %edi
	xorl	%eax, %eax
	callq	printf@PLT
	movl	$.L.str.106, %edi
	xorl	%eax, %eax
	callq	printf@PLT
	movl	$.L.str.104, %edi
	xorl	%eax, %eax
	callq	printf@PLT
	movl	$.L.str.102, %edi
	xorl	%eax, %eax
	callq	printf@PLT
	movl	$.L.str.100, %edi
	xorl	%eax, %eax
	callq	printf@PLT
	xorl	%esi, %esi
	callq	FF_function_135
	movl	$.L.str.101, %edi
	xorl	%eax, %eax
	callq	printf@PLT
	movl	$.L.str.103, %edi
	xorl	%eax, %eax
	callq	printf@PLT
	movl	$.L.str.105, %edi
	xorl	%eax, %eax
	callq	printf@PLT
	movl	$.L.str.107, %edi
	xorl	%eax, %eax
	callq	printf@PLT
	movl	$.L.str.109, %edi
	xorl	%eax, %eax
	callq	printf@PLT
	movl	$.L.str.313, %edi
	xorl	%eax, %eax
	callq	printf@PLT
	movl	$.L.str.314, %edi
	xorl	%eax, %eax
	callq	printf@PLT
	movl	$.L.str.315, %edi
	xorl	%eax, %eax
	callq	printf@PLT
	xorl	%edx, %edx
	xorl	%ecx, %ecx
	xorl	%eax, %eax
	callq	FF_function_171
	movl	$.L.str.34, %edi
	xorl	%eax, %eax
	callq	printf@PLT
	callq	rand@PLT
	testl	%eax, %eax
	jle	.LBB86_42
# %bb.41:                               #   in Loop: Header=BB86_38 Depth=2
	callq	rand@PLT
.LBB86_42:                              #   in Loop: Header=BB86_38 Depth=2
	movq	(%rbx), %rdi
	callq	getc@PLT
	cmpl	$23, %eax
	je	.LBB86_48
# %bb.43:                               #   in Loop: Header=BB86_38 Depth=2
	movq	(%rbx), %rdi
	callq	getc@PLT
	cmpl	$31, %eax
	je	.LBB86_14
# %bb.44:                               #   in Loop: Header=BB86_38 Depth=2
	movq	(%rbx), %rdi
	callq	getc@PLT
	cmpl	$83, %eax
	je	.LBB86_45
# %bb.46:                               #   in Loop: Header=BB86_38 Depth=2
	movl	$.L.str.317, %edi
	xorl	%eax, %eax
	callq	printf@PLT
	movl	$.L.str.318, %edi
	xorl	%eax, %eax
	callq	printf@PLT
	movl	$.L.str.319, %edi
	movsd	.LCPI86_3(%rip), %xmm0          # xmm0 = mem[0],zero
	movb	$1, %al
	callq	printf@PLT
	movq	(%rbx), %rdi
	callq	getc@PLT
	movl	$.L.str.319, %edi
	movsd	.LCPI86_4(%rip), %xmm0          # xmm0 = mem[0],zero
	movb	$1, %al
	callq	printf@PLT
	movq	(%rbx), %rdi
	callq	getc@PLT
	movl	$.L.str.319, %edi
	movsd	.LCPI86_5(%rip), %xmm0          # xmm0 = mem[0],zero
	movb	$1, %al
	callq	printf@PLT
	movq	(%rbx), %rdi
	callq	getc@PLT
	movl	$.L.str.319, %edi
	movsd	.LCPI86_6(%rip), %xmm0          # xmm0 = mem[0],zero
	movb	$1, %al
	callq	printf@PLT
	movq	(%rbx), %rdi
	callq	getc@PLT
	movl	$.L.str.319, %edi
	movsd	.LCPI86_7(%rip), %xmm0          # xmm0 = mem[0],zero
	movb	$1, %al
	callq	printf@PLT
	movq	(%rbx), %rdi
	callq	getc@PLT
	movl	$.L.str.319, %edi
	movsd	.LCPI86_8(%rip), %xmm0          # xmm0 = mem[0],zero
	movb	$1, %al
	callq	printf@PLT
	movq	(%rbx), %rdi
	callq	getc@PLT
	movl	$.L.str.319, %edi
	movsd	.LCPI86_9(%rip), %xmm0          # xmm0 = mem[0],zero
	movb	$1, %al
	callq	printf@PLT
	movq	(%rbx), %rdi
	callq	getc@PLT
	movl	$.L.str.320, %edi
	xorl	%eax, %eax
	callq	printf@PLT
	movl	$.L.str.50, %edi
	xorl	%eax, %eax
	callq	printf@PLT
	movl	$.L.str.51, %edi
	xorl	%eax, %eax
	callq	printf@PLT
	movq	(%rbx), %rdi
	callq	getc@PLT
	cmpl	$67, %eax
	je	.LBB86_38
# %bb.47:                               #   in Loop: Header=BB86_38 Depth=2
	movl	$.L.str.321, %edi
	xorl	%eax, %eax
	callq	printf@PLT
	movslq	%ebp, %rax
	imulq	$1717986919, %rax, %rax         # imm = 0x66666667
	movq	%rax, %rcx
	shrq	$63, %rcx
	sarq	$33, %rax
	addl	%ecx, %eax
	cmpl	$24, %ebp
	movl	%eax, %ebp
	jg	.LBB86_38
.LBB86_48:                              #   in Loop: Header=BB86_1 Depth=1
	movl	$.L.str.322, %edi
	xorl	%eax, %eax
	callq	printf@PLT
	movl	$.L.str.323, %edi
	jmp	.LBB86_49
.LBB86_45:                              #   in Loop: Header=BB86_1 Depth=1
	movl	$.L.str.316, %edi
.LBB86_49:                              #   in Loop: Header=BB86_1 Depth=1
	xorl	%eax, %eax
	callq	printf@PLT
	movl	$.L.str.50, %edi
	xorl	%eax, %eax
	callq	printf@PLT
	movl	$.L.str.51, %edi
	xorl	%eax, %eax
	callq	printf@PLT
	movl	$.L.str.282, %edi
	xorl	%eax, %eax
	callq	printf@PLT
	movl	$.L.str.283, %edi
	xorl	%eax, %eax
	callq	printf@PLT
	jmp	.LBB86_1
.LBB86_22:
	movl	$.L.str.293, %edi
.LBB86_11:
	xorl	%eax, %eax
	callq	printf@PLT
.LBB86_12:
	movl	$.L.str.324, %edi
	xorl	%eax, %eax
	callq	printf@PLT
	movl	$.L.str.118, %edi
	xorl	%eax, %eax
	callq	printf@PLT
	movl	$.L.str.116, %edi
	xorl	%eax, %eax
	callq	printf@PLT
	callq	FF_function_125
	movl	$.L.str.117, %edi
	xorl	%eax, %eax
	callq	printf@PLT
	xorps	%xmm0, %xmm0
	xorl	%esi, %esi
	movb	$1, %al
	callq	FF_function_123
	movl	$.L.str.119, %edi
	xorl	%eax, %eax
	callq	printf@PLT
	xorl	%r9d, %r9d
	callq	FF_function_139
	movl	$.L.str.37, %edi
.LBB86_13:
	xorl	%eax, %eax
	callq	printf@PLT
	movl	$.L.str.325, %edi
	xorl	%eax, %eax
	callq	printf@PLT
.LBB86_14:
	xorl	%eax, %eax
	addq	$24, %rsp
	.cfi_def_cfa_offset 24
	popq	%rbx
	.cfi_def_cfa_offset 16
	popq	%rbp
	.cfi_def_cfa_offset 8
	retq
.LBB86_10:
	.cfi_def_cfa_offset 48
	movl	$.L.str.288, %edi
	jmp	.LBB86_11
.LBB86_3:
	movl	$.L.str.284, %edi
	jmp	.LBB86_13
.Lfunc_end86:
	.size	CF_function_184, .Lfunc_end86-CF_function_184
	.cfi_endproc
                                        # -- End function
	.globl	CF_function_185                 # -- Begin function CF_function_185
	.p2align	4, 0x90
	.type	CF_function_185,@function
CF_function_185:                        # @CF_function_185
	.cfi_startproc
# %bb.0:
	pushq	%rbx
	.cfi_def_cfa_offset 16
	.cfi_offset %rbx, -16
	movl	$.L.str.326, %edi
	xorl	%eax, %eax
	callq	printf@PLT
	movl	$.L.str.327, %edi
	xorl	%eax, %eax
	callq	printf@PLT
	movl	$.L.str.328, %edi
	xorl	%eax, %eax
	callq	printf@PLT
	movl	$.L.str.68, %edi
	xorl	%eax, %eax
	callq	printf@PLT
	movl	$.L.str.69, %edi
	xorl	%eax, %eax
	callq	printf@PLT
	movq	stdin@GOTPCREL(%rip), %rbx
.LBB87_1:                               # =>This Loop Header: Depth=1
                                        #     Child Loop BB87_6 Depth 2
                                        #       Child Loop BB87_7 Depth 3
                                        #     Child Loop BB87_19 Depth 2
                                        #       Child Loop BB87_26 Depth 3
                                        #         Child Loop BB87_27 Depth 4
                                        #     Child Loop BB87_41 Depth 2
                                        #       Child Loop BB87_46 Depth 3
                                        #         Child Loop BB87_47 Depth 4
                                        #           Child Loop BB87_50 Depth 5
                                        #             Child Loop BB87_55 Depth 6
	movq	(%rbx), %rdi
	callq	getc@PLT
	cmpl	$23, %eax
	je	.LBB87_12
# %bb.2:                                #   in Loop: Header=BB87_1 Depth=1
	movq	(%rbx), %rdi
	callq	getc@PLT
	cmpl	$31, %eax
	je	.LBB87_14
# %bb.3:                                #   in Loop: Header=BB87_1 Depth=1
	movq	(%rbx), %rdi
	callq	getc@PLT
	cmpl	$83, %eax
	je	.LBB87_4
# %bb.5:                                #   in Loop: Header=BB87_1 Depth=1
	movl	$.L.str.330, %edi
	xorl	%eax, %eax
	callq	printf@PLT
	movl	$.L.str.331, %edi
.LBB87_6:                               #   Parent Loop BB87_1 Depth=1
                                        # =>  This Loop Header: Depth=2
                                        #       Child Loop BB87_7 Depth 3
	xorl	%eax, %eax
	callq	printf@PLT
.LBB87_7:                               #   Parent Loop BB87_1 Depth=1
                                        #     Parent Loop BB87_6 Depth=2
                                        # =>    This Inner Loop Header: Depth=3
	movl	$.L.str.332, %edi
	xorl	%eax, %eax
	callq	printf@PLT
	movl	$.L.str.333, %edi
	xorl	%eax, %eax
	callq	printf@PLT
	movq	(%rbx), %rdi
	callq	getc@PLT
	cmpl	$31, %eax
	je	.LBB87_14
# %bb.8:                                #   in Loop: Header=BB87_7 Depth=3
	movq	(%rbx), %rdi
	callq	getc@PLT
	cmpl	$19, %eax
	je	.LBB87_18
# %bb.9:                                #   in Loop: Header=BB87_7 Depth=3
	movq	(%rbx), %rdi
	callq	getc@PLT
	cmpl	$73, %eax
	je	.LBB87_10
# %bb.15:                               #   in Loop: Header=BB87_7 Depth=3
	movl	$.L.str.335, %edi
	xorl	%eax, %eax
	callq	printf@PLT
	movl	$.L.str.336, %edi
	xorl	%eax, %eax
	callq	printf@PLT
	movl	$.L.str.337, %edi
	xorl	%eax, %eax
	callq	printf@PLT
	movq	(%rbx), %rdi
	callq	getc@PLT
	movl	$.L.str.337, %edi
	xorl	%eax, %eax
	callq	printf@PLT
	movq	(%rbx), %rdi
	callq	getc@PLT
	movl	$.L.str.337, %edi
	xorl	%eax, %eax
	callq	printf@PLT
	movq	(%rbx), %rdi
	callq	getc@PLT
	movl	$.L.str.337, %edi
	xorl	%eax, %eax
	callq	printf@PLT
	movq	(%rbx), %rdi
	callq	getc@PLT
	movl	$.L.str.337, %edi
	xorl	%eax, %eax
	callq	printf@PLT
	movq	(%rbx), %rdi
	callq	getc@PLT
	movl	$.L.str.337, %edi
	xorl	%eax, %eax
	callq	printf@PLT
	movq	(%rbx), %rdi
	callq	getc@PLT
	movl	$.L.str.337, %edi
	xorl	%eax, %eax
	callq	printf@PLT
	movq	(%rbx), %rdi
	callq	getc@PLT
	movl	$.L.str.337, %edi
	xorl	%eax, %eax
	callq	printf@PLT
	movq	(%rbx), %rdi
	callq	getc@PLT
	movl	$.L.str.337, %edi
	xorl	%eax, %eax
	callq	printf@PLT
	movq	(%rbx), %rdi
	callq	getc@PLT
	movl	$.L.str.337, %edi
	xorl	%eax, %eax
	callq	printf@PLT
	movq	(%rbx), %rdi
	callq	getc@PLT
	movl	$.L.str.337, %edi
	xorl	%eax, %eax
	callq	printf@PLT
	movq	(%rbx), %rdi
	callq	getc@PLT
	movl	$.L.str.337, %edi
	xorl	%eax, %eax
	callq	printf@PLT
	movq	(%rbx), %rdi
	callq	getc@PLT
	movl	$.L.str.337, %edi
	xorl	%eax, %eax
	callq	printf@PLT
	movq	(%rbx), %rdi
	callq	getc@PLT
	movl	$.L.str.337, %edi
	xorl	%eax, %eax
	callq	printf@PLT
	movq	(%rbx), %rdi
	callq	getc@PLT
	movl	$.L.str.337, %edi
	xorl	%eax, %eax
	callq	printf@PLT
	movq	(%rbx), %rdi
	callq	getc@PLT
	movl	$.L.str.338, %edi
	xorl	%eax, %eax
	callq	printf@PLT
	movl	$.L.str.339, %edi
	xorl	%eax, %eax
	callq	printf@PLT
	movq	(%rbx), %rdi
	callq	getc@PLT
	cmpl	$67, %eax
	je	.LBB87_7
# %bb.16:                               #   in Loop: Header=BB87_7 Depth=3
	movq	(%rbx), %rdi
	callq	getc@PLT
	cmpl	$17, %eax
	je	.LBB87_7
# %bb.17:                               #   in Loop: Header=BB87_6 Depth=2
	movl	$.L.str.340, %edi
	jmp	.LBB87_6
.LBB87_18:                              #   in Loop: Header=BB87_1 Depth=1
	movl	$.L.str.341, %edi
	xorl	%eax, %eax
	callq	printf@PLT
	movl	$.L.str.92, %edi
	xorl	%eax, %eax
	callq	printf@PLT
	movl	$.L.str.342, %edi
.LBB87_19:                              #   Parent Loop BB87_1 Depth=1
                                        # =>  This Loop Header: Depth=2
                                        #       Child Loop BB87_26 Depth 3
                                        #         Child Loop BB87_27 Depth 4
	xorl	%eax, %eax
	callq	printf@PLT
	movl	$.L.str.343, %edi
	xorl	%eax, %eax
	callq	printf@PLT
	movl	$.L.str.344, %edi
	xorl	%eax, %eax
	callq	printf@PLT
	movq	(%rbx), %rdi
	callq	getc@PLT
	cmpl	$23, %eax
	je	.LBB87_39
# %bb.20:                               #   in Loop: Header=BB87_19 Depth=2
	movq	(%rbx), %rdi
	callq	getc@PLT
	cmpl	$31, %eax
	je	.LBB87_14
# %bb.21:                               #   in Loop: Header=BB87_19 Depth=2
	movq	(%rbx), %rdi
	callq	getc@PLT
	cmpl	$83, %eax
	je	.LBB87_22
# %bb.23:                               #   in Loop: Header=BB87_19 Depth=2
	movq	(%rbx), %rdi
	callq	getc@PLT
	cmpl	$73, %eax
	je	.LBB87_24
# %bb.25:                               #   in Loop: Header=BB87_19 Depth=2
	movl	$.L.str.64, %edi
	xorl	%eax, %eax
	callq	printf@PLT
	movl	$.L.str.65, %edi
	xorl	%eax, %eax
	callq	printf@PLT
	movl	$.L.str.347, %edi
.LBB87_26:                              #   Parent Loop BB87_1 Depth=1
                                        #     Parent Loop BB87_19 Depth=2
                                        # =>    This Loop Header: Depth=3
                                        #         Child Loop BB87_27 Depth 4
	xorl	%eax, %eax
	callq	printf@PLT
.LBB87_27:                              #   Parent Loop BB87_1 Depth=1
                                        #     Parent Loop BB87_19 Depth=2
                                        #       Parent Loop BB87_26 Depth=3
                                        # =>      This Inner Loop Header: Depth=4
	movl	$.L.str.348, %edi
	xorl	%eax, %eax
	callq	printf@PLT
	movl	$.L.str.349, %edi
	xorl	%eax, %eax
	callq	printf@PLT
	movq	(%rbx), %rdi
	callq	getc@PLT
	cmpl	$23, %eax
	je	.LBB87_37
# %bb.28:                               #   in Loop: Header=BB87_27 Depth=4
	movq	(%rbx), %rdi
	callq	getc@PLT
	cmpl	$97, %eax
	je	.LBB87_73
# %bb.29:                               #   in Loop: Header=BB87_27 Depth=4
	movq	(%rbx), %rdi
	callq	getc@PLT
	cmpl	$31, %eax
	je	.LBB87_14
# %bb.30:                               #   in Loop: Header=BB87_27 Depth=4
	movq	(%rbx), %rdi
	callq	getc@PLT
	cmpl	$19, %eax
	je	.LBB87_37
# %bb.31:                               #   in Loop: Header=BB87_27 Depth=4
	movq	(%rbx), %rdi
	callq	getc@PLT
	cmpl	$83, %eax
	je	.LBB87_32
# %bb.33:                               #   in Loop: Header=BB87_27 Depth=4
	movq	(%rbx), %rdi
	callq	getc@PLT
	cmpl	$73, %eax
	je	.LBB87_34
# %bb.35:                               #   in Loop: Header=BB87_27 Depth=4
	movl	$.L.str.352, %edi
	xorl	%eax, %eax
	callq	printf@PLT
	movl	$.L.str.353, %edi
	xorl	%eax, %eax
	callq	printf@PLT
	movl	$.L.str.354, %edi
	movl	$2232, %esi                     # imm = 0x8B8
	xorl	%eax, %eax
	callq	printf@PLT
	movq	(%rbx), %rdi
	callq	getc@PLT
	movl	$.L.str.354, %edi
	movl	$2231, %esi                     # imm = 0x8B7
	xorl	%eax, %eax
	callq	printf@PLT
	movq	(%rbx), %rdi
	callq	getc@PLT
	movl	$.L.str.354, %edi
	movl	$2230, %esi                     # imm = 0x8B6
	xorl	%eax, %eax
	callq	printf@PLT
	movq	(%rbx), %rdi
	callq	getc@PLT
	movl	$.L.str.354, %edi
	movl	$2229, %esi                     # imm = 0x8B5
	xorl	%eax, %eax
	callq	printf@PLT
	movq	(%rbx), %rdi
	callq	getc@PLT
	movl	$.L.str.354, %edi
	movl	$2228, %esi                     # imm = 0x8B4
	xorl	%eax, %eax
	callq	printf@PLT
	movq	(%rbx), %rdi
	callq	getc@PLT
	movl	$.L.str.354, %edi
	movl	$2227, %esi                     # imm = 0x8B3
	xorl	%eax, %eax
	callq	printf@PLT
	movq	(%rbx), %rdi
	callq	getc@PLT
	movl	$.L.str.354, %edi
	movl	$2226, %esi                     # imm = 0x8B2
	xorl	%eax, %eax
	callq	printf@PLT
	movq	(%rbx), %rdi
	callq	getc@PLT
	movl	$.L.str.354, %edi
	movl	$2225, %esi                     # imm = 0x8B1
	xorl	%eax, %eax
	callq	printf@PLT
	movq	(%rbx), %rdi
	callq	getc@PLT
	movl	$.L.str.354, %edi
	movl	$2224, %esi                     # imm = 0x8B0
	xorl	%eax, %eax
	callq	printf@PLT
	movq	(%rbx), %rdi
	callq	getc@PLT
	movl	$.L.str.354, %edi
	movl	$2223, %esi                     # imm = 0x8AF
	xorl	%eax, %eax
	callq	printf@PLT
	movq	(%rbx), %rdi
	callq	getc@PLT
	movl	$.L.str.354, %edi
	movl	$2222, %esi                     # imm = 0x8AE
	xorl	%eax, %eax
	callq	printf@PLT
	movq	(%rbx), %rdi
	callq	getc@PLT
	movl	$.L.str.354, %edi
	movl	$2221, %esi                     # imm = 0x8AD
	xorl	%eax, %eax
	callq	printf@PLT
	movq	(%rbx), %rdi
	callq	getc@PLT
	movl	$.L.str.354, %edi
	movl	$2220, %esi                     # imm = 0x8AC
	xorl	%eax, %eax
	callq	printf@PLT
	movq	(%rbx), %rdi
	callq	getc@PLT
	movl	$.L.str.355, %edi
	xorl	%eax, %eax
	callq	printf@PLT
	xorl	%eax, %eax
	callq	FF_function_176
	movq	(%rbx), %rdi
	callq	getc@PLT
	cmpl	$17, %eax
	je	.LBB87_27
# %bb.36:                               #   in Loop: Header=BB87_26 Depth=3
	movl	$.L.str.356, %edi
	jmp	.LBB87_26
.LBB87_37:                              #   in Loop: Header=BB87_19 Depth=2
	movl	$.L.str.357, %edi
	xorl	%eax, %eax
	callq	printf@PLT
	movl	$.L.str.358, %edi
.LBB87_38:                              #   in Loop: Header=BB87_19 Depth=2
	xorl	%eax, %eax
	callq	printf@PLT
	movl	$.L.str.359, %edi
	xorl	%eax, %eax
	callq	printf@PLT
	movl	$.L.str.360, %edi
	xorl	%eax, %eax
	callq	printf@PLT
	movl	$.L.str.361, %edi
	xorl	%eax, %eax
	callq	printf@PLT
	movl	$.L.str.362, %edi
	jmp	.LBB87_19
.LBB87_32:                              #   in Loop: Header=BB87_19 Depth=2
	movl	$.L.str.350, %edi
	jmp	.LBB87_38
.LBB87_39:                              #   in Loop: Header=BB87_1 Depth=1
	movl	$.L.str.363, %edi
	xorl	%eax, %eax
	callq	printf@PLT
	movl	$.L.str.364, %edi
.LBB87_40:                              #   in Loop: Header=BB87_1 Depth=1
	xorl	%eax, %eax
	callq	printf@PLT
	movl	$.L.str.365, %edi
	xorl	%eax, %eax
	callq	printf@PLT
.LBB87_41:                              #   Parent Loop BB87_1 Depth=1
                                        # =>  This Loop Header: Depth=2
                                        #       Child Loop BB87_46 Depth 3
                                        #         Child Loop BB87_47 Depth 4
                                        #           Child Loop BB87_50 Depth 5
                                        #             Child Loop BB87_55 Depth 6
	movl	$.L.str.366, %edi
	xorl	%eax, %eax
	callq	printf@PLT
	movl	$.L.str.367, %edi
	xorl	%eax, %eax
	callq	printf@PLT
	movq	(%rbx), %rdi
	callq	getc@PLT
	cmpl	$23, %eax
	je	.LBB87_69
# %bb.42:                               #   in Loop: Header=BB87_41 Depth=2
	movq	(%rbx), %rdi
	callq	getc@PLT
	cmpl	$19, %eax
	je	.LBB87_69
# %bb.43:                               #   in Loop: Header=BB87_41 Depth=2
	movq	(%rbx), %rdi
	callq	getc@PLT
	cmpl	$73, %eax
	je	.LBB87_44
# %bb.45:                               #   in Loop: Header=BB87_41 Depth=2
	movl	$.L.str.369, %edi
	xorl	%eax, %eax
	callq	printf@PLT
	movl	$.L.str.370, %edi
.LBB87_46:                              #   Parent Loop BB87_1 Depth=1
                                        #     Parent Loop BB87_41 Depth=2
                                        # =>    This Loop Header: Depth=3
                                        #         Child Loop BB87_47 Depth 4
                                        #           Child Loop BB87_50 Depth 5
                                        #             Child Loop BB87_55 Depth 6
	xorl	%eax, %eax
	callq	printf@PLT
.LBB87_47:                              #   Parent Loop BB87_1 Depth=1
                                        #     Parent Loop BB87_41 Depth=2
                                        #       Parent Loop BB87_46 Depth=3
                                        # =>      This Loop Header: Depth=4
                                        #           Child Loop BB87_50 Depth 5
                                        #             Child Loop BB87_55 Depth 6
	movl	$.L.str.371, %edi
	xorl	%eax, %eax
	callq	printf@PLT
	movl	$.L.str.372, %edi
	xorl	%eax, %eax
	callq	printf@PLT
	movq	(%rbx), %rdi
	callq	getc@PLT
	cmpl	$23, %eax
	je	.LBB87_66
# %bb.48:                               #   in Loop: Header=BB87_47 Depth=4
	movq	(%rbx), %rdi
	callq	getc@PLT
	cmpl	$19, %eax
	je	.LBB87_66
# %bb.49:                               #   in Loop: Header=BB87_47 Depth=4
	movl	$.L.str.373, %edi
	xorl	%eax, %eax
	callq	printf@PLT
	movl	$.L.str.374, %edi
.LBB87_50:                              #   Parent Loop BB87_1 Depth=1
                                        #     Parent Loop BB87_41 Depth=2
                                        #       Parent Loop BB87_46 Depth=3
                                        #         Parent Loop BB87_47 Depth=4
                                        # =>        This Loop Header: Depth=5
                                        #             Child Loop BB87_55 Depth 6
	xorl	%eax, %eax
	callq	printf@PLT
	movl	$.L.str.375, %edi
	xorl	%eax, %eax
	callq	printf@PLT
	movl	$.L.str.376, %edi
	xorl	%eax, %eax
	callq	printf@PLT
	movq	(%rbx), %rdi
	callq	getc@PLT
	cmpl	$23, %eax
	je	.LBB87_63
# %bb.51:                               #   in Loop: Header=BB87_50 Depth=5
	movq	(%rbx), %rdi
	callq	getc@PLT
	cmpl	$97, %eax
	je	.LBB87_73
# %bb.52:                               #   in Loop: Header=BB87_50 Depth=5
	movq	(%rbx), %rdi
	callq	getc@PLT
	cmpl	$73, %eax
	je	.LBB87_53
# %bb.54:                               #   in Loop: Header=BB87_50 Depth=5
	movl	$.L.str.378, %edi
	xorl	%eax, %eax
	callq	printf@PLT
	movl	$.L.str.379, %edi
	xorl	%eax, %eax
	callq	printf@PLT
	.p2align	4, 0x90
.LBB87_55:                              #   Parent Loop BB87_1 Depth=1
                                        #     Parent Loop BB87_41 Depth=2
                                        #       Parent Loop BB87_46 Depth=3
                                        #         Parent Loop BB87_47 Depth=4
                                        #           Parent Loop BB87_50 Depth=5
                                        # =>          This Inner Loop Header: Depth=6
	movl	$.L.str.380, %edi
	xorl	%eax, %eax
	callq	printf@PLT
	movl	$.L.str.381, %edi
	xorl	%eax, %eax
	callq	printf@PLT
	movq	(%rbx), %rdi
	callq	getc@PLT
	cmpl	$97, %eax
	je	.LBB87_73
# %bb.56:                               #   in Loop: Header=BB87_55 Depth=6
	movq	(%rbx), %rdi
	callq	getc@PLT
	cmpl	$31, %eax
	je	.LBB87_14
# %bb.57:                               #   in Loop: Header=BB87_55 Depth=6
	movq	(%rbx), %rdi
	callq	getc@PLT
	cmpl	$19, %eax
	je	.LBB87_62
# %bb.58:                               #   in Loop: Header=BB87_55 Depth=6
	movq	(%rbx), %rdi
	callq	getc@PLT
	cmpl	$73, %eax
	je	.LBB87_59
# %bb.60:                               #   in Loop: Header=BB87_55 Depth=6
	movl	$.L.str.132, %edi
	xorl	%eax, %eax
	callq	printf@PLT
	movl	$.L.str.130, %edi
	xorl	%eax, %eax
	callq	printf@PLT
	movl	$.L.str.128, %edi
	xorl	%eax, %eax
	callq	printf@PLT
	movl	$.L.str.126, %edi
	xorl	%eax, %eax
	callq	printf@PLT
	callq	FF_function_118
	xorps	%xmm0, %xmm0
	xorps	%xmm1, %xmm1
	movb	$2, %al
	callq	FF_function_117
	movl	$.L.str.127, %edi
	xorl	%eax, %eax
	callq	printf@PLT
	movl	$.L.str.129, %edi
	xorl	%eax, %eax
	callq	printf@PLT
	movl	$.L.str.131, %edi
	xorl	%eax, %eax
	callq	printf@PLT
	xorl	%edx, %edx
	xorl	%ecx, %ecx
	xorl	%eax, %eax
	callq	FF_function_112
	movq	(%rbx), %rdi
	callq	getc@PLT
	cmpl	$67, %eax
	je	.LBB87_55
# %bb.61:                               #   in Loop: Header=BB87_55 Depth=6
	movl	$.L.str.38, %edi
	xorl	%eax, %eax
	callq	printf@PLT
	callq	rand@PLT
	jmp	.LBB87_55
.LBB87_62:                              #   in Loop: Header=BB87_50 Depth=5
	movl	$.L.str.383, %edi
	xorl	%eax, %eax
	callq	printf@PLT
	movl	$.L.str.384, %edi
	xorl	%eax, %eax
	callq	printf@PLT
	movl	$.L.str.385, %edi
	jmp	.LBB87_50
.LBB87_63:                              #   in Loop: Header=BB87_47 Depth=4
	movl	$.L.str.386, %edi
	xorl	%eax, %eax
	callq	printf@PLT
	movl	$.L.str.387, %edi
	xorl	%eax, %eax
	callq	printf@PLT
	movq	(%rbx), %rdi
	callq	getc@PLT
	cmpl	$67, %eax
	je	.LBB87_47
# %bb.64:                               #   in Loop: Header=BB87_47 Depth=4
	movq	(%rbx), %rdi
	callq	getc@PLT
	cmpl	$17, %eax
	je	.LBB87_47
# %bb.65:                               #   in Loop: Header=BB87_46 Depth=3
	movl	$.L.str.388, %edi
	jmp	.LBB87_46
.LBB87_66:                              #   in Loop: Header=BB87_41 Depth=2
	movl	$.L.str.389, %edi
	xorl	%eax, %eax
	callq	printf@PLT
	movl	$.L.str.249, %edi
	xorl	%eax, %eax
	callq	printf@PLT
	movl	$.L.str.250, %edi
	xorl	%eax, %eax
	callq	printf@PLT
	movq	(%rbx), %rdi
	callq	getc@PLT
	cmpl	$67, %eax
	je	.LBB87_41
# %bb.67:                               #   in Loop: Header=BB87_41 Depth=2
	movq	(%rbx), %rdi
	callq	getc@PLT
	cmpl	$17, %eax
	je	.LBB87_41
# %bb.68:                               #   in Loop: Header=BB87_41 Depth=2
	xorl	%eax, %eax
	callq	FF_function_101
	jmp	.LBB87_41
.LBB87_69:                              #   in Loop: Header=BB87_1 Depth=1
	movl	$.L.str.390, %edi
	xorl	%eax, %eax
	callq	printf@PLT
	movl	$.L.str.50, %edi
	xorl	%eax, %eax
	callq	printf@PLT
	movl	$.L.str.51, %edi
	xorl	%eax, %eax
	callq	printf@PLT
	movq	(%rbx), %rdi
	callq	getc@PLT
	cmpl	$67, %eax
	je	.LBB87_72
# %bb.70:                               #   in Loop: Header=BB87_1 Depth=1
	movq	(%rbx), %rdi
	callq	getc@PLT
	cmpl	$17, %eax
	je	.LBB87_72
# %bb.71:                               #   in Loop: Header=BB87_1 Depth=1
	movl	$.L.str.391, %edi
	xorl	%eax, %eax
	callq	printf@PLT
.LBB87_72:                              #   in Loop: Header=BB87_1 Depth=1
	movl	$.L.str.328, %edi
	xorl	%eax, %eax
	callq	printf@PLT
	movl	$.L.str.68, %edi
	xorl	%eax, %eax
	callq	printf@PLT
	movl	$.L.str.69, %edi
	xorl	%eax, %eax
	callq	printf@PLT
	jmp	.LBB87_1
.LBB87_22:                              #   in Loop: Header=BB87_1 Depth=1
	movl	$.L.str.345, %edi
	jmp	.LBB87_40
.LBB87_10:
	movl	$.L.str.334, %edi
.LBB87_11:
	xorl	%eax, %eax
	callq	printf@PLT
.LBB87_12:
	movl	$.L.str.392, %edi
	xorl	%eax, %eax
	callq	printf@PLT
	movl	$.L.str.393, %edi
.LBB87_13:
	xorl	%eax, %eax
	callq	printf@PLT
	movl	$.L.str.394, %edi
	xorl	%eax, %eax
	callq	printf@PLT
.LBB87_14:
	xorl	%eax, %eax
	popq	%rbx
	.cfi_def_cfa_offset 8
	retq
.LBB87_34:
	.cfi_def_cfa_offset 16
	movl	$.L.str.351, %edi
	jmp	.LBB87_11
.LBB87_59:
	movl	$.L.str.382, %edi
	jmp	.LBB87_11
.LBB87_4:
	movl	$.L.str.329, %edi
	jmp	.LBB87_13
.LBB87_24:
	movl	$.L.str.346, %edi
	jmp	.LBB87_11
.LBB87_44:
	movl	$.L.str.368, %edi
	jmp	.LBB87_11
.LBB87_53:
	movl	$.L.str.377, %edi
	jmp	.LBB87_11
.LBB87_73:
	movl	$1923, %edi                     # imm = 0x783
	callq	exit@PLT
.Lfunc_end87:
	.size	CF_function_185, .Lfunc_end87-CF_function_185
	.cfi_endproc
                                        # -- End function
	.section	.rodata.cst4,"aM",@progbits,4
	.p2align	2                               # -- Begin function CF_function_186
.LCPI88_0:
	.long	0x4067ae14                      # float 3.61999989
.LCPI88_2:
	.long	0x3f800000                      # float 1
.LCPI88_3:
	.long	0x46173400                      # float 9677
.LCPI88_4:
	.long	0x40f28f5c                      # float 7.57999992
.LCPI88_6:
	.long	0x45bf2800                      # float 6117
	.section	.rodata.cst8,"aM",@progbits,8
	.p2align	3
.LCPI88_1:
	.quad	0x400cf5c280000000              # double 3.619999885559082
.LCPI88_5:
	.quad	0x4010b851eb851eb8              # double 4.1799999999999997
	.text
	.globl	CF_function_186
	.p2align	4, 0x90
	.type	CF_function_186,@function
CF_function_186:                        # @CF_function_186
	.cfi_startproc
# %bb.0:
	pushq	%r14
	.cfi_def_cfa_offset 16
	pushq	%rbx
	.cfi_def_cfa_offset 24
	subq	$24, %rsp
	.cfi_def_cfa_offset 48
	.cfi_offset %rbx, -24
	.cfi_offset %r14, -16
	movl	$.L.str.395, %edi
	xorl	%eax, %eax
	callq	printf@PLT
	movq	stdin@GOTPCREL(%rip), %r14
	movq	(%r14), %rdi
	callq	getc@PLT
	cmpl	$79, %eax
	jne	.LBB88_22
# %bb.1:
	movl	$.L.str.396, %edi
.LBB88_2:                               # =>This Loop Header: Depth=1
                                        #     Child Loop BB88_6 Depth 2
                                        #       Child Loop BB88_12 Depth 3
                                        #         Child Loop BB88_16 Depth 4
                                        #       Child Loop BB88_31 Depth 3
                                        #     Child Loop BB88_37 Depth 2
                                        #       Child Loop BB88_45 Depth 3
                                        #         Child Loop BB88_46 Depth 4
                                        #           Child Loop BB88_54 Depth 5
                                        #             Child Loop BB88_55 Depth 6
                                        #       Child Loop BB88_67 Depth 3
                                        #         Child Loop BB88_77 Depth 4
	xorl	%eax, %eax
	callq	printf@PLT
	movl	$.L.str.397, %edi
	xorl	%eax, %eax
	callq	printf@PLT
	movl	$.L.str.398, %edi
	xorl	%eax, %eax
	callq	printf@PLT
	movq	(%r14), %rdi
	callq	getc@PLT
	cmpl	$97, %eax
	je	.LBB88_91
# %bb.3:                                #   in Loop: Header=BB88_2 Depth=1
	movq	(%r14), %rdi
	callq	getc@PLT
	cmpl	$83, %eax
	je	.LBB88_4
# %bb.5:                                #   in Loop: Header=BB88_2 Depth=1
	movl	$.L.str.400, %edi
	xorl	%eax, %eax
	callq	printf@PLT
	movl	$.L.str.401, %edi
.LBB88_6:                               #   Parent Loop BB88_2 Depth=1
                                        # =>  This Loop Header: Depth=2
                                        #       Child Loop BB88_12 Depth 3
                                        #         Child Loop BB88_16 Depth 4
                                        #       Child Loop BB88_31 Depth 3
	xorl	%eax, %eax
	callq	printf@PLT
	movl	$.L.str.402, %edi
	xorl	%eax, %eax
	callq	printf@PLT
	movl	$.L.str.403, %edi
	xorl	%eax, %eax
	callq	printf@PLT
	movq	(%r14), %rdi
	callq	getc@PLT
	cmpl	$23, %eax
	je	.LBB88_35
# %bb.7:                                #   in Loop: Header=BB88_6 Depth=2
	movq	(%r14), %rdi
	callq	getc@PLT
	cmpl	$31, %eax
	je	.LBB88_24
# %bb.8:                                #   in Loop: Header=BB88_6 Depth=2
	movq	(%r14), %rdi
	callq	getc@PLT
	cmpl	$19, %eax
	je	.LBB88_35
# %bb.9:                                #   in Loop: Header=BB88_6 Depth=2
	movq	(%r14), %rdi
	callq	getc@PLT
	cmpl	$83, %eax
	je	.LBB88_10
# %bb.11:                               #   in Loop: Header=BB88_6 Depth=2
	movl	$.L.str.405, %edi
	xorl	%eax, %eax
	callq	printf@PLT
	movl	$.L.str.406, %edi
	xorl	%eax, %eax
	callq	printf@PLT
	movsd	.LCPI88_1(%rip), %xmm0          # xmm0 = mem[0],zero
	movsd	%xmm0, 16(%rsp)                 # 8-byte Spill
	movss	.LCPI88_0(%rip), %xmm0          # xmm0 = mem[0],zero,zero,zero
	movss	%xmm0, 12(%rsp)                 # 4-byte Spill
	jmp	.LBB88_12
	.p2align	4, 0x90
.LBB88_26:                              #   in Loop: Header=BB88_12 Depth=3
	movl	$.L.str.414, %edi
	xorl	%eax, %eax
	callq	printf@PLT
	movl	$.L.str.62, %edi
	xorl	%eax, %eax
	callq	printf@PLT
	movl	$.L.str.58, %edi
	xorl	%eax, %eax
	callq	printf@PLT
	movl	$.L.str.59, %edi
	xorl	%eax, %eax
	callq	printf@PLT
	movl	$.L.str.60, %edi
	xorl	%eax, %eax
	callq	printf@PLT
	movl	$.L.str.61, %edi
	xorl	%eax, %eax
	callq	printf@PLT
	movl	$.L.str.63, %edi
	xorl	%eax, %eax
	callq	printf@PLT
	movl	$.L.str.415, %edi
	xorl	%eax, %eax
	callq	printf@PLT
	movl	$.L.str.416, %edi
	xorl	%eax, %eax
	callq	printf@PLT
	movq	(%r14), %rdi
	callq	getc@PLT
	movl	$.L.str.416, %edi
	xorl	%eax, %eax
	callq	printf@PLT
	movq	(%r14), %rdi
	callq	getc@PLT
	movl	$.L.str.416, %edi
	xorl	%eax, %eax
	callq	printf@PLT
	movq	(%r14), %rdi
	callq	getc@PLT
	movl	$.L.str.416, %edi
	xorl	%eax, %eax
	callq	printf@PLT
	movq	(%r14), %rdi
	callq	getc@PLT
	movl	$.L.str.416, %edi
	xorl	%eax, %eax
	callq	printf@PLT
	movq	(%r14), %rdi
	callq	getc@PLT
	movl	$.L.str.416, %edi
	xorl	%eax, %eax
	callq	printf@PLT
	movq	(%r14), %rdi
	callq	getc@PLT
	movl	$.L.str.416, %edi
	xorl	%eax, %eax
	callq	printf@PLT
	movq	(%r14), %rdi
	callq	getc@PLT
	movl	$.L.str.416, %edi
	xorl	%eax, %eax
	callq	printf@PLT
	movq	(%r14), %rdi
	callq	getc@PLT
	movl	$.L.str.416, %edi
	xorl	%eax, %eax
	callq	printf@PLT
	movq	(%r14), %rdi
	callq	getc@PLT
	movl	$.L.str.416, %edi
	xorl	%eax, %eax
	callq	printf@PLT
	movq	(%r14), %rdi
	callq	getc@PLT
	movl	$.L.str.416, %edi
	xorl	%eax, %eax
	callq	printf@PLT
	movq	(%r14), %rdi
	callq	getc@PLT
	movl	$.L.str.416, %edi
	xorl	%eax, %eax
	callq	printf@PLT
	movq	(%r14), %rdi
	callq	getc@PLT
	movl	$.L.str.416, %edi
	xorl	%eax, %eax
	callq	printf@PLT
	movq	(%r14), %rdi
	callq	getc@PLT
	movl	$.L.str.416, %edi
	xorl	%eax, %eax
	callq	printf@PLT
	movq	(%r14), %rdi
	callq	getc@PLT
	movl	$.L.str.416, %edi
	xorl	%eax, %eax
	callq	printf@PLT
	movq	(%r14), %rdi
	callq	getc@PLT
	movl	$.L.str.416, %edi
	xorl	%eax, %eax
	callq	printf@PLT
	movq	(%r14), %rdi
	callq	getc@PLT
	movl	$.L.str.416, %edi
	xorl	%eax, %eax
	callq	printf@PLT
	movq	(%r14), %rdi
	callq	getc@PLT
	movl	$.L.str.416, %edi
	xorl	%eax, %eax
	callq	printf@PLT
	movq	(%r14), %rdi
	callq	getc@PLT
	movl	$.L.str.416, %edi
	xorl	%eax, %eax
	callq	printf@PLT
	movq	(%r14), %rdi
	callq	getc@PLT
	movl	$.L.str.417, %edi
	xorl	%eax, %eax
	callq	printf@PLT
	movl	$.L.str.104, %edi
	xorl	%eax, %eax
	callq	printf@PLT
	movl	$.L.str.102, %edi
	xorl	%eax, %eax
	callq	printf@PLT
	movl	$.L.str.100, %edi
	xorl	%eax, %eax
	callq	printf@PLT
	xorl	%esi, %esi
	callq	FF_function_135
	movl	$.L.str.101, %edi
	xorl	%eax, %eax
	callq	printf@PLT
	movl	$.L.str.103, %edi
	xorl	%eax, %eax
	callq	printf@PLT
	movl	$.L.str.105, %edi
	xorl	%eax, %eax
	callq	printf@PLT
	movq	(%r14), %rdi
	callq	getc@PLT
	cmpl	$67, %eax
	jne	.LBB88_27
.LBB88_12:                              #   Parent Loop BB88_2 Depth=1
                                        #     Parent Loop BB88_6 Depth=2
                                        # =>    This Loop Header: Depth=3
                                        #         Child Loop BB88_16 Depth 4
	movl	$.L.str.407, %edi
	movsd	16(%rsp), %xmm0                 # 8-byte Reload
                                        # xmm0 = mem[0],zero
	movb	$1, %al
	callq	printf@PLT
	movl	$.L.str.408, %edi
	xorl	%eax, %eax
	callq	printf@PLT
	movq	(%r14), %rdi
	callq	getc@PLT
	cmpl	$23, %eax
	je	.LBB88_30
# %bb.13:                               #   in Loop: Header=BB88_12 Depth=3
	movq	(%r14), %rdi
	callq	getc@PLT
	cmpl	$97, %eax
	je	.LBB88_91
# %bb.14:                               #   in Loop: Header=BB88_12 Depth=3
	movq	(%r14), %rdi
	callq	getc@PLT
	cmpl	$31, %eax
	je	.LBB88_24
# %bb.15:                               #   in Loop: Header=BB88_12 Depth=3
	movl	$.L.str.37, %edi
	xorl	%eax, %eax
	callq	printf@PLT
	movl	$.L.str.409, %edi
.LBB88_16:                              #   Parent Loop BB88_2 Depth=1
                                        #     Parent Loop BB88_6 Depth=2
                                        #       Parent Loop BB88_12 Depth=3
                                        # =>      This Inner Loop Header: Depth=4
	xorl	%eax, %eax
	callq	printf@PLT
	movl	$.L.str.410, %edi
	xorl	%eax, %eax
	callq	printf@PLT
	movl	$.L.str.45, %edi
	xorl	%eax, %eax
	callq	printf@PLT
	movl	$.L.str.38, %edi
	xorl	%eax, %eax
	callq	printf@PLT
	callq	rand@PLT
	movq	(%r14), %rdi
	callq	getc@PLT
	cmpl	$23, %eax
	je	.LBB88_26
# %bb.17:                               #   in Loop: Header=BB88_16 Depth=4
	movq	(%r14), %rdi
	callq	getc@PLT
	cmpl	$31, %eax
	je	.LBB88_24
# %bb.18:                               #   in Loop: Header=BB88_16 Depth=4
	movq	(%r14), %rdi
	callq	getc@PLT
	cmpl	$19, %eax
	je	.LBB88_26
# %bb.19:                               #   in Loop: Header=BB88_16 Depth=4
	movq	(%r14), %rdi
	callq	getc@PLT
	cmpl	$73, %eax
	je	.LBB88_20
# %bb.25:                               #   in Loop: Header=BB88_16 Depth=4
	movl	$.L.str.412, %edi
	xorl	%eax, %eax
	callq	printf@PLT
	movl	$.L.str.413, %edi
	jmp	.LBB88_16
.LBB88_27:                              #   in Loop: Header=BB88_12 Depth=3
	movq	(%r14), %rdi
	callq	getc@PLT
	cmpl	$17, %eax
	je	.LBB88_29
# %bb.28:                               #   in Loop: Header=BB88_12 Depth=3
	movl	$.L.str.418, %edi
	xorl	%eax, %eax
	callq	printf@PLT
.LBB88_29:                              #   in Loop: Header=BB88_12 Depth=3
	movss	12(%rsp), %xmm1                 # 4-byte Reload
                                        # xmm1 = mem[0],zero,zero,zero
	addss	.LCPI88_2(%rip), %xmm1
	movss	.LCPI88_3(%rip), %xmm0          # xmm0 = mem[0],zero,zero,zero
	ucomiss	%xmm1, %xmm0
	movss	%xmm1, 12(%rsp)                 # 4-byte Spill
	xorps	%xmm0, %xmm0
	cvtss2sd	%xmm1, %xmm0
	movsd	%xmm0, 16(%rsp)                 # 8-byte Spill
	jae	.LBB88_12
.LBB88_30:                              #   in Loop: Header=BB88_6 Depth=2
	movl	$.L.str.419, %edi
	xorl	%eax, %eax
	callq	printf@PLT
	movl	$.L.str.420, %edi
	xorl	%eax, %eax
	callq	printf@PLT
	movl	$.L.str.421, %edi
	.p2align	4, 0x90
.LBB88_31:                              #   Parent Loop BB88_2 Depth=1
                                        #     Parent Loop BB88_6 Depth=2
                                        # =>    This Inner Loop Header: Depth=3
	xorl	%eax, %eax
	callq	printf@PLT
	movl	$.L.str.422, %edi
	xorl	%eax, %eax
	callq	printf@PLT
	movl	$.L.str.423, %edi
	xorl	%eax, %eax
	callq	printf@PLT
	movq	(%r14), %rdi
	callq	getc@PLT
	cmpl	$97, %eax
	je	.LBB88_91
# %bb.32:                               #   in Loop: Header=BB88_31 Depth=3
	movq	(%r14), %rdi
	callq	getc@PLT
	cmpl	$19, %eax
	je	.LBB88_34
# %bb.33:                               #   in Loop: Header=BB88_31 Depth=3
	movl	$.L.str.424, %edi
	xorl	%eax, %eax
	callq	printf@PLT
	movl	$.L.str.425, %edi
	xorl	%eax, %eax
	callq	printf@PLT
	movl	$.L.str.426, %edi
	movl	$2023, %esi                     # imm = 0x7E7
	xorl	%eax, %eax
	callq	printf@PLT
	movq	(%r14), %rdi
	callq	getc@PLT
	movl	$.L.str.426, %edi
	movl	$2031, %esi                     # imm = 0x7EF
	xorl	%eax, %eax
	callq	printf@PLT
	movq	(%r14), %rdi
	callq	getc@PLT
	movl	$.L.str.426, %edi
	movl	$2039, %esi                     # imm = 0x7F7
	xorl	%eax, %eax
	callq	printf@PLT
	movq	(%r14), %rdi
	callq	getc@PLT
	movl	$.L.str.426, %edi
	movl	$2047, %esi                     # imm = 0x7FF
	xorl	%eax, %eax
	callq	printf@PLT
	movq	(%r14), %rdi
	callq	getc@PLT
	movl	$.L.str.426, %edi
	movl	$2055, %esi                     # imm = 0x807
	xorl	%eax, %eax
	callq	printf@PLT
	movq	(%r14), %rdi
	callq	getc@PLT
	movl	$.L.str.427, %edi
	xorl	%eax, %eax
	callq	printf@PLT
	movl	$.L.str.50, %edi
	xorl	%eax, %eax
	callq	printf@PLT
	movl	$.L.str.51, %edi
	xorl	%eax, %eax
	callq	printf@PLT
	movl	$.L.str.428, %edi
	xorl	%eax, %eax
	callq	printf@PLT
	movl	$.L.str.429, %edi
	xorl	%eax, %eax
	callq	printf@PLT
	movq	(%r14), %rdi
	callq	getc@PLT
	movl	$.L.str.429, %edi
	xorl	%eax, %eax
	callq	printf@PLT
	movq	(%r14), %rdi
	callq	getc@PLT
	movl	$.L.str.429, %edi
	xorl	%eax, %eax
	callq	printf@PLT
	movq	(%r14), %rdi
	callq	getc@PLT
	movl	$.L.str.429, %edi
	xorl	%eax, %eax
	callq	printf@PLT
	movq	(%r14), %rdi
	callq	getc@PLT
	movl	$.L.str.429, %edi
	xorl	%eax, %eax
	callq	printf@PLT
	movq	(%r14), %rdi
	callq	getc@PLT
	movl	$.L.str.429, %edi
	xorl	%eax, %eax
	callq	printf@PLT
	movq	(%r14), %rdi
	callq	getc@PLT
	movl	$.L.str.429, %edi
	xorl	%eax, %eax
	callq	printf@PLT
	movq	(%r14), %rdi
	callq	getc@PLT
	movl	$.L.str.429, %edi
	xorl	%eax, %eax
	callq	printf@PLT
	movq	(%r14), %rdi
	callq	getc@PLT
	movl	$.L.str.429, %edi
	xorl	%eax, %eax
	callq	printf@PLT
	movq	(%r14), %rdi
	callq	getc@PLT
	movl	$.L.str.429, %edi
	xorl	%eax, %eax
	callq	printf@PLT
	movq	(%r14), %rdi
	callq	getc@PLT
	movl	$.L.str.429, %edi
	xorl	%eax, %eax
	callq	printf@PLT
	movq	(%r14), %rdi
	callq	getc@PLT
	movl	$.L.str.429, %edi
	xorl	%eax, %eax
	callq	printf@PLT
	movq	(%r14), %rdi
	callq	getc@PLT
	movl	$.L.str.429, %edi
	xorl	%eax, %eax
	callq	printf@PLT
	movq	(%r14), %rdi
	callq	getc@PLT
	movl	$.L.str.429, %edi
	xorl	%eax, %eax
	callq	printf@PLT
	movq	(%r14), %rdi
	callq	getc@PLT
	movl	$.L.str.429, %edi
	xorl	%eax, %eax
	callq	printf@PLT
	movq	(%r14), %rdi
	callq	getc@PLT
	movl	$.L.str.429, %edi
	xorl	%eax, %eax
	callq	printf@PLT
	movq	(%r14), %rdi
	callq	getc@PLT
	movl	$.L.str.430, %edi
	xorl	%eax, %eax
	callq	printf@PLT
	movl	$.L.str.431, %edi
	xorl	%eax, %eax
	callq	printf@PLT
	movl	$.L.str.432, %edi
	jmp	.LBB88_31
.LBB88_34:                              #   in Loop: Header=BB88_6 Depth=2
	movl	$.L.str.433, %edi
	xorl	%eax, %eax
	callq	printf@PLT
	movl	$.L.str.434, %edi
	xorl	%eax, %eax
	callq	printf@PLT
	movl	$.L.str.435, %edi
	jmp	.LBB88_6
	.p2align	4, 0x90
.LBB88_35:                              #   in Loop: Header=BB88_2 Depth=1
	movl	$.L.str.436, %edi
	xorl	%eax, %eax
	callq	printf@PLT
	movl	$.L.str.437, %edi
.LBB88_36:                              #   in Loop: Header=BB88_2 Depth=1
	xorl	%eax, %eax
	callq	printf@PLT
	movl	$.L.str.438, %edi
	xorl	%eax, %eax
	callq	printf@PLT
.LBB88_37:                              #   Parent Loop BB88_2 Depth=1
                                        # =>  This Loop Header: Depth=2
                                        #       Child Loop BB88_45 Depth 3
                                        #         Child Loop BB88_46 Depth 4
                                        #           Child Loop BB88_54 Depth 5
                                        #             Child Loop BB88_55 Depth 6
                                        #       Child Loop BB88_67 Depth 3
                                        #         Child Loop BB88_77 Depth 4
	movl	$.L.str.439, %edi
	xorl	%eax, %eax
	callq	printf@PLT
	movl	$.L.str.440, %edi
	xorl	%eax, %eax
	callq	printf@PLT
	movq	(%r14), %rdi
	callq	getc@PLT
	cmpl	$23, %eax
	je	.LBB88_89
# %bb.38:                               #   in Loop: Header=BB88_37 Depth=2
	movq	(%r14), %rdi
	callq	getc@PLT
	cmpl	$97, %eax
	je	.LBB88_91
# %bb.39:                               #   in Loop: Header=BB88_37 Depth=2
	movq	(%r14), %rdi
	callq	getc@PLT
	cmpl	$19, %eax
	je	.LBB88_89
# %bb.40:                               #   in Loop: Header=BB88_37 Depth=2
	movq	(%r14), %rdi
	callq	getc@PLT
	cmpl	$83, %eax
	je	.LBB88_41
# %bb.42:                               #   in Loop: Header=BB88_37 Depth=2
	movq	(%r14), %rdi
	callq	getc@PLT
	cmpl	$73, %eax
	je	.LBB88_43
# %bb.44:                               #   in Loop: Header=BB88_37 Depth=2
	movl	$.L.str.443, %edi
	xorl	%eax, %eax
	callq	printf@PLT
	movl	$.L.str.444, %edi
	jmp	.LBB88_45
	.p2align	4, 0x90
.LBB88_64:                              #   in Loop: Header=BB88_45 Depth=3
	movl	$.L.str.45, %edi
.LBB88_45:                              #   Parent Loop BB88_2 Depth=1
                                        #     Parent Loop BB88_37 Depth=2
                                        # =>    This Loop Header: Depth=3
                                        #         Child Loop BB88_46 Depth 4
                                        #           Child Loop BB88_54 Depth 5
                                        #             Child Loop BB88_55 Depth 6
	xorl	%eax, %eax
	callq	printf@PLT
.LBB88_46:                              #   Parent Loop BB88_2 Depth=1
                                        #     Parent Loop BB88_37 Depth=2
                                        #       Parent Loop BB88_45 Depth=3
                                        # =>      This Loop Header: Depth=4
                                        #           Child Loop BB88_54 Depth 5
                                        #             Child Loop BB88_55 Depth 6
	movl	$.L.str.445, %edi
	xorl	%eax, %eax
	callq	printf@PLT
	movl	$.L.str.446, %edi
	xorl	%eax, %eax
	callq	printf@PLT
	movq	(%r14), %rdi
	callq	getc@PLT
	cmpl	$23, %eax
	je	.LBB88_65
# %bb.47:                               #   in Loop: Header=BB88_46 Depth=4
	movq	(%r14), %rdi
	callq	getc@PLT
	cmpl	$31, %eax
	je	.LBB88_24
# %bb.48:                               #   in Loop: Header=BB88_46 Depth=4
	movq	(%r14), %rdi
	callq	getc@PLT
	cmpl	$19, %eax
	je	.LBB88_65
# %bb.49:                               #   in Loop: Header=BB88_46 Depth=4
	movq	(%r14), %rdi
	callq	getc@PLT
	cmpl	$83, %eax
	je	.LBB88_50
# %bb.51:                               #   in Loop: Header=BB88_46 Depth=4
	movq	(%r14), %rdi
	callq	getc@PLT
	cmpl	$73, %eax
	je	.LBB88_52
# %bb.53:                               #   in Loop: Header=BB88_46 Depth=4
	movl	$.L.str.449, %edi
	xorl	%eax, %eax
	callq	printf@PLT
	movl	$.L.str.450, %edi
.LBB88_54:                              #   Parent Loop BB88_2 Depth=1
                                        #     Parent Loop BB88_37 Depth=2
                                        #       Parent Loop BB88_45 Depth=3
                                        #         Parent Loop BB88_46 Depth=4
                                        # =>        This Loop Header: Depth=5
                                        #             Child Loop BB88_55 Depth 6
	xorl	%eax, %eax
	callq	printf@PLT
.LBB88_55:                              #   Parent Loop BB88_2 Depth=1
                                        #     Parent Loop BB88_37 Depth=2
                                        #       Parent Loop BB88_45 Depth=3
                                        #         Parent Loop BB88_46 Depth=4
                                        #           Parent Loop BB88_54 Depth=5
                                        # =>          This Inner Loop Header: Depth=6
	movl	$.L.str.451, %edi
	xorl	%eax, %eax
	callq	printf@PLT
	movl	$.L.str.452, %edi
	xorl	%eax, %eax
	callq	printf@PLT
	movq	(%r14), %rdi
	callq	getc@PLT
	cmpl	$23, %eax
	je	.LBB88_62
# %bb.56:                               #   in Loop: Header=BB88_55 Depth=6
	movq	(%r14), %rdi
	callq	getc@PLT
	cmpl	$97, %eax
	je	.LBB88_91
# %bb.57:                               #   in Loop: Header=BB88_55 Depth=6
	movq	(%r14), %rdi
	callq	getc@PLT
	cmpl	$19, %eax
	je	.LBB88_62
# %bb.58:                               #   in Loop: Header=BB88_55 Depth=6
	movq	(%r14), %rdi
	callq	getc@PLT
	cmpl	$83, %eax
	je	.LBB88_59
# %bb.60:                               #   in Loop: Header=BB88_55 Depth=6
	movl	$.L.str.454, %edi
	xorl	%eax, %eax
	callq	printf@PLT
	movq	(%r14), %rdi
	callq	getc@PLT
	cmpl	$17, %eax
	je	.LBB88_55
# %bb.61:                               #   in Loop: Header=BB88_54 Depth=5
	movl	$.L.str.106, %edi
	xorl	%eax, %eax
	callq	printf@PLT
	movl	$.L.str.104, %edi
	xorl	%eax, %eax
	callq	printf@PLT
	movl	$.L.str.102, %edi
	xorl	%eax, %eax
	callq	printf@PLT
	movl	$.L.str.100, %edi
	xorl	%eax, %eax
	callq	printf@PLT
	xorl	%esi, %esi
	callq	FF_function_135
	movl	$.L.str.101, %edi
	xorl	%eax, %eax
	callq	printf@PLT
	movl	$.L.str.103, %edi
	xorl	%eax, %eax
	callq	printf@PLT
	movl	$.L.str.105, %edi
	xorl	%eax, %eax
	callq	printf@PLT
	movl	$.L.str.107, %edi
	xorl	%eax, %eax
	callq	printf@PLT
	movl	$.L.str.118, %edi
	xorl	%eax, %eax
	callq	printf@PLT
	movl	$.L.str.116, %edi
	xorl	%eax, %eax
	callq	printf@PLT
	callq	FF_function_125
	movl	$.L.str.117, %edi
	xorl	%eax, %eax
	callq	printf@PLT
	xorps	%xmm0, %xmm0
	xorl	%esi, %esi
	movb	$1, %al
	callq	FF_function_123
	movl	$.L.str.119, %edi
	jmp	.LBB88_54
	.p2align	4, 0x90
.LBB88_62:                              #   in Loop: Header=BB88_46 Depth=4
	movl	$.L.str.455, %edi
	xorl	%eax, %eax
	callq	printf@PLT
	movl	$.L.str.456, %edi
.LBB88_63:                              #   in Loop: Header=BB88_46 Depth=4
	xorl	%eax, %eax
	callq	printf@PLT
	movl	$.L.str.457, %edi
	xorl	%eax, %eax
	callq	printf@PLT
	movl	$.L.str.458, %edi
	movl	$2429, %esi                     # imm = 0x97D
	xorl	%eax, %eax
	callq	printf@PLT
	movq	(%r14), %rdi
	callq	getc@PLT
	movl	$.L.str.458, %edi
	movl	$2428, %esi                     # imm = 0x97C
	xorl	%eax, %eax
	callq	printf@PLT
	movq	(%r14), %rdi
	callq	getc@PLT
	movl	$.L.str.458, %edi
	movl	$2427, %esi                     # imm = 0x97B
	xorl	%eax, %eax
	callq	printf@PLT
	movq	(%r14), %rdi
	callq	getc@PLT
	movl	$.L.str.458, %edi
	movl	$2426, %esi                     # imm = 0x97A
	xorl	%eax, %eax
	callq	printf@PLT
	movq	(%r14), %rdi
	callq	getc@PLT
	movl	$.L.str.458, %edi
	movl	$2425, %esi                     # imm = 0x979
	xorl	%eax, %eax
	callq	printf@PLT
	movq	(%r14), %rdi
	callq	getc@PLT
	movl	$.L.str.458, %edi
	movl	$2424, %esi                     # imm = 0x978
	xorl	%eax, %eax
	callq	printf@PLT
	movq	(%r14), %rdi
	callq	getc@PLT
	movl	$.L.str.458, %edi
	movl	$2423, %esi                     # imm = 0x977
	xorl	%eax, %eax
	callq	printf@PLT
	movq	(%r14), %rdi
	callq	getc@PLT
	movl	$.L.str.458, %edi
	movl	$2422, %esi                     # imm = 0x976
	xorl	%eax, %eax
	callq	printf@PLT
	movq	(%r14), %rdi
	callq	getc@PLT
	movl	$.L.str.458, %edi
	movl	$2421, %esi                     # imm = 0x975
	xorl	%eax, %eax
	callq	printf@PLT
	movq	(%r14), %rdi
	callq	getc@PLT
	movl	$.L.str.458, %edi
	movl	$2420, %esi                     # imm = 0x974
	xorl	%eax, %eax
	callq	printf@PLT
	movq	(%r14), %rdi
	callq	getc@PLT
	movl	$.L.str.458, %edi
	movl	$2419, %esi                     # imm = 0x973
	xorl	%eax, %eax
	callq	printf@PLT
	movq	(%r14), %rdi
	callq	getc@PLT
	movl	$.L.str.458, %edi
	movl	$2418, %esi                     # imm = 0x972
	xorl	%eax, %eax
	callq	printf@PLT
	movq	(%r14), %rdi
	callq	getc@PLT
	movl	$.L.str.458, %edi
	movl	$2417, %esi                     # imm = 0x971
	xorl	%eax, %eax
	callq	printf@PLT
	movq	(%r14), %rdi
	callq	getc@PLT
	movl	$.L.str.458, %edi
	movl	$2416, %esi                     # imm = 0x970
	xorl	%eax, %eax
	callq	printf@PLT
	movq	(%r14), %rdi
	callq	getc@PLT
	movl	$.L.str.458, %edi
	movl	$2415, %esi                     # imm = 0x96F
	xorl	%eax, %eax
	callq	printf@PLT
	movq	(%r14), %rdi
	callq	getc@PLT
	movl	$.L.str.459, %edi
	xorl	%eax, %eax
	callq	printf@PLT
	movl	$.L.str.460, %edi
	xorl	%eax, %eax
	callq	printf@PLT
	movq	(%r14), %rdi
	callq	getc@PLT
	cmpl	$17, %eax
	je	.LBB88_46
	jmp	.LBB88_64
.LBB88_59:                              #   in Loop: Header=BB88_46 Depth=4
	movl	$.L.str.453, %edi
	jmp	.LBB88_63
.LBB88_65:                              #   in Loop: Header=BB88_37 Depth=2
	movl	$.L.str.461, %edi
	xorl	%eax, %eax
	callq	printf@PLT
	xorl	%r9d, %r9d
	callq	FF_function_139
.LBB88_66:                              #   in Loop: Header=BB88_37 Depth=2
	movl	$.L.str.462, %edi
	xorl	%eax, %eax
	callq	printf@PLT
	movss	.LCPI88_4(%rip), %xmm0          # xmm0 = mem[0],zero,zero,zero
.LBB88_67:                              #   Parent Loop BB88_2 Depth=1
                                        #     Parent Loop BB88_37 Depth=2
                                        # =>    This Loop Header: Depth=3
                                        #         Child Loop BB88_77 Depth 4
	cvtss2sd	%xmm0, %xmm0
	movl	$.L.str.463, %edi
	movsd	%xmm0, 16(%rsp)                 # 8-byte Spill
	movb	$1, %al
	callq	printf@PLT
	movl	$.L.str.464, %edi
	xorl	%eax, %eax
	callq	printf@PLT
	movq	(%r14), %rdi
	callq	getc@PLT
	cmpl	$23, %eax
	je	.LBB88_87
# %bb.68:                               #   in Loop: Header=BB88_67 Depth=3
	movq	(%r14), %rdi
	callq	getc@PLT
	cmpl	$83, %eax
	je	.LBB88_69
# %bb.70:                               #   in Loop: Header=BB88_67 Depth=3
	movq	(%r14), %rdi
	callq	getc@PLT
	cmpl	$73, %eax
	je	.LBB88_71
# %bb.72:                               #   in Loop: Header=BB88_67 Depth=3
	xorl	%edx, %edx
	xorl	%ecx, %ecx
	xorl	%eax, %eax
	callq	FF_function_171
	movl	$.L.str.34, %edi
	xorl	%eax, %eax
	callq	printf@PLT
	callq	rand@PLT
	testl	%eax, %eax
	jle	.LBB88_74
# %bb.73:                               #   in Loop: Header=BB88_67 Depth=3
	callq	rand@PLT
.LBB88_74:                              #   in Loop: Header=BB88_67 Depth=3
	movl	$.L.str.467, %edi
	xorl	%eax, %eax
	callq	printf@PLT
	movl	$.L.str.468, %edi
	xorl	%eax, %eax
	callq	printf@PLT
	movl	$.L.str.469, %edi
	xorl	%eax, %eax
	callq	printf@PLT
	movl	$.L.str.102, %edi
	xorl	%eax, %eax
	callq	printf@PLT
	movl	$.L.str.100, %edi
	xorl	%eax, %eax
	callq	printf@PLT
	xorl	%esi, %esi
	callq	FF_function_135
	movl	$.L.str.101, %edi
	xorl	%eax, %eax
	callq	printf@PLT
	movl	$.L.str.103, %edi
	xorl	%eax, %eax
	callq	printf@PLT
	movl	$.L.str.470, %edi
	xorl	%eax, %eax
	callq	printf@PLT
	movl	$.L.str.471, %edi
	xorl	%eax, %eax
	callq	printf@PLT
	movl	$.L.str.472, %edi
	xorl	%eax, %eax
	callq	printf@PLT
	movl	$.L.str.473, %edi
	xorl	%eax, %eax
	callq	printf@PLT
	movl	$.L.str.474, %edi
	xorl	%eax, %eax
	callq	printf@PLT
	movl	$.L.str.48, %edi
	xorl	%eax, %eax
	callq	printf@PLT
	callq	rand@PLT
	testl	%eax, %eax
	jle	.LBB88_76
# %bb.75:                               #   in Loop: Header=BB88_67 Depth=3
	movl	$.L.str.49, %edi
	xorl	%eax, %eax
	callq	printf@PLT
.LBB88_76:                              #   in Loop: Header=BB88_67 Depth=3
	movl	$.L.str.475, %edi
	xorl	%eax, %eax
	callq	printf@PLT
	movl	$.L.str.476, %edi
	xorl	%eax, %eax
	callq	printf@PLT
	movl	$.L.str.477, %edi
	xorl	%eax, %eax
	callq	printf@PLT
	movq	(%r14), %rdi
	callq	getc@PLT
	movl	$.L.str.477, %edi
	xorl	%eax, %eax
	callq	printf@PLT
	movq	(%r14), %rdi
	callq	getc@PLT
	movl	$.L.str.477, %edi
	xorl	%eax, %eax
	callq	printf@PLT
	movq	(%r14), %rdi
	callq	getc@PLT
	movl	$.L.str.477, %edi
	xorl	%eax, %eax
	callq	printf@PLT
	movq	(%r14), %rdi
	callq	getc@PLT
	movl	$.L.str.477, %edi
	xorl	%eax, %eax
	callq	printf@PLT
	movq	(%r14), %rdi
	callq	getc@PLT
	movl	$.L.str.477, %edi
	xorl	%eax, %eax
	callq	printf@PLT
	movq	(%r14), %rdi
	callq	getc@PLT
	movl	$.L.str.477, %edi
	xorl	%eax, %eax
	callq	printf@PLT
	movq	(%r14), %rdi
	callq	getc@PLT
	movl	$.L.str.477, %edi
	xorl	%eax, %eax
	callq	printf@PLT
	movq	(%r14), %rdi
	callq	getc@PLT
	movl	$.L.str.477, %edi
	xorl	%eax, %eax
	callq	printf@PLT
	movq	(%r14), %rdi
	callq	getc@PLT
	movl	$.L.str.477, %edi
	xorl	%eax, %eax
	callq	printf@PLT
	movq	(%r14), %rdi
	callq	getc@PLT
	movl	$.L.str.477, %edi
	xorl	%eax, %eax
	callq	printf@PLT
	movq	(%r14), %rdi
	callq	getc@PLT
	movl	$.L.str.477, %edi
	xorl	%eax, %eax
	callq	printf@PLT
	movq	(%r14), %rdi
	callq	getc@PLT
	movl	$.L.str.477, %edi
	xorl	%eax, %eax
	callq	printf@PLT
	movq	(%r14), %rdi
	callq	getc@PLT
	movl	$.L.str.477, %edi
	xorl	%eax, %eax
	callq	printf@PLT
	movq	(%r14), %rdi
	callq	getc@PLT
	movl	$.L.str.477, %edi
	xorl	%eax, %eax
	callq	printf@PLT
	movq	(%r14), %rdi
	callq	getc@PLT
	movl	$.L.str.477, %edi
	xorl	%eax, %eax
	callq	printf@PLT
	movq	(%r14), %rdi
	callq	getc@PLT
	movl	$.L.str.477, %edi
	xorl	%eax, %eax
	callq	printf@PLT
	movq	(%r14), %rdi
	callq	getc@PLT
	movl	$.L.str.478, %edi
	xorl	%eax, %eax
	callq	printf@PLT
	movl	$.L.str.479, %edi
	xorl	%eax, %eax
	callq	printf@PLT
	movl	$.L.str.480, %edi
	xorl	%eax, %eax
	callq	printf@PLT
	movl	$2, %ebx
	.p2align	4, 0x90
.LBB88_77:                              #   Parent Loop BB88_2 Depth=1
                                        #     Parent Loop BB88_37 Depth=2
                                        #       Parent Loop BB88_67 Depth=3
                                        # =>      This Inner Loop Header: Depth=4
	movl	$.L.str.481, %edi
	movl	%ebx, %esi
	xorl	%eax, %eax
	callq	printf@PLT
	movl	$.L.str.482, %edi
	xorl	%eax, %eax
	callq	printf@PLT
	movq	(%r14), %rdi
	callq	getc@PLT
	cmpl	$19, %eax
	je	.LBB88_83
# %bb.78:                               #   in Loop: Header=BB88_77 Depth=4
	movq	(%r14), %rdi
	callq	getc@PLT
	cmpl	$83, %eax
	je	.LBB88_81
# %bb.79:                               #   in Loop: Header=BB88_77 Depth=4
	movq	(%r14), %rdi
	callq	getc@PLT
	cmpl	$73, %eax
	je	.LBB88_80
# %bb.82:                               #   in Loop: Header=BB88_77 Depth=4
	movl	$.L.str.485, %edi
	xorl	%eax, %eax
	callq	printf@PLT
	movl	$.L.str.486, %edi
	xorl	%eax, %eax
	callq	printf@PLT
	addl	$1, %ebx
	cmpl	$8998, %ebx                     # imm = 0x2326
	jne	.LBB88_77
.LBB88_83:                              #   in Loop: Header=BB88_67 Depth=3
	movl	$.L.str.487, %edi
	xorl	%eax, %eax
	callq	printf@PLT
	movl	$.L.str.43, %edi
	xorl	%eax, %eax
	callq	printf@PLT
	movl	$.L.str.44, %edi
	jmp	.LBB88_84
.LBB88_81:                              #   in Loop: Header=BB88_67 Depth=3
	movl	$.L.str.483, %edi
.LBB88_84:                              #   in Loop: Header=BB88_67 Depth=3
	xorl	%eax, %eax
	callq	printf@PLT
	movq	(%r14), %rdi
	callq	getc@PLT
	cmpl	$17, %eax
	je	.LBB88_86
# %bb.85:                               #   in Loop: Header=BB88_67 Depth=3
	movl	$.L.str.488, %edi
	xorl	%eax, %eax
	callq	printf@PLT
.LBB88_86:                              #   in Loop: Header=BB88_67 Depth=3
	movsd	16(%rsp), %xmm0                 # 8-byte Reload
                                        # xmm0 = mem[0],zero
	addsd	.LCPI88_5(%rip), %xmm0
	cvtsd2ss	%xmm0, %xmm0
	movss	.LCPI88_6(%rip), %xmm1          # xmm1 = mem[0],zero,zero,zero
	ucomiss	%xmm0, %xmm1
	jae	.LBB88_67
.LBB88_87:                              #   in Loop: Header=BB88_37 Depth=2
	movl	$.L.str.489, %edi
	xorl	%eax, %eax
	callq	printf@PLT
	movl	$.L.str.490, %edi
	jmp	.LBB88_88
.LBB88_50:                              #   in Loop: Header=BB88_37 Depth=2
	movl	$.L.str.447, %edi
	xorl	%eax, %eax
	callq	printf@PLT
	jmp	.LBB88_66
.LBB88_69:                              #   in Loop: Header=BB88_37 Depth=2
	movl	$.L.str.465, %edi
.LBB88_88:                              #   in Loop: Header=BB88_37 Depth=2
	xorl	%eax, %eax
	callq	printf@PLT
	xorl	%eax, %eax
	callq	FF_function_171
	jmp	.LBB88_37
.LBB88_89:                              #   in Loop: Header=BB88_2 Depth=1
	movl	$.L.str.491, %edi
	xorl	%eax, %eax
	callq	printf@PLT
	movl	$.L.str.492, %edi
.LBB88_90:                              #   in Loop: Header=BB88_2 Depth=1
	xorl	%eax, %eax
	callq	printf@PLT
	movl	$.L.str.37, %edi
	jmp	.LBB88_2
.LBB88_10:                              #   in Loop: Header=BB88_2 Depth=1
	movl	$.L.str.404, %edi
	jmp	.LBB88_36
.LBB88_41:                              #   in Loop: Header=BB88_2 Depth=1
	movl	$.L.str.441, %edi
	jmp	.LBB88_90
.LBB88_20:
	movl	$.L.str.411, %edi
	jmp	.LBB88_21
.LBB88_80:
	movl	$.L.str.484, %edi
.LBB88_21:
	xorl	%eax, %eax
	callq	printf@PLT
.LBB88_22:
	movl	$.L.str.493, %edi
	xorl	%eax, %eax
	callq	printf@PLT
	movl	$.L.str.494, %edi
.LBB88_23:
	xorl	%eax, %eax
	callq	printf@PLT
	movl	$.L.str.495, %edi
	xorl	%eax, %eax
	callq	printf@PLT
.LBB88_24:
	xorps	%xmm0, %xmm0
	addq	$24, %rsp
	.cfi_def_cfa_offset 24
	popq	%rbx
	.cfi_def_cfa_offset 16
	popq	%r14
	.cfi_def_cfa_offset 8
	retq
.LBB88_4:
	.cfi_def_cfa_offset 48
	movl	$.L.str.399, %edi
	jmp	.LBB88_23
.LBB88_52:
	movl	$.L.str.448, %edi
	jmp	.LBB88_21
.LBB88_71:
	movl	$.L.str.466, %edi
	jmp	.LBB88_21
.LBB88_43:
	movl	$.L.str.442, %edi
	jmp	.LBB88_21
.LBB88_91:
	movl	$1923, %edi                     # imm = 0x783
	callq	exit@PLT
.Lfunc_end88:
	.size	CF_function_186, .Lfunc_end88-CF_function_186
	.cfi_endproc
                                        # -- End function
	.section	.rodata.cst4,"aM",@progbits,4
	.p2align	2                               # -- Begin function CF_function_187
.LCPI89_0:
	.long	0x45d3908f                      # float 6770.06982
.LCPI89_2:
	.long	0xbf800000                      # float -1
.LCPI89_3:
	.long	0x41000000                      # float 8
	.section	.rodata.cst8,"aM",@progbits,8
	.p2align	3
.LCPI89_1:
	.quad	0x40ba7211e0000000              # double 6770.06982421875
.LCPI89_4:
	.quad	0x40a1e3b340000000              # double 2289.85009765625
.LCPI89_5:
	.quad	0x40a1d6dc40000000              # double 2283.43017578125
.LCPI89_6:
	.quad	0x40a1ca0540000000              # double 2277.01025390625
.LCPI89_7:
	.quad	0x40a1bd2e40000000              # double 2270.59033203125
.LCPI89_8:
	.quad	0x40a1b05740000000              # double 2264.17041015625
.LCPI89_9:
	.quad	0x40a1a38040000000              # double 2257.75048828125
.LCPI89_10:
	.quad	0x40a196a940000000              # double 2251.33056640625
	.text
	.globl	CF_function_187
	.p2align	4, 0x90
	.type	CF_function_187,@function
CF_function_187:                        # @CF_function_187
	.cfi_startproc
# %bb.0:
	pushq	%rbx
	.cfi_def_cfa_offset 16
	subq	$80, %rsp
	.cfi_def_cfa_offset 96
	.cfi_offset %rbx, -16
	movl	$.L.str.496, %edi
	xorl	%eax, %eax
	callq	printf@PLT
	movq	stdin@GOTPCREL(%rip), %rbx
	movq	(%rbx), %rdi
	callq	getc@PLT
	cmpl	$79, %eax
	jne	.LBB89_29
# %bb.1:
	movl	$.L.str.497, %edi
	xorl	%eax, %eax
	callq	printf@PLT
.LBB89_2:                               # =>This Loop Header: Depth=1
                                        #     Child Loop BB89_9 Depth 2
                                        #       Child Loop BB89_10 Depth 3
                                        #         Child Loop BB89_12 Depth 4
                                        #           Child Loop BB89_13 Depth 5
                                        #     Child Loop BB89_22 Depth 2
                                        #       Child Loop BB89_23 Depth 3
                                        #         Child Loop BB89_34 Depth 4
	movl	$.L.str.498, %edi
	xorl	%eax, %eax
	callq	printf@PLT
	movl	$.L.str.50, %edi
	xorl	%eax, %eax
	callq	printf@PLT
	movl	$.L.str.51, %edi
	xorl	%eax, %eax
	callq	printf@PLT
	movq	(%rbx), %rdi
	callq	getc@PLT
	cmpl	$31, %eax
	je	.LBB89_31
# %bb.3:                                #   in Loop: Header=BB89_2 Depth=1
	movq	(%rbx), %rdi
	callq	getc@PLT
	cmpl	$83, %eax
	je	.LBB89_4
# %bb.5:                                #   in Loop: Header=BB89_2 Depth=1
	movb	$1, %al
	callq	FF_function_103
	movq	(%rbx), %rdi
	callq	getc@PLT
	cmpl	$79, %eax
	je	.LBB89_6
# %bb.8:                                #   in Loop: Header=BB89_2 Depth=1
	movl	$.L.str.509, %edi
	xorl	%eax, %eax
	callq	printf@PLT
	movl	$.L.str.510, %edi
	xorl	%eax, %eax
	callq	printf@PLT
	movl	$.L.str.511, %edi
.LBB89_9:                               #   Parent Loop BB89_2 Depth=1
                                        # =>  This Loop Header: Depth=2
                                        #       Child Loop BB89_10 Depth 3
                                        #         Child Loop BB89_12 Depth 4
                                        #           Child Loop BB89_13 Depth 5
	xorl	%eax, %eax
	callq	printf@PLT
.LBB89_10:                              #   Parent Loop BB89_2 Depth=1
                                        #     Parent Loop BB89_9 Depth=2
                                        # =>    This Loop Header: Depth=3
                                        #         Child Loop BB89_12 Depth 4
                                        #           Child Loop BB89_13 Depth 5
	movl	$.L.str.512, %edi
	xorl	%eax, %eax
	callq	printf@PLT
	movl	$.L.str.513, %edi
	xorl	%eax, %eax
	callq	printf@PLT
	movq	(%rbx), %rdi
	callq	getc@PLT
	cmpl	$23, %eax
	je	.LBB89_21
# %bb.11:                               #   in Loop: Header=BB89_10 Depth=3
	movl	$.L.str.37, %edi
	xorl	%eax, %eax
	callq	printf@PLT
	xorl	%edx, %edx
	xorl	%ecx, %ecx
	xorl	%eax, %eax
	callq	FF_function_171
	xorl	%r9d, %r9d
	callq	FF_function_139
	movl	$.L.str.514, %edi
.LBB89_12:                              #   Parent Loop BB89_2 Depth=1
                                        #     Parent Loop BB89_9 Depth=2
                                        #       Parent Loop BB89_10 Depth=3
                                        # =>      This Loop Header: Depth=4
                                        #           Child Loop BB89_13 Depth 5
	xorl	%eax, %eax
	callq	printf@PLT
.LBB89_13:                              #   Parent Loop BB89_2 Depth=1
                                        #     Parent Loop BB89_9 Depth=2
                                        #       Parent Loop BB89_10 Depth=3
                                        #         Parent Loop BB89_12 Depth=4
                                        # =>        This Inner Loop Header: Depth=5
	movl	$.L.str.515, %edi
	xorl	%eax, %eax
	callq	printf@PLT
	movl	$.L.str.516, %edi
	xorl	%eax, %eax
	callq	printf@PLT
	movq	(%rbx), %rdi
	callq	getc@PLT
	cmpl	$23, %eax
	je	.LBB89_19
# %bb.14:                               #   in Loop: Header=BB89_13 Depth=5
	movq	(%rbx), %rdi
	callq	getc@PLT
	cmpl	$97, %eax
	je	.LBB89_55
# %bb.15:                               #   in Loop: Header=BB89_13 Depth=5
	movq	(%rbx), %rdi
	callq	getc@PLT
	cmpl	$31, %eax
	je	.LBB89_31
# %bb.16:                               #   in Loop: Header=BB89_13 Depth=5
	movq	(%rbx), %rdi
	callq	getc@PLT
	cmpl	$19, %eax
	je	.LBB89_19
# %bb.17:                               #   in Loop: Header=BB89_13 Depth=5
	movl	$.L.str.517, %edi
	xorl	%eax, %eax
	callq	printf@PLT
	movl	$.L.str.518, %edi
	xorl	%eax, %eax
	callq	printf@PLT
	movl	$.L.str.519, %edi
	xorl	%eax, %eax
	callq	printf@PLT
	movq	(%rbx), %rdi
	callq	getc@PLT
	movl	$.L.str.519, %edi
	xorl	%eax, %eax
	callq	printf@PLT
	movq	(%rbx), %rdi
	callq	getc@PLT
	movl	$.L.str.519, %edi
	xorl	%eax, %eax
	callq	printf@PLT
	movq	(%rbx), %rdi
	callq	getc@PLT
	movl	$.L.str.519, %edi
	xorl	%eax, %eax
	callq	printf@PLT
	movq	(%rbx), %rdi
	callq	getc@PLT
	movl	$.L.str.519, %edi
	xorl	%eax, %eax
	callq	printf@PLT
	movq	(%rbx), %rdi
	callq	getc@PLT
	movl	$.L.str.519, %edi
	xorl	%eax, %eax
	callq	printf@PLT
	movq	(%rbx), %rdi
	callq	getc@PLT
	movl	$.L.str.519, %edi
	xorl	%eax, %eax
	callq	printf@PLT
	movq	(%rbx), %rdi
	callq	getc@PLT
	movl	$.L.str.519, %edi
	xorl	%eax, %eax
	callq	printf@PLT
	movq	(%rbx), %rdi
	callq	getc@PLT
	movl	$.L.str.519, %edi
	xorl	%eax, %eax
	callq	printf@PLT
	movq	(%rbx), %rdi
	callq	getc@PLT
	movl	$.L.str.519, %edi
	xorl	%eax, %eax
	callq	printf@PLT
	movq	(%rbx), %rdi
	callq	getc@PLT
	movl	$.L.str.519, %edi
	xorl	%eax, %eax
	callq	printf@PLT
	movq	(%rbx), %rdi
	callq	getc@PLT
	movl	$.L.str.519, %edi
	xorl	%eax, %eax
	callq	printf@PLT
	movq	(%rbx), %rdi
	callq	getc@PLT
	movl	$.L.str.519, %edi
	xorl	%eax, %eax
	callq	printf@PLT
	movq	(%rbx), %rdi
	callq	getc@PLT
	movl	$.L.str.520, %edi
	xorl	%eax, %eax
	callq	printf@PLT
	movl	$.L.str.521, %edi
	xorl	%eax, %eax
	callq	printf@PLT
	movq	(%rbx), %rdi
	callq	getc@PLT
	cmpl	$67, %eax
	je	.LBB89_13
# %bb.18:                               #   in Loop: Header=BB89_12 Depth=4
	movl	$.L.str.118, %edi
	xorl	%eax, %eax
	callq	printf@PLT
	movl	$.L.str.116, %edi
	xorl	%eax, %eax
	callq	printf@PLT
	callq	FF_function_125
	movl	$.L.str.117, %edi
	xorl	%eax, %eax
	callq	printf@PLT
	xorps	%xmm0, %xmm0
	xorl	%esi, %esi
	movb	$1, %al
	callq	FF_function_123
	movl	$.L.str.119, %edi
	jmp	.LBB89_12
	.p2align	4, 0x90
.LBB89_19:                              #   in Loop: Header=BB89_10 Depth=3
	movl	$.L.str.522, %edi
	xorl	%eax, %eax
	callq	printf@PLT
	movl	$.L.str.523, %edi
	xorl	%eax, %eax
	callq	printf@PLT
	movq	(%rbx), %rdi
	callq	getc@PLT
	cmpl	$67, %eax
	je	.LBB89_10
# %bb.20:                               #   in Loop: Header=BB89_9 Depth=2
	movl	$.L.str.524, %edi
	jmp	.LBB89_9
.LBB89_21:                              #   in Loop: Header=BB89_2 Depth=1
	movl	$.L.str.525, %edi
	xorl	%eax, %eax
	callq	printf@PLT
	movl	$.L.str.526, %edi
	xorl	%eax, %eax
	callq	printf@PLT
	movl	$.L.str.527, %edi
.LBB89_22:                              #   Parent Loop BB89_2 Depth=1
                                        # =>  This Loop Header: Depth=2
                                        #       Child Loop BB89_23 Depth 3
                                        #         Child Loop BB89_34 Depth 4
	xorl	%eax, %eax
	callq	printf@PLT
.LBB89_23:                              #   Parent Loop BB89_2 Depth=1
                                        #     Parent Loop BB89_22 Depth=2
                                        # =>    This Loop Header: Depth=3
                                        #         Child Loop BB89_34 Depth 4
	movl	$.L.str.528, %edi
	xorl	%eax, %eax
	callq	printf@PLT
	movl	$.L.str.529, %edi
	xorl	%eax, %eax
	callq	printf@PLT
	movq	(%rbx), %rdi
	callq	getc@PLT
	cmpl	$23, %eax
	je	.LBB89_63
# %bb.24:                               #   in Loop: Header=BB89_23 Depth=3
	movq	(%rbx), %rdi
	callq	getc@PLT
	cmpl	$31, %eax
	je	.LBB89_31
# %bb.25:                               #   in Loop: Header=BB89_23 Depth=3
	movq	(%rbx), %rdi
	callq	getc@PLT
	cmpl	$19, %eax
	je	.LBB89_63
# %bb.26:                               #   in Loop: Header=BB89_23 Depth=3
	movq	(%rbx), %rdi
	callq	getc@PLT
	cmpl	$73, %eax
	je	.LBB89_27
# %bb.32:                               #   in Loop: Header=BB89_23 Depth=3
	movl	$.L.str.531, %edi
	xorl	%eax, %eax
	callq	printf@PLT
	movq	(%rbx), %rdi
	callq	getc@PLT
	cmpl	$79, %eax
	jne	.LBB89_59
# %bb.33:                               #   in Loop: Header=BB89_23 Depth=3
	movl	$.L.str.532, %edi
	xorl	%eax, %eax
	callq	printf@PLT
	.p2align	4, 0x90
.LBB89_34:                              #   Parent Loop BB89_2 Depth=1
                                        #     Parent Loop BB89_22 Depth=2
                                        #       Parent Loop BB89_23 Depth=3
                                        # =>      This Inner Loop Header: Depth=4
	movl	$.L.str.533, %edi
	xorl	%eax, %eax
	callq	printf@PLT
	movl	$.L.str.534, %edi
	xorl	%eax, %eax
	callq	printf@PLT
	movq	(%rbx), %rdi
	callq	getc@PLT
	cmpl	$97, %eax
	je	.LBB89_55
# %bb.35:                               #   in Loop: Header=BB89_34 Depth=4
	movq	(%rbx), %rdi
	callq	getc@PLT
	cmpl	$83, %eax
	je	.LBB89_36
# %bb.37:                               #   in Loop: Header=BB89_34 Depth=4
	movq	(%rbx), %rdi
	callq	getc@PLT
	cmpl	$73, %eax
	je	.LBB89_38
# %bb.39:                               #   in Loop: Header=BB89_34 Depth=4
	xorl	%eax, %eax
	callq	FF_function_101
	movq	(%rbx), %rdi
	callq	getc@PLT
	cmpl	$79, %eax
	je	.LBB89_40
# %bb.56:                               #   in Loop: Header=BB89_34 Depth=4
	movl	$.L.str.553, %edi
	xorl	%eax, %eax
	callq	printf@PLT
	movl	$.L.str.554, %edi
	xorl	%eax, %eax
	callq	printf@PLT
	movq	(%rbx), %rdi
	callq	getc@PLT
	cmpl	$67, %eax
	je	.LBB89_34
# %bb.57:                               #   in Loop: Header=BB89_34 Depth=4
	movq	(%rbx), %rdi
	callq	getc@PLT
	cmpl	$17, %eax
	je	.LBB89_34
# %bb.58:                               #   in Loop: Header=BB89_34 Depth=4
	xorl	%eax, %eax
	callq	FF_function_128
	jmp	.LBB89_34
.LBB89_59:                              #   in Loop: Header=BB89_23 Depth=3
	movl	$.L.str.555, %edi
	xorl	%eax, %eax
	callq	printf@PLT
	movl	$.L.str.556, %edi
	jmp	.LBB89_60
.LBB89_36:                              #   in Loop: Header=BB89_23 Depth=3
	movl	$.L.str.535, %edi
.LBB89_60:                              #   in Loop: Header=BB89_23 Depth=3
	xorl	%eax, %eax
	callq	printf@PLT
	movq	(%rbx), %rdi
	callq	getc@PLT
	cmpl	$67, %eax
	je	.LBB89_23
# %bb.61:                               #   in Loop: Header=BB89_23 Depth=3
	movq	(%rbx), %rdi
	callq	getc@PLT
	cmpl	$17, %eax
	je	.LBB89_23
# %bb.62:                               #   in Loop: Header=BB89_22 Depth=2
	movl	$.L.str.557, %edi
	jmp	.LBB89_22
.LBB89_63:                              #   in Loop: Header=BB89_2 Depth=1
	movl	$.L.str.558, %edi
	xorl	%eax, %eax
	callq	printf@PLT
	movl	$.L.str.559, %edi
	xorl	%eax, %eax
	callq	printf@PLT
	movq	(%rbx), %rdi
	callq	getc@PLT
	cmpl	$67, %eax
	je	.LBB89_2
# %bb.64:                               #   in Loop: Header=BB89_2 Depth=1
	movq	(%rbx), %rdi
	callq	getc@PLT
	cmpl	$17, %eax
	je	.LBB89_2
# %bb.65:                               #   in Loop: Header=BB89_2 Depth=1
	callq	FF_function_126
	jmp	.LBB89_2
.LBB89_38:
	movl	$.L.str.536, %edi
	jmp	.LBB89_28
.LBB89_40:
	movl	$.L.str.537, %edi
	xorl	%eax, %eax
	callq	printf@PLT
.LBB89_41:                              # =>This Loop Header: Depth=1
                                        #     Child Loop BB89_46 Depth 2
	movl	$.L.str.538, %edi
	xorl	%eax, %eax
	callq	printf@PLT
	movl	$.L.str.539, %edi
	xorl	%eax, %eax
	callq	printf@PLT
	movq	(%rbx), %rdi
	callq	getc@PLT
	cmpl	$97, %eax
	je	.LBB89_55
# %bb.42:                               #   in Loop: Header=BB89_41 Depth=1
	movq	(%rbx), %rdi
	callq	getc@PLT
	cmpl	$31, %eax
	je	.LBB89_31
# %bb.43:                               #   in Loop: Header=BB89_41 Depth=1
	movq	(%rbx), %rdi
	callq	getc@PLT
	cmpl	$73, %eax
	je	.LBB89_44
# %bb.45:                               #   in Loop: Header=BB89_41 Depth=1
	movl	$.L.str.541, %edi
	xorl	%eax, %eax
	callq	printf@PLT
	movl	$.L.str.542, %edi
	xorl	%eax, %eax
	callq	printf@PLT
	movsd	.LCPI89_1(%rip), %xmm0          # xmm0 = mem[0],zero
	movsd	%xmm0, 72(%rsp)                 # 8-byte Spill
	movss	.LCPI89_0(%rip), %xmm0          # xmm0 = mem[0],zero,zero,zero
	movss	%xmm0, 68(%rsp)                 # 4-byte Spill
	.p2align	4, 0x90
.LBB89_46:                              #   Parent Loop BB89_41 Depth=1
                                        # =>  This Inner Loop Header: Depth=2
	movl	$.L.str.543, %edi
	movsd	72(%rsp), %xmm0                 # 8-byte Reload
                                        # xmm0 = mem[0],zero
	movb	$1, %al
	callq	printf@PLT
	movl	$.L.str.137, %edi
	xorl	%eax, %eax
	callq	printf@PLT
	movl	$.L.str.135, %edi
	xorl	%eax, %eax
	callq	printf@PLT
	callq	FF_function_109
	movl	$.L.str.136, %edi
	xorl	%eax, %eax
	callq	printf@PLT
	movl	$0, 40(%rsp)
	movl	$0, 24(%rsp)
	movl	$0, 16(%rsp)
	movl	$0, 8(%rsp)
	movl	$0, (%rsp)
	xorl	%edi, %edi
	xorl	%r8d, %r8d
	callq	FF_function_129
	movq	(%rbx), %rdi
	callq	getc@PLT
	cmpl	$19, %eax
	je	.LBB89_53
# %bb.47:                               #   in Loop: Header=BB89_46 Depth=2
	movq	(%rbx), %rdi
	callq	getc@PLT
	cmpl	$83, %eax
	je	.LBB89_48
# %bb.49:                               #   in Loop: Header=BB89_46 Depth=2
	movq	(%rbx), %rdi
	callq	getc@PLT
	cmpl	$73, %eax
	je	.LBB89_50
# %bb.51:                               #   in Loop: Header=BB89_46 Depth=2
	movl	$.L.str.64, %edi
	xorl	%eax, %eax
	callq	printf@PLT
	movl	$.L.str.65, %edi
	xorl	%eax, %eax
	callq	printf@PLT
	movq	(%rbx), %rdi
	callq	getc@PLT
	cmpl	$67, %eax
	je	.LBB89_46
# %bb.52:                               #   in Loop: Header=BB89_46 Depth=2
	movl	$.L.str.546, %edi
	xorl	%eax, %eax
	callq	printf@PLT
	movss	68(%rsp), %xmm0                 # 4-byte Reload
                                        # xmm0 = mem[0],zero,zero,zero
	addss	.LCPI89_2(%rip), %xmm0
	ucomiss	.LCPI89_3(%rip), %xmm0
	movss	%xmm0, 68(%rsp)                 # 4-byte Spill
	cvtss2sd	%xmm0, %xmm0
	movsd	%xmm0, 72(%rsp)                 # 8-byte Spill
	ja	.LBB89_46
.LBB89_53:                              #   in Loop: Header=BB89_41 Depth=1
	movl	$.L.str.547, %edi
	xorl	%eax, %eax
	callq	printf@PLT
	movl	$.L.str.548, %edi
	jmp	.LBB89_54
.LBB89_48:                              #   in Loop: Header=BB89_41 Depth=1
	movl	$.L.str.544, %edi
.LBB89_54:                              #   in Loop: Header=BB89_41 Depth=1
	xorl	%eax, %eax
	callq	printf@PLT
	movl	$.L.str.549, %edi
	xorl	%eax, %eax
	callq	printf@PLT
	movl	$.L.str.550, %edi
	movsd	.LCPI89_4(%rip), %xmm0          # xmm0 = mem[0],zero
	movb	$1, %al
	callq	printf@PLT
	movq	(%rbx), %rdi
	callq	getc@PLT
	movl	$.L.str.550, %edi
	movsd	.LCPI89_5(%rip), %xmm0          # xmm0 = mem[0],zero
	movb	$1, %al
	callq	printf@PLT
	movq	(%rbx), %rdi
	callq	getc@PLT
	movl	$.L.str.550, %edi
	movsd	.LCPI89_6(%rip), %xmm0          # xmm0 = mem[0],zero
	movb	$1, %al
	callq	printf@PLT
	movq	(%rbx), %rdi
	callq	getc@PLT
	movl	$.L.str.550, %edi
	movsd	.LCPI89_7(%rip), %xmm0          # xmm0 = mem[0],zero
	movb	$1, %al
	callq	printf@PLT
	movq	(%rbx), %rdi
	callq	getc@PLT
	movl	$.L.str.550, %edi
	movsd	.LCPI89_8(%rip), %xmm0          # xmm0 = mem[0],zero
	movb	$1, %al
	callq	printf@PLT
	movq	(%rbx), %rdi
	callq	getc@PLT
	movl	$.L.str.550, %edi
	movsd	.LCPI89_9(%rip), %xmm0          # xmm0 = mem[0],zero
	movb	$1, %al
	callq	printf@PLT
	movq	(%rbx), %rdi
	callq	getc@PLT
	movl	$.L.str.550, %edi
	movsd	.LCPI89_10(%rip), %xmm0         # xmm0 = mem[0],zero
	movb	$1, %al
	callq	printf@PLT
	movq	(%rbx), %rdi
	callq	getc@PLT
	movl	$.L.str.551, %edi
	xorl	%eax, %eax
	callq	printf@PLT
	movl	$.L.str.552, %edi
	xorl	%eax, %eax
	callq	printf@PLT
	xorps	%xmm0, %xmm0
	xorl	%esi, %esi
	movb	$1, %al
	callq	FF_function_128
	movl	$0, 40(%rsp)
	movl	$0, 24(%rsp)
	movl	$0, 16(%rsp)
	movl	$0, 8(%rsp)
	movl	$0, (%rsp)
	xorl	%edi, %edi
	xorl	%r8d, %r8d
	callq	FF_function_129
	jmp	.LBB89_41
.LBB89_50:
	movl	$.L.str.545, %edi
.LBB89_28:
	xorl	%eax, %eax
	callq	printf@PLT
.LBB89_29:
	movl	$.L.str.560, %edi
	xorl	%eax, %eax
	callq	printf@PLT
	movl	$.L.str.561, %edi
.LBB89_30:
	xorl	%eax, %eax
	callq	printf@PLT
	movl	$.L.str.562, %edi
	xorl	%eax, %eax
	callq	printf@PLT
.LBB89_31:
	xorl	%eax, %eax
	addq	$80, %rsp
	.cfi_def_cfa_offset 16
	popq	%rbx
	.cfi_def_cfa_offset 8
	retq
.LBB89_4:
	.cfi_def_cfa_offset 96
	movl	$.L.str.499, %edi
	jmp	.LBB89_30
.LBB89_6:
	movl	$.L.str.500, %edi
	xorl	%eax, %eax
	callq	printf@PLT
	.p2align	4, 0x90
.LBB89_7:                               # =>This Inner Loop Header: Depth=1
	movl	$.L.str.501, %edi
	xorl	%eax, %eax
	callq	printf@PLT
	movl	$.L.str.502, %edi
	xorl	%eax, %eax
	callq	printf@PLT
	movl	$.L.str.503, %edi
	xorl	%eax, %eax
	callq	printf@PLT
	movl	$.L.str.504, %edi
	xorl	%eax, %eax
	callq	printf@PLT
	movl	$.L.str.505, %edi
	xorl	%eax, %eax
	callq	printf@PLT
	movq	(%rbx), %rdi
	callq	getc@PLT
	movl	$.L.str.505, %edi
	xorl	%eax, %eax
	callq	printf@PLT
	movq	(%rbx), %rdi
	callq	getc@PLT
	movl	$.L.str.505, %edi
	xorl	%eax, %eax
	callq	printf@PLT
	movq	(%rbx), %rdi
	callq	getc@PLT
	movl	$.L.str.505, %edi
	xorl	%eax, %eax
	callq	printf@PLT
	movq	(%rbx), %rdi
	callq	getc@PLT
	movl	$.L.str.505, %edi
	xorl	%eax, %eax
	callq	printf@PLT
	movq	(%rbx), %rdi
	callq	getc@PLT
	movl	$.L.str.505, %edi
	xorl	%eax, %eax
	callq	printf@PLT
	movq	(%rbx), %rdi
	callq	getc@PLT
	movl	$.L.str.505, %edi
	xorl	%eax, %eax
	callq	printf@PLT
	movq	(%rbx), %rdi
	callq	getc@PLT
	movl	$.L.str.505, %edi
	xorl	%eax, %eax
	callq	printf@PLT
	movq	(%rbx), %rdi
	callq	getc@PLT
	movl	$.L.str.505, %edi
	xorl	%eax, %eax
	callq	printf@PLT
	movq	(%rbx), %rdi
	callq	getc@PLT
	movl	$.L.str.505, %edi
	xorl	%eax, %eax
	callq	printf@PLT
	movq	(%rbx), %rdi
	callq	getc@PLT
	movl	$.L.str.505, %edi
	xorl	%eax, %eax
	callq	printf@PLT
	movq	(%rbx), %rdi
	callq	getc@PLT
	movl	$.L.str.505, %edi
	xorl	%eax, %eax
	callq	printf@PLT
	movq	(%rbx), %rdi
	callq	getc@PLT
	movl	$.L.str.505, %edi
	xorl	%eax, %eax
	callq	printf@PLT
	movq	(%rbx), %rdi
	callq	getc@PLT
	movl	$.L.str.505, %edi
	xorl	%eax, %eax
	callq	printf@PLT
	movq	(%rbx), %rdi
	callq	getc@PLT
	movl	$.L.str.505, %edi
	xorl	%eax, %eax
	callq	printf@PLT
	movq	(%rbx), %rdi
	callq	getc@PLT
	movl	$.L.str.505, %edi
	xorl	%eax, %eax
	callq	printf@PLT
	movq	(%rbx), %rdi
	callq	getc@PLT
	movl	$.L.str.505, %edi
	xorl	%eax, %eax
	callq	printf@PLT
	movq	(%rbx), %rdi
	callq	getc@PLT
	movl	$.L.str.505, %edi
	xorl	%eax, %eax
	callq	printf@PLT
	movq	(%rbx), %rdi
	callq	getc@PLT
	movl	$.L.str.505, %edi
	xorl	%eax, %eax
	callq	printf@PLT
	movq	(%rbx), %rdi
	callq	getc@PLT
	movl	$.L.str.505, %edi
	xorl	%eax, %eax
	callq	printf@PLT
	movq	(%rbx), %rdi
	callq	getc@PLT
	movl	$.L.str.505, %edi
	xorl	%eax, %eax
	callq	printf@PLT
	movq	(%rbx), %rdi
	callq	getc@PLT
	movl	$.L.str.506, %edi
	xorl	%eax, %eax
	callq	printf@PLT
	movl	$.L.str.507, %edi
	xorl	%eax, %eax
	callq	printf@PLT
	movl	$.L.str.508, %edi
	xorl	%eax, %eax
	callq	printf@PLT
	jmp	.LBB89_7
.LBB89_27:
	movl	$.L.str.530, %edi
	jmp	.LBB89_28
.LBB89_44:
	movl	$.L.str.540, %edi
	jmp	.LBB89_28
.LBB89_55:
	movl	$1923, %edi                     # imm = 0x783
	callq	exit@PLT
.Lfunc_end89:
	.size	CF_function_187, .Lfunc_end89-CF_function_187
	.cfi_endproc
                                        # -- End function
	.section	.rodata.cst4,"aM",@progbits,4
	.p2align	2                               # -- Begin function CF_function_188
.LCPI90_0:
	.long	0x45f967ae                      # float 7980.95996
.LCPI90_1:
	.long	0x4542bccd                      # float 3115.80005
.LCPI90_3:
	.long	0x40800000                      # float 4
.LCPI90_5:
	.long	0x41000000                      # float 8
	.section	.rodata.cst8,"aM",@progbits,8
	.p2align	3
.LCPI90_2:
	.quad	0xc02de66666666666              # double -14.949999999999999
.LCPI90_4:
	.quad	0xc0108f5c28f5c28f              # double -4.1399999999999997
	.text
	.globl	CF_function_188
	.p2align	4, 0x90
	.type	CF_function_188,@function
CF_function_188:                        # @CF_function_188
	.cfi_startproc
# %bb.0:
	pushq	%rbp
	.cfi_def_cfa_offset 16
	pushq	%rbx
	.cfi_def_cfa_offset 24
	subq	$24, %rsp
	.cfi_def_cfa_offset 48
	.cfi_offset %rbx, -24
	.cfi_offset %rbp, -16
	movl	$.L.str.563, %edi
	xorl	%eax, %eax
	callq	printf@PLT
	movl	$.L.str.564, %edi
	xorl	%eax, %eax
	callq	printf@PLT
	movss	.LCPI90_0(%rip), %xmm0          # xmm0 = mem[0],zero,zero,zero
	movq	stdin@GOTPCREL(%rip), %rbx
.LBB90_1:                               # =>This Loop Header: Depth=1
                                        #     Child Loop BB90_6 Depth 2
                                        #       Child Loop BB90_13 Depth 3
                                        #         Child Loop BB90_17 Depth 4
                                        #           Child Loop BB90_18 Depth 5
	cvtss2sd	%xmm0, %xmm0
	movl	$.L.str.565, %edi
	movsd	%xmm0, 8(%rsp)                  # 8-byte Spill
	movb	$1, %al
	callq	printf@PLT
	movl	$.L.str.566, %edi
	xorl	%eax, %eax
	callq	printf@PLT
	movq	(%rbx), %rdi
	callq	getc@PLT
	cmpl	$97, %eax
	je	.LBB90_56
# %bb.2:                                #   in Loop: Header=BB90_1 Depth=1
	movq	(%rbx), %rdi
	callq	getc@PLT
	cmpl	$31, %eax
	je	.LBB90_55
# %bb.3:                                #   in Loop: Header=BB90_1 Depth=1
	movq	(%rbx), %rdi
	callq	getc@PLT
	cmpl	$83, %eax
	je	.LBB90_4
# %bb.5:                                #   in Loop: Header=BB90_1 Depth=1
	movl	$.L.str.568, %edi
	xorl	%eax, %eax
	callq	printf@PLT
	movl	$.L.str.569, %edi
	xorl	%eax, %eax
	callq	printf@PLT
	movl	$8862, %ebp                     # imm = 0x229E
.LBB90_6:                               #   Parent Loop BB90_1 Depth=1
                                        # =>  This Loop Header: Depth=2
                                        #       Child Loop BB90_13 Depth 3
                                        #         Child Loop BB90_17 Depth 4
                                        #           Child Loop BB90_18 Depth 5
	movl	$.L.str.570, %edi
	movl	%ebp, %esi
	xorl	%eax, %eax
	callq	printf@PLT
	movl	$.L.str.132, %edi
	xorl	%eax, %eax
	callq	printf@PLT
	movl	$.L.str.130, %edi
	xorl	%eax, %eax
	callq	printf@PLT
	movl	$.L.str.128, %edi
	xorl	%eax, %eax
	callq	printf@PLT
	movl	$.L.str.126, %edi
	xorl	%eax, %eax
	callq	printf@PLT
	callq	FF_function_118
	xorps	%xmm0, %xmm0
	xorps	%xmm1, %xmm1
	movb	$2, %al
	callq	FF_function_117
	movl	$.L.str.127, %edi
	xorl	%eax, %eax
	callq	printf@PLT
	movl	$.L.str.129, %edi
	xorl	%eax, %eax
	callq	printf@PLT
	movl	$.L.str.131, %edi
	xorl	%eax, %eax
	callq	printf@PLT
	xorl	%edx, %edx
	xorl	%ecx, %ecx
	xorl	%eax, %eax
	callq	FF_function_112
	movq	(%rbx), %rdi
	callq	getc@PLT
	cmpl	$23, %eax
	je	.LBB90_51
# %bb.7:                                #   in Loop: Header=BB90_6 Depth=2
	movq	(%rbx), %rdi
	callq	getc@PLT
	cmpl	$97, %eax
	je	.LBB90_56
# %bb.8:                                #   in Loop: Header=BB90_6 Depth=2
	movq	(%rbx), %rdi
	callq	getc@PLT
	cmpl	$19, %eax
	je	.LBB90_51
# %bb.9:                                #   in Loop: Header=BB90_6 Depth=2
	movq	(%rbx), %rdi
	callq	getc@PLT
	cmpl	$83, %eax
	je	.LBB90_10
# %bb.12:                               #   in Loop: Header=BB90_6 Depth=2
	movl	$.L.str.572, %edi
	xorl	%eax, %eax
	callq	printf@PLT
	movl	$.L.str.573, %edi
	xorl	%eax, %eax
	callq	printf@PLT
	movss	.LCPI90_1(%rip), %xmm0          # xmm0 = mem[0],zero,zero,zero
.LBB90_13:                              #   Parent Loop BB90_1 Depth=1
                                        #     Parent Loop BB90_6 Depth=2
                                        # =>    This Loop Header: Depth=3
                                        #         Child Loop BB90_17 Depth 4
                                        #           Child Loop BB90_18 Depth 5
	cvtss2sd	%xmm0, %xmm0
	movl	$.L.str.574, %edi
	movsd	%xmm0, 16(%rsp)                 # 8-byte Spill
	movb	$1, %al
	callq	printf@PLT
	movl	$.L.str.575, %edi
	xorl	%eax, %eax
	callq	printf@PLT
	movq	(%rbx), %rdi
	callq	getc@PLT
	cmpl	$97, %eax
	je	.LBB90_56
# %bb.14:                               #   in Loop: Header=BB90_13 Depth=3
	movq	(%rbx), %rdi
	callq	getc@PLT
	cmpl	$31, %eax
	je	.LBB90_55
# %bb.15:                               #   in Loop: Header=BB90_13 Depth=3
	movq	(%rbx), %rdi
	callq	getc@PLT
	cmpl	$19, %eax
	je	.LBB90_50
# %bb.16:                               #   in Loop: Header=BB90_13 Depth=3
	movl	$.L.str.576, %edi
	xorl	%eax, %eax
	callq	printf@PLT
	movl	$.L.str.577, %edi
	.p2align	4, 0x90
.LBB90_17:                              #   Parent Loop BB90_1 Depth=1
                                        #     Parent Loop BB90_6 Depth=2
                                        #       Parent Loop BB90_13 Depth=3
                                        # =>      This Loop Header: Depth=4
                                        #           Child Loop BB90_18 Depth 5
	xorl	%eax, %eax
	callq	printf@PLT
.LBB90_18:                              #   Parent Loop BB90_1 Depth=1
                                        #     Parent Loop BB90_6 Depth=2
                                        #       Parent Loop BB90_13 Depth=3
                                        #         Parent Loop BB90_17 Depth=4
                                        # =>        This Inner Loop Header: Depth=5
	movl	$.L.str.578, %edi
	xorl	%eax, %eax
	callq	printf@PLT
	movl	$.L.str.118, %edi
	xorl	%eax, %eax
	callq	printf@PLT
	movl	$.L.str.116, %edi
	xorl	%eax, %eax
	callq	printf@PLT
	movl	$.L.str.114, %edi
	xorl	%eax, %eax
	callq	printf@PLT
	movl	$.L.str.112, %edi
	xorl	%eax, %eax
	callq	printf@PLT
	movl	$.L.str.110, %edi
	xorl	%eax, %eax
	callq	printf@PLT
	movl	$.L.str.108, %edi
	xorl	%eax, %eax
	callq	printf@PLT
	movl	$.L.str.106, %edi
	xorl	%eax, %eax
	callq	printf@PLT
	movl	$.L.str.104, %edi
	xorl	%eax, %eax
	callq	printf@PLT
	movl	$.L.str.102, %edi
	xorl	%eax, %eax
	callq	printf@PLT
	movl	$.L.str.100, %edi
	xorl	%eax, %eax
	callq	printf@PLT
	movl	$.L.str.98, %edi
	xorl	%eax, %eax
	callq	printf@PLT
	movl	$.L.str.96, %edi
	xorl	%eax, %eax
	callq	printf@PLT
	movl	$.L.str.95, %edi
	xorl	%eax, %eax
	callq	printf@PLT
	movl	$.L.str.62, %edi
	xorl	%eax, %eax
	callq	printf@PLT
	movl	$.L.str.58, %edi
	xorl	%eax, %eax
	callq	printf@PLT
	movl	$.L.str.59, %edi
	xorl	%eax, %eax
	callq	printf@PLT
	movl	$.L.str.60, %edi
	xorl	%eax, %eax
	callq	printf@PLT
	movl	$.L.str.61, %edi
	xorl	%eax, %eax
	callq	printf@PLT
	movl	$.L.str.63, %edi
	xorl	%eax, %eax
	callq	printf@PLT
	callq	FF_function_138
	movl	$.L.str.97, %edi
	xorl	%eax, %eax
	callq	printf@PLT
	movl	$.L.str.99, %edi
	xorl	%eax, %eax
	callq	printf@PLT
	movl	$.L.str.101, %edi
	xorl	%eax, %eax
	callq	printf@PLT
	movl	$.L.str.103, %edi
	xorl	%eax, %eax
	callq	printf@PLT
	movl	$.L.str.105, %edi
	xorl	%eax, %eax
	callq	printf@PLT
	movl	$.L.str.107, %edi
	xorl	%eax, %eax
	callq	printf@PLT
	movl	$.L.str.109, %edi
	xorl	%eax, %eax
	callq	printf@PLT
	callq	rand@PLT
	testl	%eax, %eax
	jle	.LBB90_20
# %bb.19:                               #   in Loop: Header=BB90_18 Depth=5
	movl	$.L.str.111, %edi
	xorl	%eax, %eax
	callq	printf@PLT
.LBB90_20:                              #   in Loop: Header=BB90_18 Depth=5
	xorps	%xmm0, %xmm0
	xorl	%esi, %esi
	movb	$1, %al
	callq	FF_function_128
	callq	rand@PLT
	testl	%eax, %eax
	jle	.LBB90_22
# %bb.21:                               #   in Loop: Header=BB90_18 Depth=5
	movl	$.L.str.113, %edi
	xorl	%eax, %eax
	callq	printf@PLT
.LBB90_22:                              #   in Loop: Header=BB90_18 Depth=5
	movl	$.L.str.115, %edi
	xorl	%eax, %eax
	callq	printf@PLT
	movl	$.L.str.117, %edi
	xorl	%eax, %eax
	callq	printf@PLT
	xorps	%xmm0, %xmm0
	xorl	%esi, %esi
	movb	$1, %al
	callq	FF_function_123
	movl	$.L.str.119, %edi
	xorl	%eax, %eax
	callq	printf@PLT
	movq	(%rbx), %rdi
	callq	getc@PLT
	cmpl	$19, %eax
	je	.LBB90_49
# %bb.23:                               #   in Loop: Header=BB90_18 Depth=5
	movl	$.L.str.579, %edi
	xorl	%eax, %eax
	callq	printf@PLT
	movl	$.L.str.580, %edi
	xorl	%eax, %eax
	callq	printf@PLT
	movl	$.L.str.581, %edi
	movl	$6859, %esi                     # imm = 0x1ACB
	xorl	%eax, %eax
	callq	printf@PLT
	xorl	%eax, %eax
	callq	FF_function_176
	movq	(%rbx), %rdi
	callq	getc@PLT
	cmpl	$23, %eax
	je	.LBB90_47
# %bb.24:                               #   in Loop: Header=BB90_18 Depth=5
	movq	(%rbx), %rdi
	callq	getc@PLT
	cmpl	$31, %eax
	je	.LBB90_55
# %bb.25:                               #   in Loop: Header=BB90_18 Depth=5
	movq	(%rbx), %rdi
	callq	getc@PLT
	cmpl	$19, %eax
	je	.LBB90_47
# %bb.26:                               #   in Loop: Header=BB90_18 Depth=5
	movq	(%rbx), %rdi
	callq	getc@PLT
	cmpl	$73, %eax
	je	.LBB90_52
# %bb.27:                               #   in Loop: Header=BB90_18 Depth=5
	movl	$.L.str.583, %edi
	xorl	%eax, %eax
	callq	printf@PLT
	movq	(%rbx), %rdi
	callq	getc@PLT
	cmpl	$67, %eax
	je	.LBB90_29
# %bb.28:                               #   in Loop: Header=BB90_18 Depth=5
	movl	$.L.str.584, %edi
	xorl	%eax, %eax
	callq	printf@PLT
.LBB90_29:                              #   in Loop: Header=BB90_18 Depth=5
	movl	$.L.str.581, %edi
	movl	$1143, %esi                     # imm = 0x477
	xorl	%eax, %eax
	callq	printf@PLT
	xorl	%eax, %eax
	callq	FF_function_176
	movq	(%rbx), %rdi
	callq	getc@PLT
	cmpl	$23, %eax
	je	.LBB90_47
# %bb.30:                               #   in Loop: Header=BB90_18 Depth=5
	movq	(%rbx), %rdi
	callq	getc@PLT
	cmpl	$31, %eax
	je	.LBB90_55
# %bb.31:                               #   in Loop: Header=BB90_18 Depth=5
	movq	(%rbx), %rdi
	callq	getc@PLT
	cmpl	$19, %eax
	je	.LBB90_47
# %bb.32:                               #   in Loop: Header=BB90_18 Depth=5
	movq	(%rbx), %rdi
	callq	getc@PLT
	cmpl	$73, %eax
	je	.LBB90_52
# %bb.33:                               #   in Loop: Header=BB90_18 Depth=5
	movl	$.L.str.583, %edi
	xorl	%eax, %eax
	callq	printf@PLT
	movq	(%rbx), %rdi
	callq	getc@PLT
	cmpl	$67, %eax
	je	.LBB90_35
# %bb.34:                               #   in Loop: Header=BB90_18 Depth=5
	movl	$.L.str.584, %edi
	xorl	%eax, %eax
	callq	printf@PLT
.LBB90_35:                              #   in Loop: Header=BB90_18 Depth=5
	movl	$.L.str.581, %edi
	movl	$190, %esi
	xorl	%eax, %eax
	callq	printf@PLT
	xorl	%eax, %eax
	callq	FF_function_176
	movq	(%rbx), %rdi
	callq	getc@PLT
	cmpl	$23, %eax
	je	.LBB90_47
# %bb.36:                               #   in Loop: Header=BB90_18 Depth=5
	movq	(%rbx), %rdi
	callq	getc@PLT
	cmpl	$31, %eax
	je	.LBB90_55
# %bb.37:                               #   in Loop: Header=BB90_18 Depth=5
	movq	(%rbx), %rdi
	callq	getc@PLT
	cmpl	$19, %eax
	je	.LBB90_47
# %bb.38:                               #   in Loop: Header=BB90_18 Depth=5
	movq	(%rbx), %rdi
	callq	getc@PLT
	cmpl	$73, %eax
	je	.LBB90_52
# %bb.39:                               #   in Loop: Header=BB90_18 Depth=5
	movl	$.L.str.583, %edi
	xorl	%eax, %eax
	callq	printf@PLT
	movq	(%rbx), %rdi
	callq	getc@PLT
	cmpl	$67, %eax
	je	.LBB90_41
# %bb.40:                               #   in Loop: Header=BB90_18 Depth=5
	movl	$.L.str.584, %edi
	xorl	%eax, %eax
	callq	printf@PLT
.LBB90_41:                              #   in Loop: Header=BB90_18 Depth=5
	movl	$.L.str.581, %edi
	movl	$31, %esi
	xorl	%eax, %eax
	callq	printf@PLT
	xorl	%eax, %eax
	callq	FF_function_176
	movq	(%rbx), %rdi
	callq	getc@PLT
	cmpl	$23, %eax
	je	.LBB90_47
# %bb.42:                               #   in Loop: Header=BB90_18 Depth=5
	movq	(%rbx), %rdi
	callq	getc@PLT
	cmpl	$31, %eax
	je	.LBB90_55
# %bb.43:                               #   in Loop: Header=BB90_18 Depth=5
	movq	(%rbx), %rdi
	callq	getc@PLT
	cmpl	$19, %eax
	je	.LBB90_47
# %bb.44:                               #   in Loop: Header=BB90_18 Depth=5
	movq	(%rbx), %rdi
	callq	getc@PLT
	cmpl	$73, %eax
	je	.LBB90_52
# %bb.45:                               #   in Loop: Header=BB90_18 Depth=5
	movl	$.L.str.583, %edi
	xorl	%eax, %eax
	callq	printf@PLT
	movq	(%rbx), %rdi
	callq	getc@PLT
	cmpl	$67, %eax
	je	.LBB90_47
# %bb.46:                               #   in Loop: Header=BB90_18 Depth=5
	movl	$.L.str.584, %edi
	xorl	%eax, %eax
	callq	printf@PLT
	.p2align	4, 0x90
.LBB90_47:                              #   in Loop: Header=BB90_18 Depth=5
	movl	$.L.str.585, %edi
	xorl	%eax, %eax
	callq	printf@PLT
	movl	$.L.str.586, %edi
	xorl	%eax, %eax
	callq	printf@PLT
	movq	(%rbx), %rdi
	callq	getc@PLT
	cmpl	$67, %eax
	je	.LBB90_18
# %bb.48:                               #   in Loop: Header=BB90_17 Depth=4
	movl	$.L.str.50, %edi
	xorl	%eax, %eax
	callq	printf@PLT
	movl	$.L.str.51, %edi
	jmp	.LBB90_17
	.p2align	4, 0x90
.LBB90_49:                              #   in Loop: Header=BB90_13 Depth=3
	movl	$.L.str.587, %edi
	xorl	%eax, %eax
	callq	printf@PLT
	movl	$.L.str.50, %edi
	xorl	%eax, %eax
	callq	printf@PLT
	movl	$.L.str.51, %edi
	xorl	%eax, %eax
	callq	printf@PLT
	movl	$.L.str.588, %edi
	xorl	%eax, %eax
	callq	printf@PLT
	movsd	16(%rsp), %xmm0                 # 8-byte Reload
                                        # xmm0 = mem[0],zero
	addsd	.LCPI90_2(%rip), %xmm0
	cvtsd2ss	%xmm0, %xmm0
	ucomiss	.LCPI90_3(%rip), %xmm0
	ja	.LBB90_13
.LBB90_50:                              #   in Loop: Header=BB90_6 Depth=2
	movl	$.L.str.589, %edi
	xorl	%eax, %eax
	callq	printf@PLT
	movl	$.L.str.590, %edi
	xorl	%eax, %eax
	callq	printf@PLT
	movl	$.L.str.591, %edi
	xorl	%eax, %eax
	callq	printf@PLT
	movq	(%rbx), %rdi
	callq	getc@PLT
	subl	%eax, %ebp
	cmpl	$7, %ebp
	jg	.LBB90_6
.LBB90_51:                              #   in Loop: Header=BB90_1 Depth=1
	movl	$.L.str.592, %edi
	xorl	%eax, %eax
	callq	printf@PLT
	xorl	%edi, %edi
	xorl	%esi, %esi
	movb	$1, %al
	callq	FF_function_103
	movl	$.L.str.106, %edi
	xorl	%eax, %eax
	callq	printf@PLT
	movl	$.L.str.104, %edi
	xorl	%eax, %eax
	callq	printf@PLT
	movl	$.L.str.102, %edi
	xorl	%eax, %eax
	callq	printf@PLT
	movl	$.L.str.100, %edi
	xorl	%eax, %eax
	callq	printf@PLT
	xorl	%esi, %esi
	callq	FF_function_135
	movl	$.L.str.101, %edi
	xorl	%eax, %eax
	callq	printf@PLT
	movl	$.L.str.103, %edi
	xorl	%eax, %eax
	callq	printf@PLT
	movl	$.L.str.105, %edi
	xorl	%eax, %eax
	callq	printf@PLT
	movl	$.L.str.107, %edi
	jmp	.LBB90_11
.LBB90_10:                              #   in Loop: Header=BB90_1 Depth=1
	movl	$.L.str.571, %edi
.LBB90_11:                              #   in Loop: Header=BB90_1 Depth=1
	xorl	%eax, %eax
	callq	printf@PLT
	movl	$.L.str.593, %edi
	xorl	%eax, %eax
	callq	printf@PLT
	movsd	8(%rsp), %xmm0                  # 8-byte Reload
                                        # xmm0 = mem[0],zero
	addsd	.LCPI90_4(%rip), %xmm0
	cvtsd2ss	%xmm0, %xmm0
	ucomiss	.LCPI90_5(%rip), %xmm0
	jae	.LBB90_1
	jmp	.LBB90_53
.LBB90_52:
	movl	$.L.str.582, %edi
	xorl	%eax, %eax
	callq	printf@PLT
.LBB90_53:
	movl	$.L.str.594, %edi
	xorl	%eax, %eax
	callq	printf@PLT
	movl	$.L.str.595, %edi
.LBB90_54:
	xorl	%eax, %eax
	callq	printf@PLT
	movl	$.L.str.596, %edi
	xorl	%eax, %eax
	callq	printf@PLT
.LBB90_55:
	xorl	%eax, %eax
	addq	$24, %rsp
	.cfi_def_cfa_offset 24
	popq	%rbx
	.cfi_def_cfa_offset 16
	popq	%rbp
	.cfi_def_cfa_offset 8
	retq
.LBB90_4:
	.cfi_def_cfa_offset 48
	movl	$.L.str.567, %edi
	jmp	.LBB90_54
.LBB90_56:
	movl	$1923, %edi                     # imm = 0x783
	callq	exit@PLT
.Lfunc_end90:
	.size	CF_function_188, .Lfunc_end90-CF_function_188
	.cfi_endproc
                                        # -- End function
	.globl	CF_function_189                 # -- Begin function CF_function_189
	.p2align	4, 0x90
	.type	CF_function_189,@function
CF_function_189:                        # @CF_function_189
	.cfi_startproc
# %bb.0:
	pushq	%rbx
	.cfi_def_cfa_offset 16
	.cfi_offset %rbx, -16
	movl	$.L.str.597, %edi
	xorl	%eax, %eax
	callq	printf@PLT
	movl	$.L.str.598, %edi
	xorl	%eax, %eax
	callq	printf@PLT
	movl	$.L.str.599, %edi
	xorl	%eax, %eax
	callq	printf@PLT
	movl	$.L.str.600, %edi
	xorl	%eax, %eax
	callq	printf@PLT
	movq	stdin@GOTPCREL(%rip), %rbx
.LBB91_1:                               # =>This Loop Header: Depth=1
                                        #     Child Loop BB91_8 Depth 2
                                        #       Child Loop BB91_9 Depth 3
	movq	(%rbx), %rdi
	callq	getc@PLT
	cmpl	$23, %eax
	je	.LBB91_17
# %bb.2:                                #   in Loop: Header=BB91_1 Depth=1
	movq	(%rbx), %rdi
	callq	getc@PLT
	cmpl	$97, %eax
	je	.LBB91_20
# %bb.3:                                #   in Loop: Header=BB91_1 Depth=1
	movq	(%rbx), %rdi
	callq	getc@PLT
	cmpl	$31, %eax
	je	.LBB91_19
# %bb.4:                                #   in Loop: Header=BB91_1 Depth=1
	movq	(%rbx), %rdi
	callq	getc@PLT
	cmpl	$19, %eax
	je	.LBB91_17
# %bb.5:                                #   in Loop: Header=BB91_1 Depth=1
	movq	(%rbx), %rdi
	callq	getc@PLT
	cmpl	$83, %eax
	je	.LBB91_6
# %bb.7:                                #   in Loop: Header=BB91_1 Depth=1
	movl	$.L.str.602, %edi
	xorl	%eax, %eax
	callq	printf@PLT
	movl	$.L.str.603, %edi
.LBB91_8:                               #   Parent Loop BB91_1 Depth=1
                                        # =>  This Loop Header: Depth=2
                                        #       Child Loop BB91_9 Depth 3
	xorl	%eax, %eax
	callq	printf@PLT
.LBB91_9:                               #   Parent Loop BB91_1 Depth=1
                                        #     Parent Loop BB91_8 Depth=2
                                        # =>    This Inner Loop Header: Depth=3
	movl	$.L.str.604, %edi
	xorl	%eax, %eax
	callq	printf@PLT
	movl	$.L.str.605, %edi
	xorl	%eax, %eax
	callq	printf@PLT
	movq	(%rbx), %rdi
	callq	getc@PLT
	cmpl	$23, %eax
	je	.LBB91_14
# %bb.10:                               #   in Loop: Header=BB91_9 Depth=3
	movq	(%rbx), %rdi
	callq	getc@PLT
	cmpl	$97, %eax
	je	.LBB91_20
# %bb.11:                               #   in Loop: Header=BB91_9 Depth=3
	movq	(%rbx), %rdi
	callq	getc@PLT
	cmpl	$31, %eax
	je	.LBB91_19
# %bb.12:                               #   in Loop: Header=BB91_9 Depth=3
	movl	$.L.str.104, %edi
	xorl	%eax, %eax
	callq	printf@PLT
	movl	$.L.str.102, %edi
	xorl	%eax, %eax
	callq	printf@PLT
	movl	$.L.str.100, %edi
	xorl	%eax, %eax
	callq	printf@PLT
	xorl	%esi, %esi
	callq	FF_function_135
	movl	$.L.str.101, %edi
	xorl	%eax, %eax
	callq	printf@PLT
	movl	$.L.str.103, %edi
	xorl	%eax, %eax
	callq	printf@PLT
	movl	$.L.str.105, %edi
	xorl	%eax, %eax
	callq	printf@PLT
	movl	$.L.str.606, %edi
	xorl	%eax, %eax
	callq	printf@PLT
	movl	$.L.str.607, %edi
	movl	$2564, %esi                     # imm = 0xA04
	xorl	%eax, %eax
	callq	printf@PLT
	movq	(%rbx), %rdi
	callq	getc@PLT
	movl	$.L.str.607, %edi
	movl	$2563, %esi                     # imm = 0xA03
	xorl	%eax, %eax
	callq	printf@PLT
	movq	(%rbx), %rdi
	callq	getc@PLT
	movl	$.L.str.607, %edi
	movl	$2562, %esi                     # imm = 0xA02
	xorl	%eax, %eax
	callq	printf@PLT
	movq	(%rbx), %rdi
	callq	getc@PLT
	movl	$.L.str.607, %edi
	movl	$2561, %esi                     # imm = 0xA01
	xorl	%eax, %eax
	callq	printf@PLT
	movq	(%rbx), %rdi
	callq	getc@PLT
	movl	$.L.str.607, %edi
	movl	$2560, %esi                     # imm = 0xA00
	xorl	%eax, %eax
	callq	printf@PLT
	movq	(%rbx), %rdi
	callq	getc@PLT
	movl	$.L.str.607, %edi
	movl	$2559, %esi                     # imm = 0x9FF
	xorl	%eax, %eax
	callq	printf@PLT
	movq	(%rbx), %rdi
	callq	getc@PLT
	movl	$.L.str.607, %edi
	movl	$2558, %esi                     # imm = 0x9FE
	xorl	%eax, %eax
	callq	printf@PLT
	movq	(%rbx), %rdi
	callq	getc@PLT
	movl	$.L.str.607, %edi
	movl	$2557, %esi                     # imm = 0x9FD
	xorl	%eax, %eax
	callq	printf@PLT
	movq	(%rbx), %rdi
	callq	getc@PLT
	movl	$.L.str.607, %edi
	movl	$2556, %esi                     # imm = 0x9FC
	xorl	%eax, %eax
	callq	printf@PLT
	movq	(%rbx), %rdi
	callq	getc@PLT
	movl	$.L.str.607, %edi
	movl	$2555, %esi                     # imm = 0x9FB
	xorl	%eax, %eax
	callq	printf@PLT
	movq	(%rbx), %rdi
	callq	getc@PLT
	movl	$.L.str.607, %edi
	movl	$2554, %esi                     # imm = 0x9FA
	xorl	%eax, %eax
	callq	printf@PLT
	movq	(%rbx), %rdi
	callq	getc@PLT
	movl	$.L.str.607, %edi
	movl	$2553, %esi                     # imm = 0x9F9
	xorl	%eax, %eax
	callq	printf@PLT
	movq	(%rbx), %rdi
	callq	getc@PLT
	movl	$.L.str.607, %edi
	movl	$2552, %esi                     # imm = 0x9F8
	xorl	%eax, %eax
	callq	printf@PLT
	movq	(%rbx), %rdi
	callq	getc@PLT
	movl	$.L.str.607, %edi
	movl	$2551, %esi                     # imm = 0x9F7
	xorl	%eax, %eax
	callq	printf@PLT
	movq	(%rbx), %rdi
	callq	getc@PLT
	movl	$.L.str.607, %edi
	movl	$2550, %esi                     # imm = 0x9F6
	xorl	%eax, %eax
	callq	printf@PLT
	movq	(%rbx), %rdi
	callq	getc@PLT
	movl	$.L.str.607, %edi
	movl	$2549, %esi                     # imm = 0x9F5
	xorl	%eax, %eax
	callq	printf@PLT
	movq	(%rbx), %rdi
	callq	getc@PLT
	movl	$.L.str.607, %edi
	movl	$2548, %esi                     # imm = 0x9F4
	xorl	%eax, %eax
	callq	printf@PLT
	movq	(%rbx), %rdi
	callq	getc@PLT
	movl	$.L.str.607, %edi
	movl	$2547, %esi                     # imm = 0x9F3
	xorl	%eax, %eax
	callq	printf@PLT
	movq	(%rbx), %rdi
	callq	getc@PLT
	movl	$.L.str.607, %edi
	movl	$2546, %esi                     # imm = 0x9F2
	xorl	%eax, %eax
	callq	printf@PLT
	movq	(%rbx), %rdi
	callq	getc@PLT
