	.text
	.file	"llvm-link"
	.globl	functie_voor_datastructuren     # -- Begin function functie_voor_datastructuren
	.p2align	4, 0x90
	.type	functie_voor_datastructuren,@function
functie_voor_datastructuren:            # @functie_voor_datastructuren
	.cfi_startproc
# %bb.0:
	pushq	%rbp
	.cfi_def_cfa_offset 16
	.cfi_offset %rbp, -16
	movq	%rsp, %rbp
	.cfi_def_cfa_register %rbp
	subq	$16, %rsp
	movq	%rdi, -8(%rbp)
	movabsq	$.L.str, %rdi
	movb	$0, %al
	callq	printf@PLT
	movq	-8(%rbp), %rax
	movl	$0, (%rax)
	movq	-8(%rbp), %rax
	xorps	%xmm0, %xmm0
	movss	%xmm0, 4(%rax)
	movq	-8(%rbp), %rax
	movq	$0, 8(%rax)
	movabsq	$.L.str.1, %rdi
	movb	$0, %al
	callq	printf@PLT
	addq	$16, %rsp
	popq	%rbp
	.cfi_def_cfa %rsp, 8
	retq
.Lfunc_end0:
	.size	functie_voor_datastructuren, .Lfunc_end0-functie_voor_datastructuren
	.cfi_endproc
                                        # -- End function
	.globl	FF_function_88                  # -- Begin function FF_function_88
	.p2align	4, 0x90
	.type	FF_function_88,@function
FF_function_88:                         # @FF_function_88
	.cfi_startproc
# %bb.0:
	pushq	%rbp
	.cfi_def_cfa_offset 16
	.cfi_offset %rbp, -16
	movq	%rsp, %rbp
	.cfi_def_cfa_register %rbp
	subq	$48, %rsp
	movw	%di, -2(%rbp)
	movq	%rsi, -40(%rbp)
	movq	%rdx, -32(%rbp)
	movl	$.L.str.2, %edi
	xorl	%eax, %eax
	callq	printf@PLT
	movl	$.L.str.1.3, %edi
	xorl	%eax, %eax
	callq	printf@PLT
	movl	$0, -24(%rbp)
	movl	$1056964608, -20(%rbp)          # imm = 0x3F000000
	movq	$0, -16(%rbp)
	movq	-24(%rbp), %rax
	movq	-16(%rbp), %rdx
	addq	$48, %rsp
	popq	%rbp
	.cfi_def_cfa %rsp, 8
	retq
.Lfunc_end1:
	.size	FF_function_88, .Lfunc_end1-FF_function_88
	.cfi_endproc
                                        # -- End function
	.globl	FF_function_89                  # -- Begin function FF_function_89
	.p2align	4, 0x90
	.type	FF_function_89,@function
FF_function_89:                         # @FF_function_89
	.cfi_startproc
# %bb.0:
	pushq	%rbp
	.cfi_def_cfa_offset 16
	.cfi_offset %rbp, -16
	movq	%rsp, %rbp
	.cfi_def_cfa_register %rbp
	subq	$32, %rsp
	movq	%rdi, -24(%rbp)
	movl	$.L.str.2.4, %edi
	xorl	%eax, %eax
	callq	printf@PLT
	movl	$.L.str.3, %edi
	xorl	%eax, %eax
	callq	printf@PLT
	movl	$0, -16(%rbp)
	movl	$1056964608, -12(%rbp)          # imm = 0x3F000000
	movq	$0, -8(%rbp)
	movq	-16(%rbp), %rax
	movq	-8(%rbp), %rdx
	addq	$32, %rsp
	popq	%rbp
	.cfi_def_cfa %rsp, 8
	retq
.Lfunc_end2:
	.size	FF_function_89, .Lfunc_end2-FF_function_89
	.cfi_endproc
                                        # -- End function
	.globl	FF_function_90                  # -- Begin function FF_function_90
	.p2align	4, 0x90
	.type	FF_function_90,@function
FF_function_90:                         # @FF_function_90
	.cfi_startproc
# %bb.0:
	pushq	%rbp
	.cfi_def_cfa_offset 16
	.cfi_offset %rbp, -16
	movq	%rsp, %rbp
	.cfi_def_cfa_register %rbp
	subq	$48, %rsp
	movw	%di, -2(%rbp)
	movq	%rsi, -40(%rbp)
	movq	%rdx, -32(%rbp)
	movl	$.L.str.4, %edi
	xorl	%eax, %eax
	callq	printf@PLT
	movl	$.L.str.5, %edi
	xorl	%eax, %eax
	callq	printf@PLT
	movl	$0, -24(%rbp)
	movl	$1056964608, -20(%rbp)          # imm = 0x3F000000
	movq	$0, -16(%rbp)
	movq	-24(%rbp), %rax
	movq	-16(%rbp), %rdx
	addq	$48, %rsp
	popq	%rbp
	.cfi_def_cfa %rsp, 8
	retq
.Lfunc_end3:
	.size	FF_function_90, .Lfunc_end3-FF_function_90
	.cfi_endproc
                                        # -- End function
	.globl	FF_function_91                  # -- Begin function FF_function_91
	.p2align	4, 0x90
	.type	FF_function_91,@function
FF_function_91:                         # @FF_function_91
	.cfi_startproc
# %bb.0:
	pushq	%rbp
	.cfi_def_cfa_offset 16
	.cfi_offset %rbp, -16
	movq	%rsp, %rbp
	.cfi_def_cfa_register %rbp
	subq	$32, %rsp
	movw	%di, -2(%rbp)
	movq	%rsi, -32(%rbp)
	movl	$.L.str.6, %edi
	xorl	%eax, %eax
	callq	printf@PLT
	movl	$.L.str.7, %edi
	xorl	%eax, %eax
	callq	printf@PLT
	movl	$0, -24(%rbp)
	movl	$1056964608, -20(%rbp)          # imm = 0x3F000000
	movq	$0, -16(%rbp)
	movq	-24(%rbp), %rax
	movq	-16(%rbp), %rdx
	addq	$32, %rsp
	popq	%rbp
	.cfi_def_cfa %rsp, 8
	retq
.Lfunc_end4:
	.size	FF_function_91, .Lfunc_end4-FF_function_91
	.cfi_endproc
                                        # -- End function
	.globl	FF_function_92                  # -- Begin function FF_function_92
	.p2align	4, 0x90
	.type	FF_function_92,@function
FF_function_92:                         # @FF_function_92
	.cfi_startproc
# %bb.0:
	pushq	%rbp
	.cfi_def_cfa_offset 16
	.cfi_offset %rbp, -16
	movq	%rsp, %rbp
	.cfi_def_cfa_register %rbp
	subq	$32, %rsp
	movq	%rdi, -24(%rbp)
	movl	$.L.str.8, %edi
	xorl	%eax, %eax
	callq	printf@PLT
	movl	$.L.str.9, %edi
	xorl	%eax, %eax
	callq	printf@PLT
	movl	$0, -16(%rbp)
	movl	$1056964608, -12(%rbp)          # imm = 0x3F000000
	movq	$0, -8(%rbp)
	movq	-16(%rbp), %rax
	movq	-8(%rbp), %rdx
	addq	$32, %rsp
	popq	%rbp
	.cfi_def_cfa %rsp, 8
	retq
.Lfunc_end5:
	.size	FF_function_92, .Lfunc_end5-FF_function_92
	.cfi_endproc
                                        # -- End function
	.globl	FF_function_93                  # -- Begin function FF_function_93
	.p2align	4, 0x90
	.type	FF_function_93,@function
FF_function_93:                         # @FF_function_93
	.cfi_startproc
# %bb.0:
	pushq	%rbp
	.cfi_def_cfa_offset 16
	.cfi_offset %rbp, -16
	movq	%rsp, %rbp
	.cfi_def_cfa_register %rbp
	subq	$32, %rsp
	movq	%rdi, -32(%rbp)
	movq	%rsi, -24(%rbp)
	movl	$.L.str.10, %edi
	xorl	%eax, %eax
	callq	printf@PLT
	movl	$.L.str.11, %edi
	xorl	%eax, %eax
	callq	printf@PLT
	movl	$0, -16(%rbp)
	movl	$1056964608, -12(%rbp)          # imm = 0x3F000000
	movq	$0, -8(%rbp)
	movq	-16(%rbp), %rax
	movq	-8(%rbp), %rdx
	addq	$32, %rsp
	popq	%rbp
	.cfi_def_cfa %rsp, 8
	retq
.Lfunc_end6:
	.size	FF_function_93, .Lfunc_end6-FF_function_93
	.cfi_endproc
                                        # -- End function
	.globl	FF_function_94                  # -- Begin function FF_function_94
	.p2align	4, 0x90
	.type	FF_function_94,@function
FF_function_94:                         # @FF_function_94
	.cfi_startproc
# %bb.0:
	pushq	%rbp
	.cfi_def_cfa_offset 16
	.cfi_offset %rbp, -16
	movq	%rsp, %rbp
	.cfi_def_cfa_register %rbp
	subq	$64, %rsp
	movq	16(%rbp), %rax
	movq	%rdi, -64(%rbp)
	movss	%xmm0, -28(%rbp)
	movb	%sil, -3(%rbp)
	movq	%rdx, -56(%rbp)
	movw	%cx, -6(%rbp)
	movb	%r8b, -2(%rbp)
	movb	%r9b, -1(%rbp)
	movsd	%xmm1, -48(%rbp)
	movsd	%xmm2, -40(%rbp)
	movl	$.L.str.12, %edi
	xorl	%eax, %eax
	callq	printf@PLT
	movl	$.L.str.13, %edi
	xorl	%eax, %eax
	callq	printf@PLT
	movl	$0, -24(%rbp)
	movl	$1056964608, -20(%rbp)          # imm = 0x3F000000
	movq	$0, -16(%rbp)
	movq	-24(%rbp), %rax
	movq	-16(%rbp), %rdx
	addq	$64, %rsp
	popq	%rbp
	.cfi_def_cfa %rsp, 8
	retq
.Lfunc_end7:
	.size	FF_function_94, .Lfunc_end7-FF_function_94
	.cfi_endproc
                                        # -- End function
	.globl	FF_function_95                  # -- Begin function FF_function_95
	.p2align	4, 0x90
	.type	FF_function_95,@function
FF_function_95:                         # @FF_function_95
	.cfi_startproc
# %bb.0:
	pushq	%rbp
	.cfi_def_cfa_offset 16
	.cfi_offset %rbp, -16
	movq	%rsp, %rbp
	.cfi_def_cfa_register %rbp
	subq	$32, %rsp
	movq	%rdi, -32(%rbp)
	movw	%si, -2(%rbp)
	movl	$.L.str.14, %edi
	xorl	%eax, %eax
	callq	printf@PLT
	movl	$.L.str.15, %edi
	xorl	%eax, %eax
	callq	printf@PLT
	movl	$0, -24(%rbp)
	movl	$1056964608, -20(%rbp)          # imm = 0x3F000000
	movq	$0, -16(%rbp)
	movq	-24(%rbp), %rax
	movq	-16(%rbp), %rdx
	addq	$32, %rsp
	popq	%rbp
	.cfi_def_cfa %rsp, 8
	retq
.Lfunc_end8:
	.size	FF_function_95, .Lfunc_end8-FF_function_95
	.cfi_endproc
                                        # -- End function
	.globl	FF_function_96                  # -- Begin function FF_function_96
	.p2align	4, 0x90
	.type	FF_function_96,@function
FF_function_96:                         # @FF_function_96
	.cfi_startproc
# %bb.0:
	pushq	%rbp
	.cfi_def_cfa_offset 16
	.cfi_offset %rbp, -16
	movq	%rsp, %rbp
	.cfi_def_cfa_register %rbp
	subq	$32, %rsp
	movw	%di, -2(%rbp)
	movss	%xmm0, -28(%rbp)
	movl	$.L.str.16, %edi
	xorl	%eax, %eax
	callq	printf@PLT
	movl	$.L.str.17, %edi
	xorl	%eax, %eax
	callq	printf@PLT
	movl	$0, -24(%rbp)
	movl	$1056964608, -20(%rbp)          # imm = 0x3F000000
	movq	$0, -16(%rbp)
	movq	-24(%rbp), %rax
	movq	-16(%rbp), %rdx
	addq	$32, %rsp
	popq	%rbp
	.cfi_def_cfa %rsp, 8
	retq
.Lfunc_end9:
	.size	FF_function_96, .Lfunc_end9-FF_function_96
	.cfi_endproc
                                        # -- End function
	.globl	FF_function_97                  # -- Begin function FF_function_97
	.p2align	4, 0x90
	.type	FF_function_97,@function
FF_function_97:                         # @FF_function_97
	.cfi_startproc
# %bb.0:
	pushq	%rbp
	.cfi_def_cfa_offset 16
	.cfi_offset %rbp, -16
	movq	%rsp, %rbp
	.cfi_def_cfa_register %rbp
	subq	$48, %rsp
	movsd	%xmm0, -40(%rbp)
	movw	%di, -6(%rbp)
	movss	%xmm1, -32(%rbp)
	movw	%si, -4(%rbp)
	movw	%dx, -2(%rbp)
	movss	%xmm2, -28(%rbp)
	movl	$.L.str.18, %edi
	xorl	%eax, %eax
	callq	printf@PLT
	movl	$.L.str.19, %edi
	xorl	%eax, %eax
	callq	printf@PLT
	movl	$0, -24(%rbp)
	movl	$1056964608, -20(%rbp)          # imm = 0x3F000000
	movq	$0, -16(%rbp)
	movq	-24(%rbp), %rax
	movq	-16(%rbp), %rdx
	addq	$48, %rsp
	popq	%rbp
	.cfi_def_cfa %rsp, 8
	retq
.Lfunc_end10:
	.size	FF_function_97, .Lfunc_end10-FF_function_97
	.cfi_endproc
                                        # -- End function
	.globl	FF_function_99                  # -- Begin function FF_function_99
	.p2align	4, 0x90
	.type	FF_function_99,@function
FF_function_99:                         # @FF_function_99
	.cfi_startproc
# %bb.0:
	pushq	%rbp
	.cfi_def_cfa_offset 16
	.cfi_offset %rbp, -16
	movq	%rsp, %rbp
	.cfi_def_cfa_register %rbp
	subq	$272, %rsp                      # imm = 0x110
	testb	%al, %al
	je	.LBB11_5
# %bb.4:
	movaps	%xmm0, -224(%rbp)
	movaps	%xmm1, -208(%rbp)
	movaps	%xmm2, -192(%rbp)
	movaps	%xmm3, -176(%rbp)
	movaps	%xmm4, -160(%rbp)
	movaps	%xmm5, -144(%rbp)
	movaps	%xmm6, -128(%rbp)
	movaps	%xmm7, -112(%rbp)
.LBB11_5:
	movq	%r9, -232(%rbp)
	movq	%r8, -240(%rbp)
	movq	%rcx, -248(%rbp)
	movq	%rdx, -256(%rbp)
	movq	%rsi, -264(%rbp)
	movb	%dil, -1(%rbp)
	movabsq	$.L.str.20, %rdi
	movb	$0, %al
	callq	printf@PLT
	leaq	-64(%rbp), %rax
	leaq	-272(%rbp), %rcx
	movq	%rcx, 16(%rax)
	leaq	16(%rbp), %rcx
	movq	%rcx, 8(%rax)
	movl	$48, 4(%rax)
	movl	$8, (%rax)
	leaq	-64(%rbp), %rcx
	movl	-64(%rbp), %edx
	cmpl	$32, %edx
	ja	.LBB11_2
# %bb.1:
	movslq	%edx, %rax
	addq	16(%rcx), %rax
	addl	$16, %edx
	movl	%edx, (%rcx)
	jmp	.LBB11_3
.LBB11_2:
	movq	8(%rcx), %rax
	movq	%rax, %rdx
	addq	$16, %rdx
	movq	%rdx, 8(%rcx)
.LBB11_3:
	movups	(%rax), %xmm0
	movaps	%xmm0, -32(%rbp)
	xorl	%edi, %edi
	movl	$1, %esi
	xorl	%eax, %eax
	callq	FF_function_99
	movq	%rax, -96(%rbp)
	movq	%rdx, -88(%rbp)
	xorl	%edi, %edi
	movl	$1, %esi
	movl	$2, %edx
	movl	$3, %ecx
	xorl	%eax, %eax
	callq	FF_function_99
	movq	%rax, -80(%rbp)
	movq	%rdx, -72(%rbp)
	movl	$.L.str.21, %edi
	xorl	%eax, %eax
	callq	printf@PLT
	movq	-32(%rbp), %rax
	movq	-24(%rbp), %rdx
	addq	$272, %rsp                      # imm = 0x110
	popq	%rbp
	.cfi_def_cfa %rsp, 8
	retq
.Lfunc_end11:
	.size	FF_function_99, .Lfunc_end11-FF_function_99
	.cfi_endproc
                                        # -- End function
	.globl	FF_function_101                 # -- Begin function FF_function_101
	.p2align	4, 0x90
	.type	FF_function_101,@function
FF_function_101:                        # @FF_function_101
	.cfi_startproc
# %bb.0:
	pushq	%rbp
	.cfi_def_cfa_offset 16
	.cfi_offset %rbp, -16
	movq	%rsp, %rbp
	.cfi_def_cfa_register %rbp
	subq	$224, %rsp
	testb	%al, %al
	je	.LBB12_5
# %bb.4:
	movaps	%xmm0, -176(%rbp)
	movaps	%xmm1, -160(%rbp)
	movaps	%xmm2, -144(%rbp)
	movaps	%xmm3, -128(%rbp)
	movaps	%xmm4, -112(%rbp)
	movaps	%xmm5, -96(%rbp)
	movaps	%xmm6, -80(%rbp)
	movaps	%xmm7, -64(%rbp)
.LBB12_5:
	movq	%r9, -184(%rbp)
	movq	%r8, -192(%rbp)
	movq	%rcx, -200(%rbp)
	movq	%rdx, -208(%rbp)
	movq	%rsi, -216(%rbp)
	movq	%rdi, -40(%rbp)
	movabsq	$.L.str.22, %rdi
	movb	$0, %al
	callq	printf@PLT
	leaq	-32(%rbp), %rax
	leaq	-224(%rbp), %rcx
	movq	%rcx, 16(%rax)
	leaq	16(%rbp), %rcx
	movq	%rcx, 8(%rax)
	movl	$48, 4(%rax)
	movl	$8, (%rax)
	leaq	-32(%rbp), %rcx
	movl	-32(%rbp), %edx
	cmpl	$40, %edx
	ja	.LBB12_2
# %bb.1:
	movslq	%edx, %rax
	addq	16(%rcx), %rax
	addl	$8, %edx
	movl	%edx, (%rcx)
	jmp	.LBB12_3
.LBB12_2:
	movq	8(%rcx), %rax
	movq	%rax, %rdx
	addq	$8, %rdx
	movq	%rdx, 8(%rcx)
.LBB12_3:
	movb	(%rax), %al
	movb	%al, -1(%rbp)
	xorl	%edi, %edi
	movl	$1, %esi
	xorl	%eax, %eax
	callq	FF_function_101
	xorl	%edi, %edi
	movl	$1, %esi
	movl	$2, %edx
	movl	$3, %ecx
	xorl	%eax, %eax
	callq	FF_function_101
	movl	$.L.str.23, %edi
	xorl	%eax, %eax
	callq	printf@PLT
	movb	-1(%rbp), %al
	addq	$224, %rsp
	popq	%rbp
	.cfi_def_cfa %rsp, 8
	retq
.Lfunc_end12:
	.size	FF_function_101, .Lfunc_end12-FF_function_101
	.cfi_endproc
                                        # -- End function
	.globl	FF_function_103                 # -- Begin function FF_function_103
	.p2align	4, 0x90
	.type	FF_function_103,@function
FF_function_103:                        # @FF_function_103
	.cfi_startproc
# %bb.0:
	pushq	%rbp
	.cfi_def_cfa_offset 16
	.cfi_offset %rbp, -16
	movq	%rsp, %rbp
	.cfi_def_cfa_register %rbp
	subq	$224, %rsp
	testb	%al, %al
	je	.LBB13_5
# %bb.4:
	movaps	%xmm1, -160(%rbp)
	movaps	%xmm2, -144(%rbp)
	movaps	%xmm3, -128(%rbp)
	movaps	%xmm4, -112(%rbp)
	movaps	%xmm5, -96(%rbp)
	movaps	%xmm6, -80(%rbp)
	movaps	%xmm7, -64(%rbp)
.LBB13_5:
	movq	%r9, -184(%rbp)
	movq	%r8, -192(%rbp)
	movq	%rcx, -200(%rbp)
	movq	%rdx, -208(%rbp)
	movq	%rsi, -216(%rbp)
	movq	%rdi, -224(%rbp)
	movss	%xmm0, -12(%rbp)
	movabsq	$.L.str.24, %rdi
	movb	$0, %al
	callq	printf@PLT
	leaq	-48(%rbp), %rax
	leaq	-224(%rbp), %rcx
	movq	%rcx, 16(%rax)
	leaq	16(%rbp), %rcx
	movq	%rcx, 8(%rax)
	movl	$64, 4(%rax)
	movl	$0, (%rax)
	leaq	-48(%rbp), %rcx
	movl	-48(%rbp), %edx
	cmpl	$40, %edx
	ja	.LBB13_2
# %bb.1:
	movslq	%edx, %rax
	addq	16(%rcx), %rax
	addl	$8, %edx
	movl	%edx, (%rcx)
	jmp	.LBB13_3
.LBB13_2:
	movq	8(%rcx), %rax
	movq	%rax, %rdx
	addq	$8, %rdx
	movq	%rdx, 8(%rcx)
.LBB13_3:
	movq	(%rax), %rax
	movq	%rax, -8(%rbp)
	xorps	%xmm0, %xmm0
	movl	$1, %edi
	movb	$1, %al
	callq	FF_function_103
	xorps	%xmm0, %xmm0
	movl	$1, %edi
	movl	$2, %esi
	movl	$3, %edx
	movb	$1, %al
	callq	FF_function_103
	movl	$.L.str.25, %edi
	xorl	%eax, %eax
	callq	printf@PLT
	movq	-8(%rbp), %rax
	addq	$224, %rsp
	popq	%rbp
	.cfi_def_cfa %rsp, 8
	retq
.Lfunc_end13:
	.size	FF_function_103, .Lfunc_end13-FF_function_103
	.cfi_endproc
                                        # -- End function
	.globl	FF_function_112                 # -- Begin function FF_function_112
	.p2align	4, 0x90
	.type	FF_function_112,@function
FF_function_112:                        # @FF_function_112
	.cfi_startproc
# %bb.0:
	pushq	%rbp
	.cfi_def_cfa_offset 16
	.cfi_offset %rbp, -16
	movq	%rsp, %rbp
	.cfi_def_cfa_register %rbp
	subq	$272, %rsp                      # imm = 0x110
	testb	%al, %al
	je	.LBB14_5
# %bb.4:
	movaps	%xmm0, -224(%rbp)
	movaps	%xmm1, -208(%rbp)
	movaps	%xmm2, -192(%rbp)
	movaps	%xmm3, -176(%rbp)
	movaps	%xmm4, -160(%rbp)
	movaps	%xmm5, -144(%rbp)
	movaps	%xmm6, -128(%rbp)
	movaps	%xmm7, -112(%rbp)
.LBB14_5:
	movq	%r9, -232(%rbp)
	movq	%r8, -240(%rbp)
	movq	%rcx, -248(%rbp)
	movq	%rdx, -256(%rbp)
	movq	%rdi, -96(%rbp)
	movq	%rsi, -88(%rbp)
	movabsq	$.L.str.26, %rdi
	movb	$0, %al
	callq	printf@PLT
	leaq	-80(%rbp), %rax
	leaq	-272(%rbp), %rcx
	movq	%rcx, 16(%rax)
	leaq	16(%rbp), %rcx
	movq	%rcx, 8(%rax)
	movl	$48, 4(%rax)
	movl	$16, (%rax)
	leaq	-80(%rbp), %rcx
	movl	-80(%rbp), %edx
	cmpl	$40, %edx
	ja	.LBB14_2
# %bb.1:
	movslq	%edx, %rax
	addq	16(%rcx), %rax
	addl	$8, %edx
	movl	%edx, (%rcx)
	jmp	.LBB14_3
.LBB14_2:
	movq	8(%rcx), %rax
	movq	%rax, %rdx
	addq	$8, %rdx
	movq	%rdx, 8(%rcx)
.LBB14_3:
	movb	(%rax), %al
	movb	%al, -8(%rbp)
	movl	$0, -56(%rbp)
	movl	$1056964608, -52(%rbp)          # imm = 0x3F000000
	movq	$0, -48(%rbp)
	movq	-56(%rbp), %rdi
	movq	-48(%rbp), %rsi
	movl	$1, %edx
	xorl	%eax, %eax
	callq	FF_function_112
	movb	%al, -24(%rbp)
	movl	$0, -40(%rbp)
	movl	$1056964608, -36(%rbp)          # imm = 0x3F000000
	movq	$0, -32(%rbp)
	movq	-40(%rbp), %rdi
	movq	-32(%rbp), %rsi
	movl	$1, %edx
	movl	$2, %ecx
	movl	$3, %r8d
	xorl	%eax, %eax
	callq	FF_function_112
	movb	%al, -16(%rbp)
	movl	$.L.str.27, %edi
	xorl	%eax, %eax
	callq	printf@PLT
	movb	-8(%rbp), %al
	addq	$272, %rsp                      # imm = 0x110
	popq	%rbp
	.cfi_def_cfa %rsp, 8
	retq
.Lfunc_end14:
	.size	FF_function_112, .Lfunc_end14-FF_function_112
	.cfi_endproc
                                        # -- End function
	.globl	FF_function_117                 # -- Begin function FF_function_117
	.p2align	4, 0x90
	.type	FF_function_117,@function
FF_function_117:                        # @FF_function_117
	.cfi_startproc
# %bb.0:
	pushq	%rbp
	.cfi_def_cfa_offset 16
	.cfi_offset %rbp, -16
	movq	%rsp, %rbp
	.cfi_def_cfa_register %rbp
	subq	$240, %rsp
	testb	%al, %al
	je	.LBB15_5
# %bb.4:
	movaps	%xmm0, -192(%rbp)
	movaps	%xmm1, -176(%rbp)
	movaps	%xmm2, -160(%rbp)
	movaps	%xmm3, -144(%rbp)
	movaps	%xmm4, -128(%rbp)
	movaps	%xmm5, -112(%rbp)
	movaps	%xmm6, -96(%rbp)
	movaps	%xmm7, -80(%rbp)
.LBB15_5:
	movq	%r9, -200(%rbp)
	movq	%r8, -208(%rbp)
	movq	%rcx, -216(%rbp)
	movq	%rdx, -224(%rbp)
	movq	%rsi, -232(%rbp)
	movq	%rdi, -56(%rbp)
	movabsq	$.L.str.28, %rdi
	movb	$0, %al
	callq	printf@PLT
	leaq	-48(%rbp), %rax
	leaq	-240(%rbp), %rcx
	movq	%rcx, 16(%rax)
	leaq	16(%rbp), %rcx
	movq	%rcx, 8(%rax)
	movl	$48, 4(%rax)
	movl	$8, (%rax)
	leaq	-48(%rbp), %rcx
	movl	-48(%rbp), %edx
	cmpl	$40, %edx
	ja	.LBB15_2
# %bb.1:
	movslq	%edx, %rax
	addq	16(%rcx), %rax
	addl	$8, %edx
	movl	%edx, (%rcx)
	jmp	.LBB15_3
.LBB15_2:
	movq	8(%rcx), %rax
	movq	%rax, %rdx
	addq	$8, %rdx
	movq	%rdx, 8(%rcx)
.LBB15_3:
	movb	(%rax), %al
	movb	%al, -8(%rbp)
	xorl	%edi, %edi
	movl	$1, %esi
	xorl	%eax, %eax
	callq	FF_function_117
	movb	%al, -24(%rbp)
	xorl	%edi, %edi
	movl	$1, %esi
	movl	$2, %edx
	movl	$3, %ecx
	xorl	%eax, %eax
	callq	FF_function_117
	movb	%al, -16(%rbp)
	movl	$.L.str.29, %edi
	xorl	%eax, %eax
	callq	printf@PLT
	movb	-8(%rbp), %al
	addq	$240, %rsp
	popq	%rbp
	.cfi_def_cfa %rsp, 8
	retq
.Lfunc_end15:
	.size	FF_function_117, .Lfunc_end15-FF_function_117
	.cfi_endproc
                                        # -- End function
	.globl	FF_function_123                 # -- Begin function FF_function_123
	.p2align	4, 0x90
	.type	FF_function_123,@function
FF_function_123:                        # @FF_function_123
	.cfi_startproc
# %bb.0:
	pushq	%rbp
	.cfi_def_cfa_offset 16
	.cfi_offset %rbp, -16
	movq	%rsp, %rbp
	.cfi_def_cfa_register %rbp
	subq	$224, %rsp
	testb	%al, %al
	je	.LBB16_5
# %bb.4:
	movaps	%xmm0, -176(%rbp)
	movaps	%xmm1, -160(%rbp)
	movaps	%xmm2, -144(%rbp)
	movaps	%xmm3, -128(%rbp)
	movaps	%xmm4, -112(%rbp)
	movaps	%xmm5, -96(%rbp)
	movaps	%xmm6, -80(%rbp)
	movaps	%xmm7, -64(%rbp)
.LBB16_5:
	movq	%r9, -184(%rbp)
	movq	%r8, -192(%rbp)
	movq	%rcx, -200(%rbp)
	movq	%rdx, -208(%rbp)
	movq	%rsi, -216(%rbp)
	movq	%rdi, -40(%rbp)
	movabsq	$.L.str.30, %rdi
	movb	$0, %al
	callq	printf@PLT
	leaq	-32(%rbp), %rax
	leaq	-224(%rbp), %rcx
	movq	%rcx, 16(%rax)
	leaq	16(%rbp), %rcx
	movq	%rcx, 8(%rax)
	movl	$48, 4(%rax)
	movl	$8, (%rax)
	leaq	-32(%rbp), %rcx
	movl	-32(%rbp), %edx
	cmpl	$40, %edx
	ja	.LBB16_2
# %bb.1:
	movslq	%edx, %rax
	addq	16(%rcx), %rax
	addl	$8, %edx
	movl	%edx, (%rcx)
	jmp	.LBB16_3
.LBB16_2:
	movq	8(%rcx), %rax
	movq	%rax, %rdx
	addq	$8, %rdx
	movq	%rdx, 8(%rcx)
.LBB16_3:
	movw	(%rax), %ax
	movw	%ax, -2(%rbp)
	xorl	%edi, %edi
	movl	$1, %esi
	xorl	%eax, %eax
	callq	FF_function_123
	xorl	%edi, %edi
	movl	$1, %esi
	movl	$2, %edx
	movl	$3, %ecx
	xorl	%eax, %eax
	callq	FF_function_123
	movl	$.L.str.31, %edi
	xorl	%eax, %eax
	callq	printf@PLT
	movw	-2(%rbp), %ax
	addq	$224, %rsp
	popq	%rbp
	.cfi_def_cfa %rsp, 8
	retq
.Lfunc_end16:
	.size	FF_function_123, .Lfunc_end16-FF_function_123
	.cfi_endproc
                                        # -- End function
	.globl	FF_function_128                 # -- Begin function FF_function_128
	.p2align	4, 0x90
	.type	FF_function_128,@function
FF_function_128:                        # @FF_function_128
	.cfi_startproc
# %bb.0:
	pushq	%rbp
	.cfi_def_cfa_offset 16
	.cfi_offset %rbp, -16
	movq	%rsp, %rbp
	.cfi_def_cfa_register %rbp
	subq	$224, %rsp
	testb	%al, %al
	je	.LBB17_5
# %bb.4:
	movaps	%xmm0, -176(%rbp)
	movaps	%xmm1, -160(%rbp)
	movaps	%xmm2, -144(%rbp)
	movaps	%xmm3, -128(%rbp)
	movaps	%xmm4, -112(%rbp)
	movaps	%xmm5, -96(%rbp)
	movaps	%xmm6, -80(%rbp)
	movaps	%xmm7, -64(%rbp)
.LBB17_5:
	movq	%r9, -184(%rbp)
	movq	%r8, -192(%rbp)
	movq	%rcx, -200(%rbp)
	movq	%rdx, -208(%rbp)
	movq	%rsi, -216(%rbp)
	movq	%rdi, -40(%rbp)
	movabsq	$.L.str.32, %rdi
	movb	$0, %al
	callq	printf@PLT
	leaq	-32(%rbp), %rax
	leaq	-224(%rbp), %rcx
	movq	%rcx, 16(%rax)
	leaq	16(%rbp), %rcx
	movq	%rcx, 8(%rax)
	movl	$48, 4(%rax)
	movl	$8, (%rax)
	leaq	-32(%rbp), %rcx
	movl	-32(%rbp), %edx
	cmpl	$40, %edx
	ja	.LBB17_2
# %bb.1:
	movslq	%edx, %rax
	addq	16(%rcx), %rax
	addl	$8, %edx
	movl	%edx, (%rcx)
	jmp	.LBB17_3
.LBB17_2:
	movq	8(%rcx), %rax
	movq	%rax, %rdx
	addq	$8, %rdx
	movq	%rdx, 8(%rcx)
.LBB17_3:
	movb	(%rax), %al
	movb	%al, -1(%rbp)
	xorl	%edi, %edi
	movl	$1, %esi
	xorl	%eax, %eax
	callq	FF_function_128
	xorl	%edi, %edi
	movl	$1, %esi
	movl	$2, %edx
	movl	$3, %ecx
	xorl	%eax, %eax
	callq	FF_function_128
	movl	$.L.str.33, %edi
	xorl	%eax, %eax
	callq	printf@PLT
	movb	-1(%rbp), %al
	addq	$224, %rsp
	popq	%rbp
	.cfi_def_cfa %rsp, 8
	retq
.Lfunc_end17:
	.size	FF_function_128, .Lfunc_end17-FF_function_128
	.cfi_endproc
                                        # -- End function
	.section	.rodata.cst4,"aM",@progbits,4
	.p2align	2                               # -- Begin function FF_function_140
.LCPI18_0:
	.long	0x3f000000                      # float 0.5
	.text
	.globl	FF_function_140
	.p2align	4, 0x90
	.type	FF_function_140,@function
FF_function_140:                        # @FF_function_140
	.cfi_startproc
# %bb.0:
	pushq	%rbp
	.cfi_def_cfa_offset 16
	.cfi_offset %rbp, -16
	movq	%rsp, %rbp
	.cfi_def_cfa_register %rbp
	subq	$80, %rsp
	movb	%dil, -9(%rbp)
	movq	%rsi, -72(%rbp)
	movq	%rdx, -64(%rbp)
	movabsq	$.L.str.34, %rdi
	movb	$0, %al
	callq	printf@PLT
	movl	$0, -56(%rbp)
	movss	.LCPI18_0(%rip), %xmm0          # xmm0 = mem[0],zero,zero,zero
	movss	%xmm0, -52(%rbp)
	movq	$0, -48(%rbp)
	callq	rand@PLT
	cmpl	$1, %eax
	jge	.LBB18_2
# %bb.1:
	movq	$0, -24(%rbp)
	jmp	.LBB18_5
.LBB18_2:
	movl	$0, -40(%rbp)
	movss	.LCPI18_0(%rip), %xmm0          # xmm0 = mem[0],zero,zero,zero
	movss	%xmm0, -36(%rbp)
	movq	$0, -32(%rbp)
	callq	rand@PLT
	cmpl	$1, %eax
	jge	.LBB18_4
# %bb.3:
	movq	$0, -24(%rbp)
	jmp	.LBB18_5
.LBB18_4:
	movb	$0, -8(%rbp)
	movq	$0, -24(%rbp)
.LBB18_5:
	movq	-24(%rbp), %rax
	addq	$80, %rsp
	popq	%rbp
	.cfi_def_cfa %rsp, 8
	retq
.Lfunc_end18:
	.size	FF_function_140, .Lfunc_end18-FF_function_140
	.cfi_endproc
                                        # -- End function
	.section	.rodata.cst4,"aM",@progbits,4
	.p2align	2                               # -- Begin function FF_function_139
.LCPI19_0:
	.long	0x3f000000                      # float 0.5
	.text
	.globl	FF_function_139
	.p2align	4, 0x90
	.type	FF_function_139,@function
FF_function_139:                        # @FF_function_139
	.cfi_startproc
# %bb.0:
	pushq	%rbp
	.cfi_def_cfa_offset 16
	.cfi_offset %rbp, -16
	movq	%rsp, %rbp
	.cfi_def_cfa_register %rbp
	subq	$128, %rsp
	movq	16(%rbp), %rax
	movq	%rdi, -120(%rbp)
	movq	%rsi, -112(%rbp)
	movq	%rdx, -104(%rbp)
	movq	%rcx, -96(%rbp)
	movss	%xmm0, -28(%rbp)
	movq	%r8, -88(%rbp)
	movw	%r9w, -10(%rbp)
	movabsq	$.L.str.35, %rdi
	movb	$0, %al
	callq	printf@PLT
	movl	$0, -80(%rbp)
	movss	.LCPI19_0(%rip), %xmm0          # xmm0 = mem[0],zero,zero,zero
	movss	%xmm0, -76(%rbp)
	movq	$0, -72(%rbp)
	callq	rand@PLT
	cmpl	$1, %eax
	jge	.LBB19_2
# %bb.1:
	movq	$0, -8(%rbp)
	jmp	.LBB19_11
.LBB19_2:
	callq	rand@PLT
	cmpl	$1, %eax
	jge	.LBB19_4
# %bb.3:
	movq	$0, -8(%rbp)
	jmp	.LBB19_11
.LBB19_4:
	callq	rand@PLT
	cmpl	$1, %eax
	jge	.LBB19_6
# %bb.5:
	movq	$0, -8(%rbp)
	jmp	.LBB19_11
.LBB19_6:
	movl	$0, -64(%rbp)
	movss	.LCPI19_0(%rip), %xmm0          # xmm0 = mem[0],zero,zero,zero
	movss	%xmm0, -60(%rbp)
	movq	$0, -56(%rbp)
	callq	rand@PLT
	cmpl	$1, %eax
	jge	.LBB19_8
# %bb.7:
	movq	$0, -8(%rbp)
	jmp	.LBB19_11
.LBB19_8:
	callq	rand@PLT
	cmpl	$1, %eax
	jge	.LBB19_10
# %bb.9:
	movq	$0, -8(%rbp)
	jmp	.LBB19_11
.LBB19_10:
	movl	$0, -48(%rbp)
	movss	.LCPI19_0(%rip), %xmm0          # xmm0 = mem[0],zero,zero,zero
	movss	%xmm0, -44(%rbp)
	movq	$0, -40(%rbp)
	xorl	%edi, %edi
	xorl	%esi, %esi
	xorl	%edx, %edx
	callq	FF_function_140
	movq	%rax, -24(%rbp)
	movabsq	$.L.str.36, %rdi
	movb	$0, %al
	callq	printf@PLT
	movq	-24(%rbp), %rax
	movq	%rax, -8(%rbp)
.LBB19_11:
	movq	-8(%rbp), %rax
	addq	$128, %rsp
	popq	%rbp
	.cfi_def_cfa %rsp, 8
	retq
.Lfunc_end19:
	.size	FF_function_139, .Lfunc_end19-FF_function_139
	.cfi_endproc
                                        # -- End function
	.globl	FF_function_141                 # -- Begin function FF_function_141
	.p2align	4, 0x90
	.type	FF_function_141,@function
FF_function_141:                        # @FF_function_141
	.cfi_startproc
# %bb.0:
	pushq	%rbp
	.cfi_def_cfa_offset 16
	.cfi_offset %rbp, -16
	movq	%rsp, %rbp
	.cfi_def_cfa_register %rbp
	subq	$64, %rsp
	movq	%rdi, -48(%rbp)
	movsd	%xmm0, -40(%rbp)
	movq	%rsi, -32(%rbp)
	movw	%dx, -10(%rbp)
	movss	%xmm1, -16(%rbp)
	movq	%rcx, -24(%rbp)
	movabsq	$.L.str.37, %rdi
	movb	$0, %al
	callq	printf@PLT
	movb	$0, -8(%rbp)
	xorl	%eax, %eax
	addq	$64, %rsp
	popq	%rbp
	.cfi_def_cfa %rsp, 8
	retq
.Lfunc_end20:
	.size	FF_function_141, .Lfunc_end20-FF_function_141
	.cfi_endproc
                                        # -- End function
	.globl	FF_function_142                 # -- Begin function FF_function_142
	.p2align	4, 0x90
	.type	FF_function_142,@function
FF_function_142:                        # @FF_function_142
	.cfi_startproc
# %bb.0:
	pushq	%rbp
	.cfi_def_cfa_offset 16
	.cfi_offset %rbp, -16
	movq	%rsp, %rbp
	.cfi_def_cfa_register %rbp
	subq	$32, %rsp
	movq	%rdi, -16(%rbp)
	movabsq	$.L.str.38, %rdi
	movb	$0, %al
	callq	printf@PLT
	callq	rand@PLT
	cmpl	$1, %eax
	jge	.LBB21_2
# %bb.1:
	movq	$0, -8(%rbp)
	jmp	.LBB21_3
.LBB21_2:
	movq	$0, -8(%rbp)
.LBB21_3:
	movq	-8(%rbp), %rax
	addq	$32, %rsp
	popq	%rbp
	.cfi_def_cfa %rsp, 8
	retq
.Lfunc_end21:
	.size	FF_function_142, .Lfunc_end21-FF_function_142
	.cfi_endproc
                                        # -- End function
	.globl	FF_function_144                 # -- Begin function FF_function_144
	.p2align	4, 0x90
	.type	FF_function_144,@function
FF_function_144:                        # @FF_function_144
	.cfi_startproc
# %bb.0:
	pushq	%rbp
	.cfi_def_cfa_offset 16
	.cfi_offset %rbp, -16
	movq	%rsp, %rbp
	.cfi_def_cfa_register %rbp
	subq	$224, %rsp
	testb	%al, %al
	je	.LBB22_5
# %bb.4:
	movaps	%xmm0, -176(%rbp)
	movaps	%xmm1, -160(%rbp)
	movaps	%xmm2, -144(%rbp)
	movaps	%xmm3, -128(%rbp)
	movaps	%xmm4, -112(%rbp)
	movaps	%xmm5, -96(%rbp)
	movaps	%xmm6, -80(%rbp)
	movaps	%xmm7, -64(%rbp)
.LBB22_5:
	movq	%r9, -184(%rbp)
	movq	%r8, -192(%rbp)
	movq	%rcx, -200(%rbp)
	movq	%rdx, -208(%rbp)
	movq	%rsi, -216(%rbp)
	movb	%dil, -1(%rbp)
	movabsq	$.L.str.39, %rdi
	movb	$0, %al
	callq	printf@PLT
	leaq	-48(%rbp), %rax
	leaq	-224(%rbp), %rcx
	movq	%rcx, 16(%rax)
	leaq	16(%rbp), %rcx
	movq	%rcx, 8(%rax)
	movl	$48, 4(%rax)
	movl	$8, (%rax)
	leaq	-48(%rbp), %rcx
	movl	-48(%rbp), %edx
	cmpl	$40, %edx
	ja	.LBB22_2
# %bb.1:
	movslq	%edx, %rax
	addq	16(%rcx), %rax
	addl	$8, %edx
	movl	%edx, (%rcx)
	jmp	.LBB22_3
.LBB22_2:
	movq	8(%rcx), %rax
	movq	%rax, %rdx
	addq	$8, %rdx
	movq	%rdx, 8(%rcx)
.LBB22_3:
	movq	(%rax), %rax
	movq	%rax, -16(%rbp)
	xorl	%edi, %edi
	movl	$1, %esi
	xorl	%eax, %eax
	callq	FF_function_144
	xorl	%edi, %edi
	movl	$1, %esi
	movl	$2, %edx
	movl	$3, %ecx
	xorl	%eax, %eax
	callq	FF_function_144
	movl	$.L.str.40, %edi
	xorl	%eax, %eax
	callq	printf@PLT
	movq	-16(%rbp), %rax
	addq	$224, %rsp
	popq	%rbp
	.cfi_def_cfa %rsp, 8
	retq
.Lfunc_end22:
	.size	FF_function_144, .Lfunc_end22-FF_function_144
	.cfi_endproc
                                        # -- End function
	.globl	FF_function_145                 # -- Begin function FF_function_145
	.p2align	4, 0x90
	.type	FF_function_145,@function
FF_function_145:                        # @FF_function_145
	.cfi_startproc
# %bb.0:
	pushq	%rbp
	.cfi_def_cfa_offset 16
	.cfi_offset %rbp, -16
	movq	%rsp, %rbp
	.cfi_def_cfa_register %rbp
	subq	$32, %rsp
	movss	%xmm0, -20(%rbp)
	movabsq	$.L.str.41, %rdi
	movb	$0, %al
	callq	printf@PLT
	movb	$0, -8(%rbp)
	movq	$0, -16(%rbp)
	movabsq	$.L.str.42, %rdi
	movb	$0, %al
	callq	printf@PLT
	movq	-16(%rbp), %rax
	addq	$32, %rsp
	popq	%rbp
	.cfi_def_cfa %rsp, 8
	retq
.Lfunc_end23:
	.size	FF_function_145, .Lfunc_end23-FF_function_145
	.cfi_endproc
                                        # -- End function
	.globl	FF_function_146                 # -- Begin function FF_function_146
	.p2align	4, 0x90
	.type	FF_function_146,@function
FF_function_146:                        # @FF_function_146
	.cfi_startproc
# %bb.0:
	pushq	%rbp
	.cfi_def_cfa_offset 16
	.cfi_offset %rbp, -16
	movq	%rsp, %rbp
	.cfi_def_cfa_register %rbp
	subq	$16, %rsp
	movss	%xmm0, -12(%rbp)
	movabsq	$.L.str.43, %rdi
	movb	$0, %al
	callq	printf@PLT
	xorps	%xmm0, %xmm0
	movss	%xmm0, -8(%rbp)
	xorps	%xmm0, %xmm0
	movss	%xmm0, -4(%rbp)
	movabsq	$.L.str.44, %rdi
	movb	$0, %al
	callq	printf@PLT
	movss	-4(%rbp), %xmm0                 # xmm0 = mem[0],zero,zero,zero
	addq	$16, %rsp
	popq	%rbp
	.cfi_def_cfa %rsp, 8
	retq
.Lfunc_end24:
	.size	FF_function_146, .Lfunc_end24-FF_function_146
	.cfi_endproc
                                        # -- End function
	.globl	FF_function_147                 # -- Begin function FF_function_147
	.p2align	4, 0x90
	.type	FF_function_147,@function
FF_function_147:                        # @FF_function_147
	.cfi_startproc
# %bb.0:
	pushq	%rbp
	.cfi_def_cfa_offset 16
	.cfi_offset %rbp, -16
	movq	%rsp, %rbp
	.cfi_def_cfa_register %rbp
	subq	$16, %rsp
	movb	%dil, -1(%rbp)
	movabsq	$.L.str.45, %rdi
	movb	$0, %al
	callq	printf@PLT
	xorl	%eax, %eax
	addq	$16, %rsp
	popq	%rbp
	.cfi_def_cfa %rsp, 8
	retq
.Lfunc_end25:
	.size	FF_function_147, .Lfunc_end25-FF_function_147
	.cfi_endproc
                                        # -- End function
	.section	.rodata.cst4,"aM",@progbits,4
	.p2align	2                               # -- Begin function FF_function_148
.LCPI26_0:
	.long	0x3f000000                      # float 0.5
	.text
	.globl	FF_function_148
	.p2align	4, 0x90
	.type	FF_function_148,@function
FF_function_148:                        # @FF_function_148
	.cfi_startproc
# %bb.0:
	pushq	%rbp
	.cfi_def_cfa_offset 16
	.cfi_offset %rbp, -16
	movq	%rsp, %rbp
	.cfi_def_cfa_register %rbp
	subq	$32, %rsp
	movabsq	$.L.str.46, %rdi
	movb	$0, %al
	callq	printf@PLT
	movl	$0, -24(%rbp)
	movss	.LCPI26_0(%rip), %xmm0          # xmm0 = mem[0],zero,zero,zero
	movss	%xmm0, -20(%rbp)
	movq	$0, -16(%rbp)
	movw	$0, -2(%rbp)
	movabsq	$.L.str.47, %rdi
	movb	$0, %al
	callq	printf@PLT
	movzwl	-2(%rbp), %eax
	addq	$32, %rsp
	popq	%rbp
	.cfi_def_cfa %rsp, 8
	retq
.Lfunc_end26:
	.size	FF_function_148, .Lfunc_end26-FF_function_148
	.cfi_endproc
                                        # -- End function
	.globl	FF_function_149                 # -- Begin function FF_function_149
	.p2align	4, 0x90
	.type	FF_function_149,@function
FF_function_149:                        # @FF_function_149
	.cfi_startproc
# %bb.0:
	pushq	%rbp
	.cfi_def_cfa_offset 16
	.cfi_offset %rbp, -16
	movq	%rsp, %rbp
	.cfi_def_cfa_register %rbp
	subq	$16, %rsp
	movabsq	$.L.str.48, %rdi
	movb	$0, %al
	callq	printf@PLT
	callq	rand@PLT
	cmpl	$1, %eax
	jge	.LBB27_2
# %bb.1:
	movq	$0, -8(%rbp)
	jmp	.LBB27_3
.LBB27_2:
	movq	$0, -16(%rbp)
	movabsq	$.L.str.49, %rdi
	movb	$0, %al
	callq	printf@PLT
	movq	-16(%rbp), %rax
	movq	%rax, -8(%rbp)
.LBB27_3:
	movq	-8(%rbp), %rax
	addq	$16, %rsp
	popq	%rbp
	.cfi_def_cfa %rsp, 8
	retq
.Lfunc_end27:
	.size	FF_function_149, .Lfunc_end27-FF_function_149
	.cfi_endproc
                                        # -- End function
	.globl	FF_function_151                 # -- Begin function FF_function_151
	.p2align	4, 0x90
	.type	FF_function_151,@function
FF_function_151:                        # @FF_function_151
	.cfi_startproc
# %bb.0:
	pushq	%rbp
	.cfi_def_cfa_offset 16
	.cfi_offset %rbp, -16
	movq	%rsp, %rbp
	.cfi_def_cfa_register %rbp
	subq	$16, %rsp
	movabsq	$.L.str.50, %rdi
	movb	$0, %al
	callq	printf@PLT
	movb	$0, -1(%rbp)
	movabsq	$.L.str.51, %rdi
	movb	$0, %al
	callq	printf@PLT
	movzbl	-1(%rbp), %eax
	addq	$16, %rsp
	popq	%rbp
	.cfi_def_cfa %rsp, 8
	retq
.Lfunc_end28:
	.size	FF_function_151, .Lfunc_end28-FF_function_151
	.cfi_endproc
                                        # -- End function
	.section	.rodata.cst4,"aM",@progbits,4
	.p2align	2                               # -- Begin function FF_function_152
.LCPI29_0:
	.long	0x3f000000                      # float 0.5
	.text
	.globl	FF_function_152
	.p2align	4, 0x90
	.type	FF_function_152,@function
FF_function_152:                        # @FF_function_152
	.cfi_startproc
# %bb.0:
	pushq	%rbp
	.cfi_def_cfa_offset 16
	.cfi_offset %rbp, -16
	movq	%rsp, %rbp
	.cfi_def_cfa_register %rbp
	subq	$32, %rsp
	movabsq	$.L.str.52, %rdi
	movb	$0, %al
	callq	printf@PLT
	movl	$0, -24(%rbp)
	movss	.LCPI29_0(%rip), %xmm0          # xmm0 = mem[0],zero,zero,zero
	movss	%xmm0, -20(%rbp)
	movq	$0, -16(%rbp)
	leaq	-8(%rbp), %rdi
	xorl	%esi, %esi
	movl	$1, %edx
	callq	memset@PLT
	movabsq	$.L.str.53, %rdi
	movb	$0, %al
	callq	printf@PLT
	movb	-8(%rbp), %al
	addq	$32, %rsp
	popq	%rbp
	.cfi_def_cfa %rsp, 8
	retq
.Lfunc_end29:
	.size	FF_function_152, .Lfunc_end29-FF_function_152
	.cfi_endproc
                                        # -- End function
	.globl	FF_function_150                 # -- Begin function FF_function_150
	.p2align	4, 0x90
	.type	FF_function_150,@function
FF_function_150:                        # @FF_function_150
	.cfi_startproc
# %bb.0:
	pushq	%rbp
	.cfi_def_cfa_offset 16
	.cfi_offset %rbp, -16
	movq	%rsp, %rbp
	.cfi_def_cfa_register %rbp
	subq	$16, %rsp
	movabsq	$.L.str.54, %rdi
	movb	$0, %al
	callq	printf@PLT
	callq	FF_function_151
	callq	FF_function_152
	movb	%al, -8(%rbp)
	movabsq	$.L.str.55, %rdi
	movb	$0, %al
	callq	printf@PLT
	movb	-8(%rbp), %al
	addq	$16, %rsp
	popq	%rbp
	.cfi_def_cfa %rsp, 8
	retq
.Lfunc_end30:
	.size	FF_function_150, .Lfunc_end30-FF_function_150
	.cfi_endproc
                                        # -- End function
	.globl	FF_function_138                 # -- Begin function FF_function_138
	.p2align	4, 0x90
	.type	FF_function_138,@function
FF_function_138:                        # @FF_function_138
	.cfi_startproc
# %bb.0:
	pushq	%rbp
	.cfi_def_cfa_offset 16
	.cfi_offset %rbp, -16
	movq	%rsp, %rbp
	.cfi_def_cfa_register %rbp
	pushq	%r15
	pushq	%r14
	pushq	%r13
	pushq	%r12
	pushq	%rbx
	subq	$40, %rsp
	.cfi_offset %rbx, -56
	.cfi_offset %r12, -48
	.cfi_offset %r13, -40
	.cfi_offset %r14, -32
	.cfi_offset %r15, -24
	movss	%xmm0, -68(%rbp)
	movabsq	$.L.str.56, %rdi
	movb	$0, %al
	callq	printf@PLT
	xorl	%edi, %edi
	xorps	%xmm0, %xmm0
	xorl	%esi, %esi
	xorl	%edx, %edx
	xorps	%xmm1, %xmm1
	xorl	%ecx, %ecx
	callq	FF_function_141
	movq	%rax, -64(%rbp)                 # 8-byte Spill
	xorl	%edi, %edi
	callq	FF_function_142
	movq	%rax, %r15
	xorl	%edi, %edi
	xorl	%esi, %esi
	xorps	%xmm0, %xmm0
	movb	$1, %al
	callq	FF_function_144
	movq	%rax, %r12
	xorps	%xmm0, %xmm0
	callq	FF_function_145
	movq	%rax, %r13
	xorps	%xmm0, %xmm0
	callq	FF_function_146
	movss	%xmm0, -52(%rbp)                # 4-byte Spill
	xorl	%edi, %edi
	callq	FF_function_147
	movq	%rax, %rbx
	callq	FF_function_148
	movw	%ax, %r14w
	callq	FF_function_149
	movq	-64(%rbp), %rdi                 # 8-byte Reload
	movq	%r15, %rsi
	movq	%r12, %rdx
	movq	%r13, %rcx
	movss	-52(%rbp), %xmm0                # 4-byte Reload
                                        # xmm0 = mem[0],zero,zero,zero
	movq	%rbx, %r8
	movzwl	%r14w, %r9d
	movq	%rax, (%rsp)
	callq	FF_function_139
	callq	FF_function_150
	movb	%al, -48(%rbp)
	movabsq	$.L.str.57, %rdi
	movb	$0, %al
	callq	printf@PLT
	movb	-48(%rbp), %al
	addq	$40, %rsp
	popq	%rbx
	popq	%r12
	popq	%r13
	popq	%r14
	popq	%r15
	popq	%rbp
	.cfi_def_cfa %rsp, 8
	retq
.Lfunc_end31:
	.size	FF_function_138, .Lfunc_end31-FF_function_138
	.cfi_endproc
                                        # -- End function
	.globl	FF_function_154                 # -- Begin function FF_function_154
	.p2align	4, 0x90
	.type	FF_function_154,@function
FF_function_154:                        # @FF_function_154
	.cfi_startproc
# %bb.0:
	pushq	%rbp
	.cfi_def_cfa_offset 16
	.cfi_offset %rbp, -16
	movq	%rsp, %rbp
	.cfi_def_cfa_register %rbp
	subq	$32, %rsp
	movl	$.L.str.58, %edi
	xorl	%eax, %eax
	callq	printf@PLT
	movl	$0, -32(%rbp)
	movl	$1056964608, -28(%rbp)          # imm = 0x3F000000
	movq	$0, -24(%rbp)
	movups	.L__const.FF_function_154.FF_x(%rip), %xmm0
	movaps	%xmm0, -16(%rbp)
	movl	$.L.str.59, %edi
	xorl	%eax, %eax
	callq	printf@PLT
	movq	-16(%rbp), %rax
	movq	-8(%rbp), %rdx
	addq	$32, %rsp
	popq	%rbp
	.cfi_def_cfa %rsp, 8
	retq
.Lfunc_end32:
	.size	FF_function_154, .Lfunc_end32-FF_function_154
	.cfi_endproc
                                        # -- End function
	.globl	FF_function_155                 # -- Begin function FF_function_155
	.p2align	4, 0x90
	.type	FF_function_155,@function
FF_function_155:                        # @FF_function_155
	.cfi_startproc
# %bb.0:
	pushq	%rbp
	.cfi_def_cfa_offset 16
	.cfi_offset %rbp, -16
	movq	%rsp, %rbp
	.cfi_def_cfa_register %rbp
	subq	$16, %rsp
	movabsq	$.L.str.60, %rdi
	movb	$0, %al
	callq	printf@PLT
	movb	$0, -8(%rbp)
	xorps	%xmm0, %xmm0
	movss	%xmm0, -12(%rbp)
	movabsq	$.L.str.61, %rdi
	movb	$0, %al
	callq	printf@PLT
	movss	-12(%rbp), %xmm0                # xmm0 = mem[0],zero,zero,zero
	addq	$16, %rsp
	popq	%rbp
	.cfi_def_cfa %rsp, 8
	retq
.Lfunc_end33:
	.size	FF_function_155, .Lfunc_end33-FF_function_155
	.cfi_endproc
                                        # -- End function
	.globl	FF_function_153                 # -- Begin function FF_function_153
	.p2align	4, 0x90
	.type	FF_function_153,@function
FF_function_153:                        # @FF_function_153
	.cfi_startproc
# %bb.0:
	pushq	%rbp
	.cfi_def_cfa_offset 16
	.cfi_offset %rbp, -16
	movq	%rsp, %rbp
	.cfi_def_cfa_register %rbp
	subq	$32, %rsp
	movabsq	$.L.str.62, %rdi
	movb	$0, %al
	callq	printf@PLT
	callq	FF_function_154
	movq	%rax, -24(%rbp)
	movq	%rdx, -16(%rbp)
	callq	FF_function_155
	movss	%xmm0, -4(%rbp)
	movabsq	$.L.str.63, %rdi
	movb	$0, %al
	callq	printf@PLT
	movss	-4(%rbp), %xmm0                 # xmm0 = mem[0],zero,zero,zero
	addq	$32, %rsp
	popq	%rbp
	.cfi_def_cfa %rsp, 8
	retq
.Lfunc_end34:
	.size	FF_function_153, .Lfunc_end34-FF_function_153
	.cfi_endproc
                                        # -- End function
	.globl	FF_function_158                 # -- Begin function FF_function_158
	.p2align	4, 0x90
	.type	FF_function_158,@function
FF_function_158:                        # @FF_function_158
	.cfi_startproc
# %bb.0:
	pushq	%rbp
	.cfi_def_cfa_offset 16
	.cfi_offset %rbp, -16
	movq	%rsp, %rbp
	.cfi_def_cfa_register %rbp
	subq	$16, %rsp
	movabsq	$.L.str.64, %rdi
	movb	$0, %al
	callq	printf@PLT
	xorps	%xmm0, %xmm0
	movss	%xmm0, -4(%rbp)
	movabsq	$.L.str.65, %rdi
	movb	$0, %al
	callq	printf@PLT
	movss	-4(%rbp), %xmm0                 # xmm0 = mem[0],zero,zero,zero
	addq	$16, %rsp
	popq	%rbp
	.cfi_def_cfa %rsp, 8
	retq
.Lfunc_end35:
	.size	FF_function_158, .Lfunc_end35-FF_function_158
	.cfi_endproc
                                        # -- End function
	.globl	FF_function_157                 # -- Begin function FF_function_157
	.p2align	4, 0x90
	.type	FF_function_157,@function
FF_function_157:                        # @FF_function_157
	.cfi_startproc
# %bb.0:
	pushq	%rbp
	.cfi_def_cfa_offset 16
	.cfi_offset %rbp, -16
	movq	%rsp, %rbp
	.cfi_def_cfa_register %rbp
	subq	$16, %rsp
	movabsq	$.L.str.66, %rdi
	movb	$0, %al
	callq	printf@PLT
	callq	FF_function_158
	movss	%xmm0, -4(%rbp)
	movabsq	$.L.str.67, %rdi
	movb	$0, %al
	callq	printf@PLT
	movss	-4(%rbp), %xmm0                 # xmm0 = mem[0],zero,zero,zero
	addq	$16, %rsp
	popq	%rbp
	.cfi_def_cfa %rsp, 8
	retq
.Lfunc_end36:
	.size	FF_function_157, .Lfunc_end36-FF_function_157
	.cfi_endproc
                                        # -- End function
	.globl	FF_function_160                 # -- Begin function FF_function_160
	.p2align	4, 0x90
	.type	FF_function_160,@function
FF_function_160:                        # @FF_function_160
	.cfi_startproc
# %bb.0:
	pushq	%rbp
	.cfi_def_cfa_offset 16
	.cfi_offset %rbp, -16
	movq	%rsp, %rbp
	.cfi_def_cfa_register %rbp
	subq	$16, %rsp
	movabsq	$.L.str.68, %rdi
	movb	$0, %al
	callq	printf@PLT
	movq	$0, -8(%rbp)
	movabsq	$.L.str.69, %rdi
	movb	$0, %al
	callq	printf@PLT
	movq	-8(%rbp), %rax
	addq	$16, %rsp
	popq	%rbp
	.cfi_def_cfa %rsp, 8
	retq
.Lfunc_end37:
	.size	FF_function_160, .Lfunc_end37-FF_function_160
	.cfi_endproc
                                        # -- End function
	.section	.rodata.cst4,"aM",@progbits,4
	.p2align	2                               # -- Begin function FF_function_161
.LCPI38_0:
	.long	0x3f000000                      # float 0.5
	.text
	.globl	FF_function_161
	.p2align	4, 0x90
	.type	FF_function_161,@function
FF_function_161:                        # @FF_function_161
	.cfi_startproc
# %bb.0:
	pushq	%rbp
	.cfi_def_cfa_offset 16
	.cfi_offset %rbp, -16
	movq	%rsp, %rbp
	.cfi_def_cfa_register %rbp
	subq	$32, %rsp
	movabsq	$.L.str.70, %rdi
	movb	$0, %al
	callq	printf@PLT
	movl	$0, -16(%rbp)
	movss	.LCPI38_0(%rip), %xmm0          # xmm0 = mem[0],zero,zero,zero
	movss	%xmm0, -12(%rbp)
	movq	$0, -8(%rbp)
	xorl	%eax, %eax
	addq	$32, %rsp
	popq	%rbp
	.cfi_def_cfa %rsp, 8
	retq
.Lfunc_end38:
	.size	FF_function_161, .Lfunc_end38-FF_function_161
	.cfi_endproc
                                        # -- End function
	.globl	FF_function_159                 # -- Begin function FF_function_159
	.p2align	4, 0x90
	.type	FF_function_159,@function
FF_function_159:                        # @FF_function_159
	.cfi_startproc
# %bb.0:
	pushq	%rbp
	.cfi_def_cfa_offset 16
	.cfi_offset %rbp, -16
	movq	%rsp, %rbp
	.cfi_def_cfa_register %rbp
	subq	$16, %rsp
	movabsq	$.L.str.71, %rdi
	movb	$0, %al
	callq	printf@PLT
	callq	FF_function_160
	callq	FF_function_161
	movq	%rax, -8(%rbp)
	movabsq	$.L.str.72, %rdi
	movb	$0, %al
	callq	printf@PLT
	movq	-8(%rbp), %rax
	addq	$16, %rsp
	popq	%rbp
	.cfi_def_cfa %rsp, 8
	retq
.Lfunc_end39:
	.size	FF_function_159, .Lfunc_end39-FF_function_159
	.cfi_endproc
                                        # -- End function
	.globl	FF_function_156                 # -- Begin function FF_function_156
	.p2align	4, 0x90
	.type	FF_function_156,@function
FF_function_156:                        # @FF_function_156
	.cfi_startproc
# %bb.0:
	pushq	%rbp
	.cfi_def_cfa_offset 16
	.cfi_offset %rbp, -16
	movq	%rsp, %rbp
	.cfi_def_cfa_register %rbp
	subq	$16, %rsp
	movabsq	$.L.str.73, %rdi
	movb	$0, %al
	callq	printf@PLT
	callq	FF_function_157
	callq	FF_function_159
	movq	%rax, -8(%rbp)
	movabsq	$.L.str.74, %rdi
	movb	$0, %al
	callq	printf@PLT
	movq	-8(%rbp), %rax
	addq	$16, %rsp
	popq	%rbp
	.cfi_def_cfa %rsp, 8
	retq
.Lfunc_end40:
	.size	FF_function_156, .Lfunc_end40-FF_function_156
	.cfi_endproc
                                        # -- End function
	.globl	FF_function_164                 # -- Begin function FF_function_164
	.p2align	4, 0x90
	.type	FF_function_164,@function
FF_function_164:                        # @FF_function_164
	.cfi_startproc
# %bb.0:
	pushq	%rbp
	.cfi_def_cfa_offset 16
	.cfi_offset %rbp, -16
	movq	%rsp, %rbp
	.cfi_def_cfa_register %rbp
	subq	$32, %rsp
	movl	$.L.str.75, %edi
	xorl	%eax, %eax
	callq	printf@PLT
	movb	$0, -8(%rbp)
	movups	.L__const.FF_function_164.FF_x(%rip), %xmm0
	movaps	%xmm0, -32(%rbp)
	movl	$.L.str.76, %edi
	xorl	%eax, %eax
	callq	printf@PLT
	movq	-32(%rbp), %rax
	movq	-24(%rbp), %rdx
	addq	$32, %rsp
	popq	%rbp
	.cfi_def_cfa %rsp, 8
	retq
.Lfunc_end41:
	.size	FF_function_164, .Lfunc_end41-FF_function_164
	.cfi_endproc
                                        # -- End function
	.globl	FF_function_165                 # -- Begin function FF_function_165
	.p2align	4, 0x90
	.type	FF_function_165,@function
FF_function_165:                        # @FF_function_165
	.cfi_startproc
# %bb.0:
	pushq	%rbp
	.cfi_def_cfa_offset 16
	.cfi_offset %rbp, -16
	movq	%rsp, %rbp
	.cfi_def_cfa_register %rbp
	subq	$16, %rsp
	movl	$.L.str.77, %edi
	xorl	%eax, %eax
	callq	printf@PLT
	movups	.L__const.FF_function_165.FF_x(%rip), %xmm0
	movaps	%xmm0, -16(%rbp)
	movl	$.L.str.78, %edi
	xorl	%eax, %eax
	callq	printf@PLT
	movq	-16(%rbp), %rax
	movq	-8(%rbp), %rdx
	addq	$16, %rsp
	popq	%rbp
	.cfi_def_cfa %rsp, 8
	retq
.Lfunc_end42:
	.size	FF_function_165, .Lfunc_end42-FF_function_165
	.cfi_endproc
                                        # -- End function
	.globl	FF_function_163                 # -- Begin function FF_function_163
	.p2align	4, 0x90
	.type	FF_function_163,@function
FF_function_163:                        # @FF_function_163
	.cfi_startproc
# %bb.0:
	pushq	%rbp
	.cfi_def_cfa_offset 16
	.cfi_offset %rbp, -16
	movq	%rsp, %rbp
	.cfi_def_cfa_register %rbp
	subq	$32, %rsp
	movl	$.L.str.79, %edi
	xorl	%eax, %eax
	callq	printf@PLT
	callq	FF_function_164
	movq	%rax, -32(%rbp)
	movq	%rdx, -24(%rbp)
	callq	FF_function_165
	movq	%rax, -16(%rbp)
	movq	%rdx, -8(%rbp)
	movl	$.L.str.80, %edi
	xorl	%eax, %eax
	callq	printf@PLT
	movq	-16(%rbp), %rax
	movq	-8(%rbp), %rdx
	addq	$32, %rsp
	popq	%rbp
	.cfi_def_cfa %rsp, 8
	retq
.Lfunc_end43:
	.size	FF_function_163, .Lfunc_end43-FF_function_163
	.cfi_endproc
                                        # -- End function
	.globl	FF_function_167                 # -- Begin function FF_function_167
	.p2align	4, 0x90
	.type	FF_function_167,@function
FF_function_167:                        # @FF_function_167
	.cfi_startproc
# %bb.0:
	pushq	%rbp
	.cfi_def_cfa_offset 16
	.cfi_offset %rbp, -16
	movq	%rsp, %rbp
	.cfi_def_cfa_register %rbp
	subq	$64, %rsp
	movw	%di, -4(%rbp)
	movw	%si, -2(%rbp)
	movq	%rdx, -48(%rbp)
	movl	$.L.str.81, %edi
	xorl	%eax, %eax
	callq	printf@PLT
	movl	$0, -40(%rbp)
	movl	$1056964608, -36(%rbp)          # imm = 0x3F000000
	movq	$0, -32(%rbp)
	movl	$0, -24(%rbp)
	movl	$1056964608, -20(%rbp)          # imm = 0x3F000000
	movq	$0, -16(%rbp)
	movq	-24(%rbp), %rax
	movq	-16(%rbp), %rdx
	addq	$64, %rsp
	popq	%rbp
	.cfi_def_cfa %rsp, 8
	retq
.Lfunc_end44:
	.size	FF_function_167, .Lfunc_end44-FF_function_167
	.cfi_endproc
                                        # -- End function
	.globl	FF_function_169                 # -- Begin function FF_function_169
	.p2align	4, 0x90
	.type	FF_function_169,@function
FF_function_169:                        # @FF_function_169
	.cfi_startproc
# %bb.0:
	pushq	%rbp
	.cfi_def_cfa_offset 16
	.cfi_offset %rbp, -16
	movq	%rsp, %rbp
	.cfi_def_cfa_register %rbp
	subq	$16, %rsp
	movb	%dil, -5(%rbp)
	movb	%sil, -4(%rbp)
	movb	%dl, -3(%rbp)
	movq	%rcx, -16(%rbp)
	movw	%r8w, -8(%rbp)
	movabsq	$.L.str.82, %rdi
	movb	$0, %al
	callq	printf@PLT
	movw	$0, -2(%rbp)
	movabsq	$.L.str.83, %rdi
	movb	$0, %al
	callq	printf@PLT
	movswl	-2(%rbp), %eax
	addq	$16, %rsp
	popq	%rbp
	.cfi_def_cfa %rsp, 8
	retq
.Lfunc_end45:
	.size	FF_function_169, .Lfunc_end45-FF_function_169
	.cfi_endproc
                                        # -- End function
	.globl	FF_function_168                 # -- Begin function FF_function_168
	.p2align	4, 0x90
	.type	FF_function_168,@function
FF_function_168:                        # @FF_function_168
	.cfi_startproc
# %bb.0:
	pushq	%rbp
	.cfi_def_cfa_offset 16
	.cfi_offset %rbp, -16
	movq	%rsp, %rbp
	.cfi_def_cfa_register %rbp
	subq	$16, %rsp
	movq	%rdi, -16(%rbp)
	movabsq	$.L.str.84, %rdi
	movb	$0, %al
	callq	printf@PLT
	xorl	%edi, %edi
	xorl	%esi, %esi
	xorl	%edx, %edx
	xorl	%ecx, %ecx
	xorl	%r8d, %r8d
	callq	FF_function_169
	movw	%ax, -2(%rbp)
	movabsq	$.L.str.85, %rdi
	movb	$0, %al
	callq	printf@PLT
	movswl	-2(%rbp), %eax
	addq	$16, %rsp
	popq	%rbp
	.cfi_def_cfa %rsp, 8
	retq
.Lfunc_end46:
	.size	FF_function_168, .Lfunc_end46-FF_function_168
	.cfi_endproc
                                        # -- End function
	.globl	FF_function_171                 # -- Begin function FF_function_171
	.p2align	4, 0x90
	.type	FF_function_171,@function
FF_function_171:                        # @FF_function_171
	.cfi_startproc
# %bb.0:
	pushq	%rbp
	.cfi_def_cfa_offset 16
	.cfi_offset %rbp, -16
	movq	%rsp, %rbp
	.cfi_def_cfa_register %rbp
	subq	$256, %rsp                      # imm = 0x100
	testb	%al, %al
	je	.LBB47_5
# %bb.4:
	movaps	%xmm0, -208(%rbp)
	movaps	%xmm1, -192(%rbp)
	movaps	%xmm2, -176(%rbp)
	movaps	%xmm3, -160(%rbp)
	movaps	%xmm4, -144(%rbp)
	movaps	%xmm5, -128(%rbp)
	movaps	%xmm6, -112(%rbp)
	movaps	%xmm7, -96(%rbp)
.LBB47_5:
	movq	%r9, -216(%rbp)
	movq	%r8, -224(%rbp)
	movq	%rcx, -232(%rbp)
	movq	%rdx, -240(%rbp)
	movq	%rdi, -80(%rbp)
	movq	%rsi, -72(%rbp)
	movabsq	$.L.str.86, %rdi
	movb	$0, %al
	callq	printf@PLT
	leaq	-64(%rbp), %rax
	leaq	-256(%rbp), %rcx
	movq	%rcx, 16(%rax)
	leaq	16(%rbp), %rcx
	movq	%rcx, 8(%rax)
	movl	$48, 4(%rax)
	movl	$16, (%rax)
	leaq	-64(%rbp), %rcx
	movl	-64(%rbp), %edx
	cmpl	$40, %edx
	ja	.LBB47_2
# %bb.1:
	movslq	%edx, %rax
	addq	16(%rcx), %rax
	addl	$8, %edx
	movl	%edx, (%rcx)
	jmp	.LBB47_3
.LBB47_2:
	movq	8(%rcx), %rax
	movq	%rax, %rdx
	addq	$8, %rdx
	movq	%rdx, 8(%rcx)
.LBB47_3:
	movq	(%rax), %rax
	movq	%rax, -40(%rbp)
	movl	$0, -32(%rbp)
	movl	$1056964608, -28(%rbp)          # imm = 0x3F000000
	movq	$0, -24(%rbp)
	movq	-32(%rbp), %rdi
	movq	-24(%rbp), %rsi
	movl	$1, %edx
	xorl	%eax, %eax
	callq	FF_function_171
	movl	$0, -16(%rbp)
	movl	$1056964608, -12(%rbp)          # imm = 0x3F000000
	movq	$0, -8(%rbp)
	movq	-16(%rbp), %rdi
	movq	-8(%rbp), %rsi
	movl	$1, %edx
	movl	$2, %ecx
	movl	$3, %r8d
	xorl	%eax, %eax
	callq	FF_function_171
	movl	$.L.str.87, %edi
	xorl	%eax, %eax
	callq	printf@PLT
	movq	-40(%rbp), %rax
	addq	$256, %rsp                      # imm = 0x100
	popq	%rbp
	.cfi_def_cfa %rsp, 8
	retq
.Lfunc_end47:
	.size	FF_function_171, .Lfunc_end47-FF_function_171
	.cfi_endproc
                                        # -- End function
	.section	.rodata.cst4,"aM",@progbits,4
	.p2align	2                               # -- Begin function FF_function_166
.LCPI48_0:
	.long	0x3f000000                      # float 0.5
	.text
	.globl	FF_function_166
	.p2align	4, 0x90
	.type	FF_function_166,@function
FF_function_166:                        # @FF_function_166
	.cfi_startproc
# %bb.0:
	pushq	%rbp
	.cfi_def_cfa_offset 16
	.cfi_offset %rbp, -16
	movq	%rsp, %rbp
	.cfi_def_cfa_register %rbp
	subq	$48, %rsp
	movw	%di, -4(%rbp)
	movabsq	$.L.str.88, %rdi
	movb	$0, %al
	callq	printf@PLT
	xorl	%edi, %edi
	xorl	%esi, %esi
	xorl	%edx, %edx
	callq	FF_function_167
	movq	%rax, -40(%rbp)
	movq	%rdx, -32(%rbp)
	movl	$0, -24(%rbp)
	movss	.LCPI48_0(%rip), %xmm0          # xmm0 = mem[0],zero,zero,zero
	movss	%xmm0, -20(%rbp)
	movq	$0, -16(%rbp)
	movq	-24(%rbp), %rdi
	movq	-16(%rbp), %rsi
	xorl	%edx, %edx
	xorps	%xmm0, %xmm0
	movb	$1, %al
	callq	FF_function_171
	movq	%rax, %rdi
	callq	FF_function_168
	movw	%ax, -2(%rbp)
	movabsq	$.L.str.89, %rdi
	movb	$0, %al
	callq	printf@PLT
	movswl	-2(%rbp), %eax
	addq	$48, %rsp
	popq	%rbp
	.cfi_def_cfa %rsp, 8
	retq
.Lfunc_end48:
	.size	FF_function_166, .Lfunc_end48-FF_function_166
	.cfi_endproc
                                        # -- End function
	.globl	FF_function_173                 # -- Begin function FF_function_173
	.p2align	4, 0x90
	.type	FF_function_173,@function
FF_function_173:                        # @FF_function_173
	.cfi_startproc
# %bb.0:
	pushq	%rbp
	.cfi_def_cfa_offset 16
	.cfi_offset %rbp, -16
	movq	%rsp, %rbp
	.cfi_def_cfa_register %rbp
	subq	$16, %rsp
	movabsq	$.L.str.90, %rdi
	movb	$0, %al
	callq	printf@PLT
	xorps	%xmm0, %xmm0
	movss	%xmm0, -8(%rbp)
	movw	$0, -2(%rbp)
	movabsq	$.L.str.91, %rdi
	movb	$0, %al
	callq	printf@PLT
	movswl	-2(%rbp), %eax
	addq	$16, %rsp
	popq	%rbp
	.cfi_def_cfa %rsp, 8
	retq
.Lfunc_end49:
	.size	FF_function_173, .Lfunc_end49-FF_function_173
	.cfi_endproc
                                        # -- End function
	.globl	FF_function_172                 # -- Begin function FF_function_172
	.p2align	4, 0x90
	.type	FF_function_172,@function
FF_function_172:                        # @FF_function_172
	.cfi_startproc
# %bb.0:
	pushq	%rbp
	.cfi_def_cfa_offset 16
	.cfi_offset %rbp, -16
	movq	%rsp, %rbp
	.cfi_def_cfa_register %rbp
	subq	$16, %rsp
	movabsq	$.L.str.92, %rdi
	movb	$0, %al
	callq	printf@PLT
	xorl	%eax, %eax
	cwtl
	addq	$16, %rsp
	popq	%rbp
	.cfi_def_cfa %rsp, 8
	retq
.Lfunc_end50:
	.size	FF_function_172, .Lfunc_end50-FF_function_172
	.cfi_endproc
                                        # -- End function
	.globl	FF_function_162                 # -- Begin function FF_function_162
	.p2align	4, 0x90
	.type	FF_function_162,@function
FF_function_162:                        # @FF_function_162
	.cfi_startproc
# %bb.0:
	pushq	%rbp
	.cfi_def_cfa_offset 16
	.cfi_offset %rbp, -16
	movq	%rsp, %rbp
	.cfi_def_cfa_register %rbp
	subq	$32, %rsp
	movabsq	$.L.str.93, %rdi
	movb	$0, %al
	callq	printf@PLT
	callq	FF_function_163
	movq	%rax, -24(%rbp)
	movq	%rdx, -16(%rbp)
	callq	FF_function_172
	movswl	%ax, %edi
	callq	FF_function_166
	movw	%ax, -2(%rbp)
	movabsq	$.L.str.94, %rdi
	movb	$0, %al
	callq	printf@PLT
	movswl	-2(%rbp), %eax
	addq	$32, %rsp
	popq	%rbp
	.cfi_def_cfa %rsp, 8
	retq
.Lfunc_end51:
	.size	FF_function_162, .Lfunc_end51-FF_function_162
	.cfi_endproc
                                        # -- End function
	.globl	FF_function_137                 # -- Begin function FF_function_137
	.p2align	4, 0x90
	.type	FF_function_137,@function
FF_function_137:                        # @FF_function_137
	.cfi_startproc
# %bb.0:
	pushq	%rbp
	.cfi_def_cfa_offset 16
	.cfi_offset %rbp, -16
	movq	%rsp, %rbp
	.cfi_def_cfa_register %rbp
	subq	$16, %rsp
	movb	%dil, -10(%rbp)
	movb	%sil, -9(%rbp)
	movabsq	$.L.str.95, %rdi
	movb	$0, %al
	callq	printf@PLT
	callq	FF_function_153
	callq	FF_function_138
	movb	%al, -8(%rbp)
	xorl	%eax, %eax
	cwtl
	addq	$16, %rsp
	popq	%rbp
	.cfi_def_cfa %rsp, 8
	retq
.Lfunc_end52:
	.size	FF_function_137, .Lfunc_end52-FF_function_137
	.cfi_endproc
                                        # -- End function
	.globl	FF_function_136                 # -- Begin function FF_function_136
	.p2align	4, 0x90
	.type	FF_function_136,@function
FF_function_136:                        # @FF_function_136
	.cfi_startproc
# %bb.0:
	pushq	%rbp
	.cfi_def_cfa_offset 16
	.cfi_offset %rbp, -16
	movq	%rsp, %rbp
	.cfi_def_cfa_register %rbp
	subq	$32, %rsp
	movw	%di, -4(%rbp)
	movb	%sil, -1(%rbp)
	movl	$.L.str.96, %edi
	xorl	%eax, %eax
	callq	printf@PLT
	xorl	%edi, %edi
	xorl	%esi, %esi
	callq	FF_function_137
	movups	.L__const.FF_function_136.FF_x(%rip), %xmm0
	movaps	%xmm0, -32(%rbp)
	movl	$.L.str.97, %edi
	xorl	%eax, %eax
	callq	printf@PLT
	movq	-32(%rbp), %rax
	movq	-24(%rbp), %rdx
	addq	$32, %rsp
	popq	%rbp
	.cfi_def_cfa %rsp, 8
	retq
.Lfunc_end53:
	.size	FF_function_136, .Lfunc_end53-FF_function_136
	.cfi_endproc
                                        # -- End function
	.globl	FF_function_135                 # -- Begin function FF_function_135
	.p2align	4, 0x90
	.type	FF_function_135,@function
FF_function_135:                        # @FF_function_135
	.cfi_startproc
# %bb.0:
	pushq	%rbp
	.cfi_def_cfa_offset 16
	.cfi_offset %rbp, -16
	movq	%rsp, %rbp
	.cfi_def_cfa_register %rbp
	subq	$32, %rsp
	movq	%rdi, -32(%rbp)
	movb	%sil, -3(%rbp)
	movabsq	$.L.str.98, %rdi
	movb	$0, %al
	callq	printf@PLT
	xorl	%edi, %edi
	xorl	%esi, %esi
	callq	FF_function_136
	movq	%rax, -24(%rbp)
	movq	%rdx, -16(%rbp)
	movw	$0, -2(%rbp)
	movabsq	$.L.str.99, %rdi
	movb	$0, %al
	callq	printf@PLT
	movswl	-2(%rbp), %eax
	addq	$32, %rsp
	popq	%rbp
	.cfi_def_cfa %rsp, 8
	retq
.Lfunc_end54:
	.size	FF_function_135, .Lfunc_end54-FF_function_135
	.cfi_endproc
                                        # -- End function
	.globl	FF_function_134                 # -- Begin function FF_function_134
	.p2align	4, 0x90
	.type	FF_function_134,@function
FF_function_134:                        # @FF_function_134
	.cfi_startproc
# %bb.0:
	pushq	%rbp
	.cfi_def_cfa_offset 16
	.cfi_offset %rbp, -16
	movq	%rsp, %rbp
	.cfi_def_cfa_register %rbp
	subq	$32, %rsp
	movb	%dil, -2(%rbp)
	movb	%sil, -1(%rbp)
	movl	$.L.str.100, %edi
	xorl	%eax, %eax
	callq	printf@PLT
	xorl	%edi, %edi
	xorl	%esi, %esi
	callq	FF_function_135
	movups	.L__const.FF_function_134.FF_x(%rip), %xmm0
	movaps	%xmm0, -32(%rbp)
	movl	$.L.str.101, %edi
	xorl	%eax, %eax
	callq	printf@PLT
	movq	-32(%rbp), %rax
	movq	-24(%rbp), %rdx
	addq	$32, %rsp
	popq	%rbp
	.cfi_def_cfa %rsp, 8
	retq
.Lfunc_end55:
	.size	FF_function_134, .Lfunc_end55-FF_function_134
	.cfi_endproc
                                        # -- End function
	.globl	FF_function_133                 # -- Begin function FF_function_133
	.p2align	4, 0x90
	.type	FF_function_133,@function
FF_function_133:                        # @FF_function_133
	.cfi_startproc
# %bb.0:
	pushq	%rbp
	.cfi_def_cfa_offset 16
	.cfi_offset %rbp, -16
	movq	%rsp, %rbp
	.cfi_def_cfa_register %rbp
	subq	$48, %rsp
	movsd	%xmm0, -40(%rbp)
	movq	%rdi, -32(%rbp)
	movabsq	$.L.str.102, %rdi
	movb	$0, %al
	callq	printf@PLT
	xorl	%edi, %edi
	xorl	%esi, %esi
	callq	FF_function_134
	movq	%rax, -24(%rbp)
	movq	%rdx, -16(%rbp)
	movw	$0, -2(%rbp)
	movabsq	$.L.str.103, %rdi
	movb	$0, %al
	callq	printf@PLT
	movzwl	-2(%rbp), %eax
	addq	$48, %rsp
	popq	%rbp
	.cfi_def_cfa %rsp, 8
	retq
.Lfunc_end56:
	.size	FF_function_133, .Lfunc_end56-FF_function_133
	.cfi_endproc
                                        # -- End function
	.globl	FF_function_132                 # -- Begin function FF_function_132
	.p2align	4, 0x90
	.type	FF_function_132,@function
FF_function_132:                        # @FF_function_132
	.cfi_startproc
# %bb.0:
	pushq	%rbp
	.cfi_def_cfa_offset 16
	.cfi_offset %rbp, -16
	movq	%rsp, %rbp
	.cfi_def_cfa_register %rbp
	subq	$16, %rsp
	movb	%dil, -2(%rbp)
	movw	%si, -4(%rbp)
	movabsq	$.L.str.104, %rdi
	movb	$0, %al
	callq	printf@PLT
	xorps	%xmm0, %xmm0
	xorl	%edi, %edi
	callq	FF_function_133
	movb	$0, -1(%rbp)
	movabsq	$.L.str.105, %rdi
	movb	$0, %al
	callq	printf@PLT
	movsbl	-1(%rbp), %eax
	addq	$16, %rsp
	popq	%rbp
	.cfi_def_cfa %rsp, 8
	retq
.Lfunc_end57:
	.size	FF_function_132, .Lfunc_end57-FF_function_132
	.cfi_endproc
                                        # -- End function
	.globl	FF_function_131                 # -- Begin function FF_function_131
	.p2align	4, 0x90
	.type	FF_function_131,@function
FF_function_131:                        # @FF_function_131
	.cfi_startproc
# %bb.0:
	pushq	%rbp
	.cfi_def_cfa_offset 16
	.cfi_offset %rbp, -16
	movq	%rsp, %rbp
	.cfi_def_cfa_register %rbp
	subq	$16, %rsp
	movq	%rdi, -16(%rbp)
	movabsq	$.L.str.106, %rdi
	movb	$0, %al
	callq	printf@PLT
	xorl	%edi, %edi
	xorl	%esi, %esi
	callq	FF_function_132
	movq	$0, -8(%rbp)
	movabsq	$.L.str.107, %rdi
	movb	$0, %al
	callq	printf@PLT
	movq	-8(%rbp), %rax
	addq	$16, %rsp
	popq	%rbp
	.cfi_def_cfa %rsp, 8
	retq
.Lfunc_end58:
	.size	FF_function_131, .Lfunc_end58-FF_function_131
	.cfi_endproc
                                        # -- End function
	.globl	FF_function_130                 # -- Begin function FF_function_130
	.p2align	4, 0x90
	.type	FF_function_130,@function
FF_function_130:                        # @FF_function_130
	.cfi_startproc
# %bb.0:
	pushq	%rbp
	.cfi_def_cfa_offset 16
	.cfi_offset %rbp, -16
	movq	%rsp, %rbp
	.cfi_def_cfa_register %rbp
	subq	$16, %rsp
	movb	%dil, -1(%rbp)
	movabsq	$.L.str.108, %rdi
	movb	$0, %al
	callq	printf@PLT
	xorl	%edi, %edi
	callq	FF_function_131
	movq	$0, -16(%rbp)
	movabsq	$.L.str.109, %rdi
	movb	$0, %al
	callq	printf@PLT
	movq	-16(%rbp), %rax
	addq	$16, %rsp
	popq	%rbp
	.cfi_def_cfa %rsp, 8
	retq
.Lfunc_end59:
	.size	FF_function_130, .Lfunc_end59-FF_function_130
	.cfi_endproc
                                        # -- End function
	.globl	FF_function_129                 # -- Begin function FF_function_129
	.p2align	4, 0x90
	.type	FF_function_129,@function
FF_function_129:                        # @FF_function_129
	.cfi_startproc
# %bb.0:
	pushq	%rbp
	.cfi_def_cfa_offset 16
	.cfi_offset %rbp, -16
	movq	%rsp, %rbp
	.cfi_def_cfa_register %rbp
	subq	$80, %rsp
	movq	64(%rbp), %rax
	movw	56(%rbp), %ax
	movq	48(%rbp), %rax
	movb	40(%rbp), %al
	movb	32(%rbp), %al
	movb	24(%rbp), %al
	movb	16(%rbp), %al
	movb	%dil, -2(%rbp)
	movsd	%xmm0, -72(%rbp)
	movq	%rsi, -64(%rbp)
	movq	%rdx, -56(%rbp)
	movss	%xmm1, -32(%rbp)
	movq	%rcx, -48(%rbp)
	movb	%r8b, -1(%rbp)
	movq	%r9, -40(%rbp)
	movss	%xmm2, -28(%rbp)
	movabsq	$.L.str.110, %rdi
	movb	$0, %al
	callq	printf@PLT
	xorl	%edi, %edi
	callq	FF_function_130
	callq	rand@PLT
	cmpl	$1, %eax
	jge	.LBB60_2
# %bb.1:
	movq	$0, -16(%rbp)
	jmp	.LBB60_3
.LBB60_2:
	movq	$0, -24(%rbp)
	movabsq	$.L.str.111, %rdi
	movb	$0, %al
	callq	printf@PLT
	movq	-24(%rbp), %rax
	movq	%rax, -16(%rbp)
.LBB60_3:
	movq	-16(%rbp), %rax
	addq	$80, %rsp
	popq	%rbp
	.cfi_def_cfa %rsp, 8
	retq
.Lfunc_end60:
	.size	FF_function_129, .Lfunc_end60-FF_function_129
	.cfi_endproc
                                        # -- End function
	.globl	FF_function_126                 # -- Begin function FF_function_126
	.p2align	4, 0x90
	.type	FF_function_126,@function
FF_function_126:                        # @FF_function_126
	.cfi_startproc
# %bb.0:
	pushq	%rbp
	.cfi_def_cfa_offset 16
	.cfi_offset %rbp, -16
	movq	%rsp, %rbp
	.cfi_def_cfa_register %rbp
	subq	$96, %rsp
	movq	%rdi, -32(%rbp)
	movabsq	$.L.str.112, %rdi
	movb	$0, %al
	callq	printf@PLT
	xorl	%edi, %edi
	xorps	%xmm0, %xmm0
	xorl	%esi, %esi
	xorl	%edx, %edx
	xorps	%xmm1, %xmm1
	xorl	%ecx, %ecx
	xorl	%r8d, %r8d
	xorl	%r9d, %r9d
	xorps	%xmm2, %xmm2
	movl	$0, (%rsp)
	movl	$0, 8(%rsp)
	movl	$0, 16(%rsp)
	movl	$0, 24(%rsp)
	movq	$0, 32(%rsp)
	movl	$0, 40(%rsp)
	movq	$0, 48(%rsp)
	callq	FF_function_129
	movq	%rax, %rdi
	xorl	%esi, %esi
	xorps	%xmm0, %xmm0
	movb	$1, %al
	callq	FF_function_128
	callq	rand@PLT
	cmpl	$1, %eax
	jge	.LBB61_2
# %bb.1:
	movq	$0, -16(%rbp)
	jmp	.LBB61_3
.LBB61_2:
	movw	$0, -8(%rbp)
	movq	$0, -24(%rbp)
	movabsq	$.L.str.113, %rdi
	movb	$0, %al
	callq	printf@PLT
	movq	-24(%rbp), %rax
	movq	%rax, -16(%rbp)
.LBB61_3:
	movq	-16(%rbp), %rax
	addq	$96, %rsp
	popq	%rbp
	.cfi_def_cfa %rsp, 8
	retq
.Lfunc_end61:
	.size	FF_function_126, .Lfunc_end61-FF_function_126
	.cfi_endproc
                                        # -- End function
	.globl	FF_function_125                 # -- Begin function FF_function_125
	.p2align	4, 0x90
	.type	FF_function_125,@function
FF_function_125:                        # @FF_function_125
	.cfi_startproc
# %bb.0:
	pushq	%rbp
	.cfi_def_cfa_offset 16
	.cfi_offset %rbp, -16
	movq	%rsp, %rbp
	.cfi_def_cfa_register %rbp
	subq	$32, %rsp
	movsd	%xmm0, -24(%rbp)
	movl	$.L.str.114, %edi
	xorl	%eax, %eax
	callq	printf@PLT
	xorl	%edi, %edi
	callq	FF_function_126
	movups	.L__const.FF_function_125.FF_x(%rip), %xmm0
	movaps	%xmm0, -16(%rbp)
	movl	$.L.str.115, %edi
	xorl	%eax, %eax
	callq	printf@PLT
	movq	-16(%rbp), %rax
	movq	-8(%rbp), %rdx
	addq	$32, %rsp
	popq	%rbp
	.cfi_def_cfa %rsp, 8
	retq
.Lfunc_end62:
	.size	FF_function_125, .Lfunc_end62-FF_function_125
	.cfi_endproc
                                        # -- End function
	.globl	FF_function_124                 # -- Begin function FF_function_124
	.p2align	4, 0x90
	.type	FF_function_124,@function
FF_function_124:                        # @FF_function_124
	.cfi_startproc
# %bb.0:
	pushq	%rbp
	.cfi_def_cfa_offset 16
	.cfi_offset %rbp, -16
	movq	%rsp, %rbp
	.cfi_def_cfa_register %rbp
	subq	$48, %rsp
	movss	%xmm0, -12(%rbp)
	movq	%rdi, -40(%rbp)
	movabsq	$.L.str.116, %rdi
	movb	$0, %al
	callq	printf@PLT
	xorps	%xmm0, %xmm0
	callq	FF_function_125
	movq	%rax, -32(%rbp)
	movq	%rdx, -24(%rbp)
	movq	$0, -8(%rbp)
	movabsq	$.L.str.117, %rdi
	movb	$0, %al
	callq	printf@PLT
	movq	-8(%rbp), %rax
	addq	$48, %rsp
	popq	%rbp
	.cfi_def_cfa %rsp, 8
	retq
.Lfunc_end63:
	.size	FF_function_124, .Lfunc_end63-FF_function_124
	.cfi_endproc
                                        # -- End function
	.globl	FF_function_121                 # -- Begin function FF_function_121
	.p2align	4, 0x90
	.type	FF_function_121,@function
FF_function_121:                        # @FF_function_121
	.cfi_startproc
# %bb.0:
	pushq	%rbp
	.cfi_def_cfa_offset 16
	.cfi_offset %rbp, -16
	movq	%rsp, %rbp
	.cfi_def_cfa_register %rbp
	subq	$32, %rsp
	movw	%di, -4(%rbp)
	movss	%xmm0, -24(%rbp)
	movss	%xmm1, -20(%rbp)
	movb	%sil, -1(%rbp)
	movq	%rdx, -32(%rbp)
	movabsq	$.L.str.118, %rdi
	movb	$0, %al
	callq	printf@PLT
	xorps	%xmm0, %xmm0
	xorl	%edi, %edi
	callq	FF_function_124
	movq	%rax, %rdi
	xorps	%xmm0, %xmm0
	xorl	%esi, %esi
	movb	$1, %al
	callq	FF_function_123
	xorps	%xmm0, %xmm0
	movsd	%xmm0, -16(%rbp)
	movabsq	$.L.str.119, %rdi
	movb	$0, %al
	callq	printf@PLT
	movsd	-16(%rbp), %xmm0                # xmm0 = mem[0],zero
	addq	$32, %rsp
	popq	%rbp
	.cfi_def_cfa %rsp, 8
	retq
.Lfunc_end64:
	.size	FF_function_121, .Lfunc_end64-FF_function_121
	.cfi_endproc
                                        # -- End function
	.globl	FF_function_120                 # -- Begin function FF_function_120
	.p2align	4, 0x90
	.type	FF_function_120,@function
FF_function_120:                        # @FF_function_120
	.cfi_startproc
# %bb.0:
	pushq	%rbp
	.cfi_def_cfa_offset 16
	.cfi_offset %rbp, -16
	movq	%rsp, %rbp
	.cfi_def_cfa_register %rbp
	subq	$64, %rsp
	movq	16(%rbp), %rax
	movss	%xmm0, -12(%rbp)
	movb	%dil, -2(%rbp)
	movb	%sil, -1(%rbp)
	movq	%rdx, -56(%rbp)
	movq	%rcx, -48(%rbp)
	movw	%r8w, -4(%rbp)
	movss	%xmm1, -8(%rbp)
	movq	%r9, -40(%rbp)
	movl	$.L.str.120, %edi
	xorl	%eax, %eax
	callq	printf@PLT
	xorl	%edi, %edi
	xorps	%xmm0, %xmm0
	xorps	%xmm1, %xmm1
	xorl	%esi, %esi
	xorl	%edx, %edx
	callq	FF_function_121
	movups	.L__const.FF_function_120.FF_x(%rip), %xmm0
	movaps	%xmm0, -32(%rbp)
	movl	$.L.str.121, %edi
	xorl	%eax, %eax
	callq	printf@PLT
	movq	-32(%rbp), %rax
	movq	-24(%rbp), %rdx
	addq	$64, %rsp
	popq	%rbp
	.cfi_def_cfa %rsp, 8
	retq
.Lfunc_end65:
	.size	FF_function_120, .Lfunc_end65-FF_function_120
	.cfi_endproc
                                        # -- End function
	.globl	FF_function_119                 # -- Begin function FF_function_119
	.p2align	4, 0x90
	.type	FF_function_119,@function
FF_function_119:                        # @FF_function_119
	.cfi_startproc
# %bb.0:
	pushq	%rbp
	.cfi_def_cfa_offset 16
	.cfi_offset %rbp, -16
	movq	%rsp, %rbp
	.cfi_def_cfa_register %rbp
	subq	$48, %rsp
	movss	%xmm0, -16(%rbp)
	movq	%rdi, -40(%rbp)
	movw	%si, -10(%rbp)
	movabsq	$.L.str.122, %rdi
	movb	$0, %al
	callq	printf@PLT
	xorps	%xmm0, %xmm0
	xorl	%edi, %edi
	xorl	%esi, %esi
	xorl	%edx, %edx
	xorl	%ecx, %ecx
	xorl	%r8d, %r8d
	xorps	%xmm1, %xmm1
	xorl	%r9d, %r9d
	movq	$0, (%rsp)
	callq	FF_function_120
	movq	%rax, -32(%rbp)
	movq	%rdx, -24(%rbp)
	leaq	-8(%rbp), %rdi
	xorl	%esi, %esi
	movl	$1, %edx
	callq	memset@PLT
	movabsq	$.L.str.123, %rdi
	movb	$0, %al
	callq	printf@PLT
	movb	-8(%rbp), %al
	addq	$48, %rsp
	popq	%rbp
	.cfi_def_cfa %rsp, 8
	retq
.Lfunc_end66:
	.size	FF_function_119, .Lfunc_end66-FF_function_119
	.cfi_endproc
                                        # -- End function
	.globl	FF_function_118                 # -- Begin function FF_function_118
	.p2align	4, 0x90
	.type	FF_function_118,@function
FF_function_118:                        # @FF_function_118
	.cfi_startproc
# %bb.0:
	pushq	%rbp
	.cfi_def_cfa_offset 16
	.cfi_offset %rbp, -16
	movq	%rsp, %rbp
	.cfi_def_cfa_register %rbp
	subq	$32, %rsp
	movq	%rdi, -32(%rbp)
	movq	%rsi, -24(%rbp)
	movabsq	$.L.str.124, %rdi
	movb	$0, %al
	callq	printf@PLT
	xorps	%xmm0, %xmm0
	xorl	%edi, %edi
	xorl	%esi, %esi
	callq	FF_function_119
	movb	%al, -8(%rbp)
	movq	$0, -16(%rbp)
	movabsq	$.L.str.125, %rdi
	movb	$0, %al
	callq	printf@PLT
	movq	-16(%rbp), %rax
	addq	$32, %rsp
	popq	%rbp
	.cfi_def_cfa %rsp, 8
	retq
.Lfunc_end67:
	.size	FF_function_118, .Lfunc_end67-FF_function_118
	.cfi_endproc
                                        # -- End function
	.globl	FF_function_115                 # -- Begin function FF_function_115
	.p2align	4, 0x90
	.type	FF_function_115,@function
FF_function_115:                        # @FF_function_115
	.cfi_startproc
# %bb.0:
	pushq	%rbp
	.cfi_def_cfa_offset 16
	.cfi_offset %rbp, -16
	movq	%rsp, %rbp
	.cfi_def_cfa_register %rbp
	subq	$48, %rsp
	movw	%di, -18(%rbp)
	movq	%rsi, -40(%rbp)
	movb	%dl, -12(%rbp)
	movw	%cx, -16(%rbp)
	movw	%r8w, -14(%rbp)
	movb	%r9b, -11(%rbp)
	movss	%xmm0, -28(%rbp)
	movss	%xmm1, -24(%rbp)
	movabsq	$.L.str.126, %rdi
	movb	$0, %al
	callq	printf@PLT
	xorl	%edi, %edi
	xorl	%esi, %esi
	callq	FF_function_118
	movq	%rax, %rdi
	xorps	%xmm0, %xmm0
	xorps	%xmm1, %xmm1
	movb	$2, %al
	callq	FF_function_117
	movb	%al, -8(%rbp)
	movw	$0, -10(%rbp)
	movabsq	$.L.str.127, %rdi
	movb	$0, %al
	callq	printf@PLT
	movswl	-10(%rbp), %eax
	addq	$48, %rsp
	popq	%rbp
	.cfi_def_cfa %rsp, 8
	retq
.Lfunc_end68:
	.size	FF_function_115, .Lfunc_end68-FF_function_115
	.cfi_endproc
                                        # -- End function
	.globl	FF_function_114                 # -- Begin function FF_function_114
	.p2align	4, 0x90
	.type	FF_function_114,@function
FF_function_114:                        # @FF_function_114
	.cfi_startproc
# %bb.0:
	pushq	%rbp
	.cfi_def_cfa_offset 16
	.cfi_offset %rbp, -16
	movq	%rsp, %rbp
	.cfi_def_cfa_register %rbp
	subq	$16, %rsp
	movw	%di, -12(%rbp)
	movb	%sil, -10(%rbp)
	movb	%dl, -9(%rbp)
	movabsq	$.L.str.128, %rdi
	movb	$0, %al
	callq	printf@PLT
	xorl	%edi, %edi
	xorl	%esi, %esi
	xorl	%edx, %edx
	xorl	%ecx, %ecx
	xorl	%r8d, %r8d
	xorl	%r9d, %r9d
	xorps	%xmm0, %xmm0
	xorps	%xmm1, %xmm1
	callq	FF_function_115
	leaq	-8(%rbp), %rdi
	xorl	%esi, %esi
	movl	$1, %edx
	callq	memset@PLT
	movabsq	$.L.str.129, %rdi
	movb	$0, %al
	callq	printf@PLT
	movb	-8(%rbp), %al
	addq	$16, %rsp
	popq	%rbp
	.cfi_def_cfa %rsp, 8
	retq
.Lfunc_end69:
	.size	FF_function_114, .Lfunc_end69-FF_function_114
	.cfi_endproc
                                        # -- End function
	.globl	FF_function_113                 # -- Begin function FF_function_113
	.p2align	4, 0x90
	.type	FF_function_113,@function
FF_function_113:                        # @FF_function_113
	.cfi_startproc
# %bb.0:
	pushq	%rbp
	.cfi_def_cfa_offset 16
	.cfi_offset %rbp, -16
	movq	%rsp, %rbp
	.cfi_def_cfa_register %rbp
	subq	$64, %rsp
	movq	%rdi, -56(%rbp)
	movq	%rsi, -48(%rbp)
	movq	%rdx, -40(%rbp)
	movw	%cx, -14(%rbp)
	movw	%r8w, -12(%rbp)
	movw	%r9w, -10(%rbp)
	movl	$.L.str.130, %edi
	xorl	%eax, %eax
	callq	printf@PLT
	xorl	%edi, %edi
	xorl	%esi, %esi
	xorl	%edx, %edx
	callq	FF_function_114
	movb	%al, -8(%rbp)
	movups	.L__const.FF_function_113.FF_x(%rip), %xmm0
	movaps	%xmm0, -32(%rbp)
	movl	$.L.str.131, %edi
	xorl	%eax, %eax
	callq	printf@PLT
	movq	-32(%rbp), %rax
	movq	-24(%rbp), %rdx
	addq	$64, %rsp
	popq	%rbp
	.cfi_def_cfa %rsp, 8
	retq
.Lfunc_end70:
	.size	FF_function_113, .Lfunc_end70-FF_function_113
	.cfi_endproc
                                        # -- End function
	.globl	FF_function_110                 # -- Begin function FF_function_110
	.p2align	4, 0x90
	.type	FF_function_110,@function
FF_function_110:                        # @FF_function_110
	.cfi_startproc
# %bb.0:
	pushq	%rbp
	.cfi_def_cfa_offset 16
	.cfi_offset %rbp, -16
	movq	%rsp, %rbp
	.cfi_def_cfa_register %rbp
	subq	$48, %rsp
	movw	%di, -14(%rbp)
	movw	%si, -12(%rbp)
	movb	%dl, -9(%rbp)
	movq	%rcx, -40(%rbp)
	movabsq	$.L.str.132, %rdi
	movb	$0, %al
	callq	printf@PLT
	xorl	%edi, %edi
	xorl	%esi, %esi
	xorl	%edx, %edx
	xorl	%ecx, %ecx
	xorl	%r8d, %r8d
	xorl	%r9d, %r9d
	callq	FF_function_113
	movq	%rax, -32(%rbp)
	movq	%rdx, -24(%rbp)
	movq	-32(%rbp), %rdi
	movq	-24(%rbp), %rsi
	xorl	%edx, %edx
	xorl	%ecx, %ecx
	movb	$0, %al
	callq	FF_function_112
	movb	%al, -8(%rbp)
	xorl	%eax, %eax
	addq	$48, %rsp
	popq	%rbp
	.cfi_def_cfa %rsp, 8
	retq
.Lfunc_end71:
	.size	FF_function_110, .Lfunc_end71-FF_function_110
	.cfi_endproc
                                        # -- End function
	.globl	FF_function_109                 # -- Begin function FF_function_109
	.p2align	4, 0x90
	.type	FF_function_109,@function
FF_function_109:                        # @FF_function_109
	.cfi_startproc
# %bb.0:
	pushq	%rbp
	.cfi_def_cfa_offset 16
	.cfi_offset %rbp, -16
	movq	%rsp, %rbp
	.cfi_def_cfa_register %rbp
	subq	$16, %rsp
	movss	%xmm0, -8(%rbp)
	movabsq	$.L.str.133, %rdi
	movb	$0, %al
	callq	printf@PLT
	xorl	%edi, %edi
	xorl	%esi, %esi
	xorl	%edx, %edx
	xorl	%ecx, %ecx
	callq	FF_function_110
	movw	$0, -2(%rbp)
	movabsq	$.L.str.134, %rdi
	movb	$0, %al
	callq	printf@PLT
	movswl	-2(%rbp), %eax
	addq	$16, %rsp
	popq	%rbp
	.cfi_def_cfa %rsp, 8
	retq
.Lfunc_end72:
	.size	FF_function_109, .Lfunc_end72-FF_function_109
	.cfi_endproc
                                        # -- End function
	.globl	FF_function_108                 # -- Begin function FF_function_108
	.p2align	4, 0x90
	.type	FF_function_108,@function
FF_function_108:                        # @FF_function_108
	.cfi_startproc
# %bb.0:
	pushq	%rbp
	.cfi_def_cfa_offset 16
	.cfi_offset %rbp, -16
	movq	%rsp, %rbp
	.cfi_def_cfa_register %rbp
	subq	$16, %rsp
	movq	%rdi, -16(%rbp)
	movabsq	$.L.str.135, %rdi
	movb	$0, %al
	callq	printf@PLT
	xorps	%xmm0, %xmm0
	callq	FF_function_109
	leaq	-8(%rbp), %rdi
	xorl	%esi, %esi
	movl	$1, %edx
	callq	memset@PLT
	movabsq	$.L.str.136, %rdi
	movb	$0, %al
	callq	printf@PLT
	movb	-8(%rbp), %al
	addq	$16, %rsp
	popq	%rbp
	.cfi_def_cfa %rsp, 8
	retq
.Lfunc_end73:
	.size	FF_function_108, .Lfunc_end73-FF_function_108
	.cfi_endproc
                                        # -- End function
	.globl	FF_function_107                 # -- Begin function FF_function_107
	.p2align	4, 0x90
	.type	FF_function_107,@function
FF_function_107:                        # @FF_function_107
	.cfi_startproc
# %bb.0:
	pushq	%rbp
	.cfi_def_cfa_offset 16
	.cfi_offset %rbp, -16
	movq	%rsp, %rbp
	.cfi_def_cfa_register %rbp
	subq	$32, %rsp
	movb	%dil, -9(%rbp)
	movw	%si, -12(%rbp)
	movq	%rdx, -24(%rbp)
	movabsq	$.L.str.137, %rdi
	movb	$0, %al
	callq	printf@PLT
	xorl	%edi, %edi
	callq	FF_function_108
	movb	%al, -8(%rbp)
	xorl	%eax, %eax
	movzbl	%al, %eax
	addq	$32, %rsp
	popq	%rbp
	.cfi_def_cfa %rsp, 8
	retq
.Lfunc_end74:
	.size	FF_function_107, .Lfunc_end74-FF_function_107
	.cfi_endproc
                                        # -- End function
	.section	.rodata.cst4,"aM",@progbits,4
	.p2align	2                               # -- Begin function FF_function_106
.LCPI75_0:
	.long	0x3f000000                      # float 0.5
	.text
	.globl	FF_function_106
	.p2align	4, 0x90
	.type	FF_function_106,@function
FF_function_106:                        # @FF_function_106
	.cfi_startproc
# %bb.0:
	pushq	%rbp
	.cfi_def_cfa_offset 16
	.cfi_offset %rbp, -16
	movq	%rsp, %rbp
	.cfi_def_cfa_register %rbp
	subq	$48, %rsp
	movsd	%xmm0, -40(%rbp)
	movabsq	$.L.str.138, %rdi
	movb	$0, %al
	callq	printf@PLT
	xorl	%edi, %edi
	xorl	%esi, %esi
	xorl	%edx, %edx
	callq	FF_function_107
	callq	rand@PLT
	cmpl	$1, %eax
	jge	.LBB75_2
# %bb.1:
	movq	$0, -8(%rbp)
	jmp	.LBB75_3
.LBB75_2:
	movl	$0, -32(%rbp)
	movss	.LCPI75_0(%rip), %xmm0          # xmm0 = mem[0],zero,zero,zero
	movss	%xmm0, -28(%rbp)
	movq	$0, -24(%rbp)
	movq	$0, -16(%rbp)
	movabsq	$.L.str.139, %rdi
	movb	$0, %al
	callq	printf@PLT
	movq	-16(%rbp), %rax
	movq	%rax, -8(%rbp)
.LBB75_3:
	movq	-8(%rbp), %rax
	addq	$48, %rsp
	popq	%rbp
	.cfi_def_cfa %rsp, 8
	retq
.Lfunc_end75:
	.size	FF_function_106, .Lfunc_end75-FF_function_106
	.cfi_endproc
                                        # -- End function
	.globl	FF_function_105                 # -- Begin function FF_function_105
	.p2align	4, 0x90
	.type	FF_function_105,@function
FF_function_105:                        # @FF_function_105
	.cfi_startproc
# %bb.0:
	pushq	%rbp
	.cfi_def_cfa_offset 16
	.cfi_offset %rbp, -16
	movq	%rsp, %rbp
	.cfi_def_cfa_register %rbp
	subq	$48, %rsp
	movss	%xmm0, -8(%rbp)
	movw	%di, -4(%rbp)
	movsd	%xmm1, -48(%rbp)
	movb	%sil, -1(%rbp)
	movq	%rdx, -40(%rbp)
	movl	$.L.str.140, %edi
	xorl	%eax, %eax
	callq	printf@PLT
	xorps	%xmm0, %xmm0
	callq	FF_function_106
	movups	.L__const.FF_function_105.FF_x(%rip), %xmm0
	movaps	%xmm0, -32(%rbp)
	movl	$.L.str.141, %edi
	xorl	%eax, %eax
	callq	printf@PLT
	movq	-32(%rbp), %rax
	movq	-24(%rbp), %rdx
	addq	$48, %rsp
	popq	%rbp
	.cfi_def_cfa %rsp, 8
	retq
.Lfunc_end76:
	.size	FF_function_105, .Lfunc_end76-FF_function_105
	.cfi_endproc
                                        # -- End function
	.globl	FF_function_104                 # -- Begin function FF_function_104
	.p2align	4, 0x90
	.type	FF_function_104,@function
FF_function_104:                        # @FF_function_104
	.cfi_startproc
# %bb.0:
	pushq	%rbp
	.cfi_def_cfa_offset 16
	.cfi_offset %rbp, -16
	movq	%rsp, %rbp
	.cfi_def_cfa_register %rbp
	subq	$64, %rsp
	movb	24(%rbp), %al
	movb	16(%rbp), %al
	movq	%rdi, -64(%rbp)
	movq	%rsi, -56(%rbp)
	movb	%dl, -2(%rbp)
	movss	%xmm0, -12(%rbp)
	movq	%rcx, -48(%rbp)
	movb	%r8b, -1(%rbp)
	movq	%r9, -40(%rbp)
	movabsq	$.L.str.142, %rdi
	movb	$0, %al
	callq	printf@PLT
	xorps	%xmm0, %xmm0
	xorl	%edi, %edi
	xorps	%xmm1, %xmm1
	xorl	%esi, %esi
	xorl	%edx, %edx
	callq	FF_function_105
	movq	%rax, -32(%rbp)
	movq	%rdx, -24(%rbp)
	xorps	%xmm0, %xmm0
	movss	%xmm0, -8(%rbp)
	movabsq	$.L.str.143, %rdi
	movb	$0, %al
	callq	printf@PLT
	movss	-8(%rbp), %xmm0                 # xmm0 = mem[0],zero,zero,zero
	addq	$64, %rsp
	popq	%rbp
	.cfi_def_cfa %rsp, 8
	retq
.Lfunc_end77:
	.size	FF_function_104, .Lfunc_end77-FF_function_104
	.cfi_endproc
                                        # -- End function
	.section	.rodata.cst8,"aM",@progbits,8
	.p2align	3                               # -- Begin function CF_function_174
.LCPI78_0:
	.quad	0x40a6200000000000              # double 2832
	.text
	.globl	CF_function_174
	.p2align	4, 0x90
	.type	CF_function_174,@function
CF_function_174:                        # @CF_function_174
	.cfi_startproc
# %bb.0:
	pushq	%rbp
	.cfi_def_cfa_offset 16
	.cfi_offset %rbp, -16
	movq	%rsp, %rbp
	.cfi_def_cfa_register %rbp
	subq	$16, %rsp
	movw	%di, -14(%rbp)
	movabsq	$.L.str.144, %rdi
	movb	$0, %al
	callq	printf@PLT
	movabsq	$.L.str.145, %rdi
	movb	$0, %al
	callq	printf@PLT
	movl	$2814, -12(%rbp)                # imm = 0xAFE
.LBB78_1:                               # =>This Inner Loop Header: Depth=1
	cvtsi2sdl	-12(%rbp), %xmm0
	movsd	.LCPI78_0(%rip), %xmm1          # xmm1 = mem[0],zero
	ucomisd	%xmm0, %xmm1
	jbe	.LBB78_5
# %bb.2:                                #   in Loop: Header=BB78_1 Depth=1
	movabsq	$.L.str.146, %rdi
	movb	$0, %al
	callq	printf@PLT
	callq	getchar@PLT
# %bb.3:                                #   in Loop: Header=BB78_1 Depth=1
	jmp	.LBB78_4
.LBB78_4:                               #   in Loop: Header=BB78_1 Depth=1
	movl	-12(%rbp), %eax
	addl	$1, %eax
	movl	%eax, -12(%rbp)
	jmp	.LBB78_1
.LBB78_5:
	jmp	.LBB78_6
.LBB78_6:
	movabsq	$.L.str.147, %rdi
	movb	$0, %al
	callq	printf@PLT
	xorl	%edi, %edi
	xorps	%xmm0, %xmm0
	xorps	%xmm1, %xmm1
	xorl	%esi, %esi
	xorl	%edx, %edx
	callq	FF_function_121
# %bb.7:
	movabsq	$.L.str.148, %rdi
	movb	$0, %al
	callq	printf@PLT
	movw	$0, -8(%rbp)
	movw	-8(%rbp), %ax
	addq	$16, %rsp
	popq	%rbp
	.cfi_def_cfa %rsp, 8
	retq
.Lfunc_end78:
	.size	CF_function_174, .Lfunc_end78-CF_function_174
	.cfi_endproc
                                        # -- End function
	.globl	FF_function_176                 # -- Begin function FF_function_176
	.p2align	4, 0x90
	.type	FF_function_176,@function
FF_function_176:                        # @FF_function_176
	.cfi_startproc
# %bb.0:
	pushq	%rbp
	.cfi_def_cfa_offset 16
	.cfi_offset %rbp, -16
	movq	%rsp, %rbp
	.cfi_def_cfa_register %rbp
	subq	$240, %rsp
	testb	%al, %al
	je	.LBB79_5
# %bb.4:
	movaps	%xmm0, -192(%rbp)
	movaps	%xmm1, -176(%rbp)
	movaps	%xmm2, -160(%rbp)
	movaps	%xmm3, -144(%rbp)
	movaps	%xmm4, -128(%rbp)
	movaps	%xmm5, -112(%rbp)
	movaps	%xmm6, -96(%rbp)
	movaps	%xmm7, -80(%rbp)
.LBB79_5:
	movq	%r9, -200(%rbp)
	movq	%r8, -208(%rbp)
	movq	%rcx, -216(%rbp)
	movq	%rdx, -224(%rbp)
	movq	%rsi, -232(%rbp)
	movq	%rdi, -56(%rbp)
	movabsq	$.L.str.149, %rdi
	movb	$0, %al
	callq	printf@PLT
	leaq	-48(%rbp), %rax
	leaq	-240(%rbp), %rcx
	movq	%rcx, 16(%rax)
	leaq	16(%rbp), %rcx
	movq	%rcx, 8(%rax)
	movl	$48, 4(%rax)
	movl	$8, (%rax)
	leaq	-48(%rbp), %rcx
	movl	-48(%rbp), %edx
	cmpl	$40, %edx
	ja	.LBB79_2
# %bb.1:
	movslq	%edx, %rax
	addq	16(%rcx), %rax
	addl	$8, %edx
	movl	%edx, (%rcx)
	jmp	.LBB79_3
.LBB79_2:
	movq	8(%rcx), %rax
	movq	%rax, %rdx
	addq	$8, %rdx
	movq	%rdx, 8(%rcx)
.LBB79_3:
	movb	(%rax), %al
	movb	%al, -1(%rbp)
	movq	$0, -24(%rbp)
	movq	-24(%rbp), %rdi
	movl	$1, %esi
	xorl	%eax, %eax
	callq	FF_function_176
	movq	$0, -16(%rbp)
	movq	-16(%rbp), %rdi
	movl	$1, %esi
	movl	$2, %edx
	movl	$3, %ecx
	xorl	%eax, %eax
	callq	FF_function_176
	movl	$.L.str.150, %edi
	xorl	%eax, %eax
	callq	printf@PLT
	movb	-1(%rbp), %al
	addq	$240, %rsp
	popq	%rbp
	.cfi_def_cfa %rsp, 8
	retq
.Lfunc_end79:
	.size	FF_function_176, .Lfunc_end79-FF_function_176
	.cfi_endproc
                                        # -- End function
	.section	.rodata.cst4,"aM",@progbits,4
	.p2align	2                               # -- Begin function CF_function_177
.LCPI80_0:
	.long	0x456ce8f6                      # float 3790.56006
.LCPI80_1:
	.long	0x3f800000                      # float 1
	.text
	.globl	CF_function_177
	.p2align	4, 0x90
	.type	CF_function_177,@function
CF_function_177:                        # @CF_function_177
	.cfi_startproc
# %bb.0:
	pushq	%rbp
	.cfi_def_cfa_offset 16
	.cfi_offset %rbp, -16
	movq	%rsp, %rbp
	.cfi_def_cfa_register %rbp
	subq	$32, %rsp
	movb	%dil, -5(%rbp)
	movabsq	$.L.str.151, %rdi
	movb	$0, %al
	callq	printf@PLT
	movabsq	$.L.str.152, %rdi
	movb	$0, %al
	callq	printf@PLT
.LBB80_1:                               # =>This Loop Header: Depth=1
                                        #     Child Loop BB80_6 Depth 2
                                        #       Child Loop BB80_13 Depth 3
	movabsq	$.L.str.153, %rdi
	movb	$0, %al
	callq	printf@PLT
	movabsq	$.L.str.154, %rdi
	movb	$0, %al
	callq	printf@PLT
	callq	getchar@PLT
	cmpl	$23, %eax
	jne	.LBB80_3
# %bb.2:
	jmp	.LBB80_38
.LBB80_3:                               #   in Loop: Header=BB80_1 Depth=1
	callq	getchar@PLT
	cmpl	$97, %eax
	jne	.LBB80_5
# %bb.4:
	movl	$1923, %edi                     # imm = 0x783
	callq	exit@PLT
.LBB80_5:                               #   in Loop: Header=BB80_1 Depth=1
	xorl	%edi, %edi
	xorl	%esi, %esi
	xorl	%edx, %edx
	xorl	%ecx, %ecx
	xorps	%xmm0, %xmm0
	xorl	%r8d, %r8d
	xorl	%r9d, %r9d
	movq	$0, (%rsp)
	callq	FF_function_139
	xorl	%edi, %edi
	xorps	%xmm0, %xmm0
	xorl	%esi, %esi
	xorl	%edx, %edx
	xorps	%xmm1, %xmm1
	movq	%rax, %rcx
	callq	FF_function_141
	movabsq	$.L.str.155, %rdi
	movb	$0, %al
	callq	printf@PLT
.LBB80_6:                               #   Parent Loop BB80_1 Depth=1
                                        # =>  This Loop Header: Depth=2
                                        #       Child Loop BB80_13 Depth 3
	movabsq	$.L.str.156, %rdi
	movb	$0, %al
	callq	printf@PLT
	movabsq	$.L.str.157, %rdi
	movb	$0, %al
	callq	printf@PLT
	callq	getchar@PLT
	cmpl	$23, %eax
	jne	.LBB80_8
# %bb.7:                                #   in Loop: Header=BB80_1 Depth=1
	jmp	.LBB80_31
.LBB80_8:                               #   in Loop: Header=BB80_6 Depth=2
	callq	getchar@PLT
	cmpl	$19, %eax
	jne	.LBB80_10
# %bb.9:                                #   in Loop: Header=BB80_1 Depth=1
	jmp	.LBB80_32
.LBB80_10:                              #   in Loop: Header=BB80_6 Depth=2
	callq	getchar@PLT
	cmpl	$83, %eax
	jne	.LBB80_12
# %bb.11:                               #   in Loop: Header=BB80_1 Depth=1
	movabsq	$.L.str.158, %rdi
	movb	$0, %al
	callq	printf@PLT
	jmp	.LBB80_33
.LBB80_12:                              #   in Loop: Header=BB80_6 Depth=2
	movabsq	$.L.str.159, %rdi
	movb	$0, %al
	callq	printf@PLT
	movabsq	$.L.str.160, %rdi
	movb	$0, %al
	callq	printf@PLT
	movss	.LCPI80_0(%rip), %xmm0          # xmm0 = mem[0],zero,zero,zero
	movss	%xmm0, -4(%rbp)
.LBB80_13:                              #   Parent Loop BB80_1 Depth=1
                                        #     Parent Loop BB80_6 Depth=2
                                        # =>    This Inner Loop Header: Depth=3
	movss	-4(%rbp), %xmm0                 # xmm0 = mem[0],zero,zero,zero
	movss	.LCPI80_1(%rip), %xmm1          # xmm1 = mem[0],zero,zero,zero
	ucomiss	%xmm1, %xmm0
	jne	.LBB80_14
	jp	.LBB80_14
	jmp	.LBB80_25
.LBB80_14:                              #   in Loop: Header=BB80_13 Depth=3
	movss	-4(%rbp), %xmm0                 # xmm0 = mem[0],zero,zero,zero
	cvtss2sd	%xmm0, %xmm0
	movabsq	$.L.str.161, %rdi
	movb	$1, %al
	callq	printf@PLT
	movabsq	$.L.str.162, %rdi
	movb	$0, %al
	callq	printf@PLT
	callq	getchar@PLT
	cmpl	$31, %eax
	jne	.LBB80_16
# %bb.15:
	jmp	.LBB80_41
.LBB80_16:                              #   in Loop: Header=BB80_13 Depth=3
	callq	getchar@PLT
	cmpl	$73, %eax
	jne	.LBB80_18
# %bb.17:
	movabsq	$.L.str.163, %rdi
	movb	$0, %al
	callq	printf@PLT
	jmp	.LBB80_39
.LBB80_18:                              #   in Loop: Header=BB80_13 Depth=3
	movabsq	$.L.str.164, %rdi
	movb	$0, %al
	callq	printf@PLT
	callq	getchar@PLT
	cmpl	$67, %eax
	jne	.LBB80_21
# %bb.19:                               #   in Loop: Header=BB80_13 Depth=3
	jmp	.LBB80_20
.LBB80_20:                              # %.backedge
                                        #   in Loop: Header=BB80_13 Depth=3
	jmp	.LBB80_13
.LBB80_21:                              #   in Loop: Header=BB80_13 Depth=3
	callq	getchar@PLT
	cmpl	$17, %eax
	jne	.LBB80_23
# %bb.22:                               #   in Loop: Header=BB80_13 Depth=3
	jmp	.LBB80_24
.LBB80_23:                              #   in Loop: Header=BB80_13 Depth=3
	xorl	%edi, %edi
	callq	FF_function_142
.LBB80_24:                              #   in Loop: Header=BB80_13 Depth=3
	callq	getchar@PLT
	cvtsi2ss	%eax, %xmm0
	movss	-4(%rbp), %xmm1                 # xmm1 = mem[0],zero,zero,zero
	subss	%xmm0, %xmm1
	movss	%xmm1, -4(%rbp)
	jmp	.LBB80_20
.LBB80_25:                              #   in Loop: Header=BB80_6 Depth=2
	jmp	.LBB80_26
.LBB80_26:                              #   in Loop: Header=BB80_6 Depth=2
	movabsq	$.L.str.165, %rdi
	movb	$0, %al
	callq	printf@PLT
	xorl	%edi, %edi
	xorl	%esi, %esi
	xorl	%edx, %edx
	xorl	%ecx, %ecx
	xorl	%r8d, %r8d
	callq	FF_function_169
# %bb.27:                               #   in Loop: Header=BB80_6 Depth=2
	callq	getchar@PLT
	cmpl	$17, %eax
	jne	.LBB80_29
# %bb.28:                               #   in Loop: Header=BB80_6 Depth=2
	jmp	.LBB80_30
.LBB80_29:                              #   in Loop: Header=BB80_6 Depth=2
	movabsq	$.L.str.166, %rdi
	movb	$0, %al
	callq	printf@PLT
.LBB80_30:                              #   in Loop: Header=BB80_6 Depth=2
	jmp	.LBB80_6
.LBB80_31:                              #   in Loop: Header=BB80_1 Depth=1
	jmp	.LBB80_32
.LBB80_32:                              #   in Loop: Header=BB80_1 Depth=1
	movabsq	$.L.str.167, %rdi
	movb	$0, %al
	callq	printf@PLT
	movabsq	$.L.str.168, %rdi
	movb	$0, %al
	callq	printf@PLT
.LBB80_33:                              #   in Loop: Header=BB80_1 Depth=1
	callq	getchar@PLT
	cmpl	$67, %eax
	jne	.LBB80_36
# %bb.34:                               #   in Loop: Header=BB80_1 Depth=1
	jmp	.LBB80_35
.LBB80_35:                              # %.backedge1
                                        #   in Loop: Header=BB80_1 Depth=1
	jmp	.LBB80_1
.LBB80_36:                              #   in Loop: Header=BB80_1 Depth=1
	movabsq	$.L.str.169, %rdi
	movb	$0, %al
	callq	printf@PLT
# %bb.37:                               #   in Loop: Header=BB80_1 Depth=1
	jmp	.LBB80_35
.LBB80_38:
	jmp	.LBB80_39
.LBB80_39:
	movabsq	$.L.str.170, %rdi
	movb	$0, %al
	callq	printf@PLT
	movabsq	$.L.str.171, %rdi
	movb	$0, %al
	callq	printf@PLT
# %bb.40:
	movabsq	$.L.str.172, %rdi
	movb	$0, %al
	callq	printf@PLT
	xorps	%xmm0, %xmm0
	movss	%xmm0, -16(%rbp)
.LBB80_41:
	movss	-16(%rbp), %xmm0                # xmm0 = mem[0],zero,zero,zero
	addq	$32, %rsp
	popq	%rbp
	.cfi_def_cfa %rsp, 8
	retq
.Lfunc_end80:
	.size	CF_function_177, .Lfunc_end80-CF_function_177
	.cfi_endproc
                                        # -- End function
	.section	.rodata.cst4,"aM",@progbits,4
	.p2align	2                               # -- Begin function CF_function_178
.LCPI81_0:
	.long	0x45267d9a                      # float 2663.8501
.LCPI81_1:
	.long	0x3f800000                      # float 1
	.section	.rodata.cst8,"aM",@progbits,8
	.p2align	3
.LCPI81_2:
	.quad	0x401999999999999a              # double 6.4000000000000004
	.text
	.globl	CF_function_178
	.p2align	4, 0x90
	.type	CF_function_178,@function
CF_function_178:                        # @CF_function_178
	.cfi_startproc
# %bb.0:
	pushq	%rbp
	.cfi_def_cfa_offset 16
	.cfi_offset %rbp, -16
	movq	%rsp, %rbp
	.cfi_def_cfa_register %rbp
	pushq	%rbx
	subq	$24, %rsp
	.cfi_offset %rbx, -24
	movss	%xmm0, -28(%rbp)
	movabsq	$.L.str.173, %rdi
	movb	$0, %al
	callq	printf@PLT
	movabsq	$.L.str.174, %rdi
	movb	$0, %al
	callq	printf@PLT
	movl	$3, -16(%rbp)
.LBB81_1:                               # =>This Loop Header: Depth=1
                                        #     Child Loop BB81_7 Depth 2
                                        #       Child Loop BB81_17 Depth 3
                                        #         Child Loop BB81_22 Depth 4
	cmpl	$2626, -16(%rbp)                # imm = 0xA42
	je	.LBB81_48
# %bb.2:                                #   in Loop: Header=BB81_1 Depth=1
	movl	-16(%rbp), %esi
	movabsq	$.L.str.175, %rdi
	movb	$0, %al
	callq	printf@PLT
	movabsq	$.L.str.176, %rdi
	movb	$0, %al
	callq	printf@PLT
	callq	getchar@PLT
	cmpl	$19, %eax
	jne	.LBB81_4
# %bb.3:
	jmp	.LBB81_49
.LBB81_4:                               #   in Loop: Header=BB81_1 Depth=1
	callq	getchar@PLT
	cmpl	$83, %eax
	jne	.LBB81_6
# %bb.5:
	movabsq	$.L.str.177, %rdi
	movb	$0, %al
	callq	printf@PLT
	jmp	.LBB81_50
.LBB81_6:                               #   in Loop: Header=BB81_1 Depth=1
	movabsq	$.L.str.178, %rdi
	movb	$0, %al
	callq	printf@PLT
	movabsq	$.L.str.179, %rdi
	movb	$0, %al
	callq	printf@PLT
.LBB81_7:                               #   Parent Loop BB81_1 Depth=1
                                        # =>  This Loop Header: Depth=2
                                        #       Child Loop BB81_17 Depth 3
                                        #         Child Loop BB81_22 Depth 4
	movabsq	$.L.str.180, %rdi
	movb	$0, %al
	callq	printf@PLT
	movabsq	$.L.str.181, %rdi
	movb	$0, %al
	callq	printf@PLT
	callq	getchar@PLT
	cmpl	$97, %eax
	jne	.LBB81_9
# %bb.8:
	movl	$1923, %edi                     # imm = 0x783
	callq	exit@PLT
.LBB81_9:                               #   in Loop: Header=BB81_7 Depth=2
	callq	getchar@PLT
	cmpl	$19, %eax
	jne	.LBB81_11
# %bb.10:                               #   in Loop: Header=BB81_1 Depth=1
	jmp	.LBB81_45
.LBB81_11:                              #   in Loop: Header=BB81_7 Depth=2
	callq	getchar@PLT
	cmpl	$83, %eax
	jne	.LBB81_13
# %bb.12:                               #   in Loop: Header=BB81_1 Depth=1
	movabsq	$.L.str.182, %rdi
	movb	$0, %al
	callq	printf@PLT
	jmp	.LBB81_46
.LBB81_13:                              #   in Loop: Header=BB81_7 Depth=2
	callq	getchar@PLT
	cmpl	$73, %eax
	jne	.LBB81_15
# %bb.14:
	movabsq	$.L.str.183, %rdi
	movb	$0, %al
	callq	printf@PLT
	jmp	.LBB81_49
.LBB81_15:                              #   in Loop: Header=BB81_7 Depth=2
	movabsq	$.L.str.184, %rdi
	movb	$0, %al
	callq	printf@PLT
	callq	getchar@PLT
	cmpl	$79, %eax
	jne	.LBB81_39
# %bb.16:                               #   in Loop: Header=BB81_7 Depth=2
	movabsq	$.L.str.185, %rdi
	movb	$0, %al
	callq	printf@PLT
.LBB81_17:                              #   Parent Loop BB81_1 Depth=1
                                        #     Parent Loop BB81_7 Depth=2
                                        # =>    This Loop Header: Depth=3
                                        #         Child Loop BB81_22 Depth 4
	movabsq	$.L.str.186, %rdi
	movb	$0, %al
	callq	printf@PLT
	xorps	%xmm0, %xmm0
	xorl	%edi, %edi
	callq	FF_function_133
	movw	%ax, %bx
	xorps	%xmm0, %xmm0
	callq	FF_function_146
	movzwl	%bx, %edi
	xorps	%xmm1, %xmm1
	xorl	%esi, %esi
	xorl	%edx, %edx
	callq	FF_function_121
	callq	getchar@PLT
	cmpl	$97, %eax
	jne	.LBB81_19
# %bb.18:
	movl	$1923, %edi                     # imm = 0x783
	callq	exit@PLT
.LBB81_19:                              #   in Loop: Header=BB81_17 Depth=3
	callq	getchar@PLT
	cmpl	$31, %eax
	jne	.LBB81_21
# %bb.20:
	jmp	.LBB81_51
.LBB81_21:                              #   in Loop: Header=BB81_17 Depth=3
	xorl	%edi, %edi
	xorl	%esi, %esi
	xorl	%edx, %edx
	callq	FF_function_140
	movabsq	$.L.str.187, %rdi
	movb	$0, %al
	callq	printf@PLT
	movss	.LCPI81_0(%rip), %xmm0          # xmm0 = mem[0],zero,zero,zero
	movss	%xmm0, -12(%rbp)
.LBB81_22:                              #   Parent Loop BB81_1 Depth=1
                                        #     Parent Loop BB81_7 Depth=2
                                        #       Parent Loop BB81_17 Depth=3
                                        # =>      This Inner Loop Header: Depth=4
	movss	-12(%rbp), %xmm0                # xmm0 = mem[0],zero,zero,zero
	movss	.LCPI81_1(%rip), %xmm1          # xmm1 = mem[0],zero,zero,zero
	ucomiss	%xmm1, %xmm0
	jb	.LBB81_33
# %bb.23:                               #   in Loop: Header=BB81_22 Depth=4
	movss	-12(%rbp), %xmm0                # xmm0 = mem[0],zero,zero,zero
	cvtss2sd	%xmm0, %xmm0
	movabsq	$.L.str.188, %rdi
	movb	$1, %al
	callq	printf@PLT
	movabsq	$.L.str.189, %rdi
	movb	$0, %al
	callq	printf@PLT
	callq	getchar@PLT
	cmpl	$97, %eax
	jne	.LBB81_25
# %bb.24:
	movl	$1923, %edi                     # imm = 0x783
	callq	exit@PLT
.LBB81_25:                              #   in Loop: Header=BB81_22 Depth=4
	callq	getchar@PLT
	cmpl	$31, %eax
	jne	.LBB81_27
# %bb.26:
	jmp	.LBB81_51
.LBB81_27:                              #   in Loop: Header=BB81_22 Depth=4
	callq	getchar@PLT
	cmpl	$83, %eax
	jne	.LBB81_29
# %bb.28:                               #   in Loop: Header=BB81_17 Depth=3
	movabsq	$.L.str.190, %rdi
	movb	$0, %al
	callq	printf@PLT
	jmp	.LBB81_35
.LBB81_29:                              #   in Loop: Header=BB81_22 Depth=4
	callq	getchar@PLT
	cmpl	$73, %eax
	jne	.LBB81_31
# %bb.30:
	movabsq	$.L.str.191, %rdi
	movb	$0, %al
	callq	printf@PLT
	jmp	.LBB81_49
.LBB81_31:                              #   in Loop: Header=BB81_22 Depth=4
	movabsq	$.L.str.192, %rdi
	movb	$0, %al
	callq	printf@PLT
	movabsq	$.L.str.193, %rdi
	movb	$0, %al
	callq	printf@PLT
# %bb.32:                               #   in Loop: Header=BB81_22 Depth=4
	movss	-12(%rbp), %xmm0                # xmm0 = mem[0],zero,zero,zero
	cvtss2sd	%xmm0, %xmm0
	movsd	.LCPI81_2(%rip), %xmm1          # xmm1 = mem[0],zero
	subsd	%xmm1, %xmm0
	cvtsd2ss	%xmm0, %xmm0
	movss	%xmm0, -12(%rbp)
	jmp	.LBB81_22
.LBB81_33:                              #   in Loop: Header=BB81_17 Depth=3
	jmp	.LBB81_34
.LBB81_34:                              #   in Loop: Header=BB81_17 Depth=3
	movabsq	$.L.str.194, %rdi
	movb	$0, %al
	callq	printf@PLT
	movabsq	$.L.str.195, %rdi
	movb	$0, %al
	callq	printf@PLT
.LBB81_35:                              #   in Loop: Header=BB81_17 Depth=3
	movabsq	$.L.str.196, %rdi
	movb	$0, %al
	callq	printf@PLT
# %bb.36:                               #   in Loop: Header=BB81_17 Depth=3
	jmp	.LBB81_37
.LBB81_37:                              #   in Loop: Header=BB81_17 Depth=3
	movb	$1, %al
	testb	$1, %al
	jne	.LBB81_17
	jmp	.LBB81_38
.LBB81_38:                              #   in Loop: Header=BB81_7 Depth=2
	jmp	.LBB81_39
.LBB81_39:                              #   in Loop: Header=BB81_7 Depth=2
	jmp	.LBB81_40
.LBB81_40:                              #   in Loop: Header=BB81_7 Depth=2
	movabsq	$.L.str.197, %rdi
	movb	$0, %al
	callq	printf@PLT
	xorl	%edi, %edi
	callq	FF_function_147
# %bb.41:                               #   in Loop: Header=BB81_7 Depth=2
	callq	getchar@PLT
	cmpl	$17, %eax
	jne	.LBB81_43
# %bb.42:                               #   in Loop: Header=BB81_7 Depth=2
	jmp	.LBB81_44
.LBB81_43:                              #   in Loop: Header=BB81_7 Depth=2
	movabsq	$.L.str.198, %rdi
	movb	$0, %al
	callq	printf@PLT
.LBB81_44:                              #   in Loop: Header=BB81_7 Depth=2
	jmp	.LBB81_7
.LBB81_45:                              #   in Loop: Header=BB81_1 Depth=1
	movabsq	$.L.str.199, %rdi
	movb	$0, %al
	callq	printf@PLT
	movabsq	$.L.str.200, %rdi
	movb	$0, %al
	callq	printf@PLT
.LBB81_46:                              #   in Loop: Header=BB81_1 Depth=1
	movabsq	$.L.str.201, %rdi
	movb	$0, %al
	callq	printf@PLT
# %bb.47:                               #   in Loop: Header=BB81_1 Depth=1
	movl	-16(%rbp), %eax
	addl	$1, %eax
	movl	%eax, -16(%rbp)
	jmp	.LBB81_1
.LBB81_48:
	jmp	.LBB81_49
.LBB81_49:
	movabsq	$.L.str.202, %rdi
	movb	$0, %al
	callq	printf@PLT
	movabsq	$.L.str.203, %rdi
	movb	$0, %al
	callq	printf@PLT
.LBB81_50:
	movabsq	$.L.str.204, %rdi
	movb	$0, %al
	callq	printf@PLT
	movw	$0, -24(%rbp)
.LBB81_51:
	movw	-24(%rbp), %ax
	addq	$24, %rsp
	popq	%rbx
	popq	%rbp
	.cfi_def_cfa %rsp, 8
	retq
.Lfunc_end81:
	.size	CF_function_178, .Lfunc_end81-CF_function_178
	.cfi_endproc
                                        # -- End function
	.section	.rodata.cst4,"aM",@progbits,4
	.p2align	2                               # -- Begin function CF_function_179
.LCPI82_0:
	.long	0x455cdd9a                      # float 3533.8501
.LCPI82_1:
	.long	0x40766666                      # float 3.8499999
.LCPI82_2:
	.long	0x3f000000                      # float 0.5
.LCPI82_3:
	.long	0x4506a000                      # float 2154
.LCPI82_6:
	.long	0x4529e35c                      # float 2718.20996
.LCPI82_9:
	.long	0x3f800000                      # float 1
	.section	.rodata.cst8,"aM",@progbits,8
	.p2align	3
.LCPI82_4:
	.quad	0x40a4b60000000000              # double 2651
.LCPI82_5:
	.quad	0x409ee40000000000              # double 1977
.LCPI82_7:
	.quad	0x4022851eb851eb85              # double 9.2599999999999998
.LCPI82_8:
	.quad	0x40a63f47ae147ae1              # double 2847.6399999999999
	.text
	.globl	CF_function_179
	.p2align	4, 0x90
	.type	CF_function_179,@function
CF_function_179:                        # @CF_function_179
	.cfi_startproc
# %bb.0:
	pushq	%rbp
	.cfi_def_cfa_offset 16
	.cfi_offset %rbp, -16
	movq	%rsp, %rbp
	.cfi_def_cfa_register %rbp
	subq	$64, %rsp
	movq	%rdi, -56(%rbp)
	movabsq	$.L.str.205, %rdi
	movb	$0, %al
	callq	printf@PLT
	movabsq	$.L.str.206, %rdi
	movb	$0, %al
	callq	printf@PLT
	movss	.LCPI82_0(%rip), %xmm0          # xmm0 = mem[0],zero,zero,zero
	movss	%xmm0, -32(%rbp)
.LBB82_1:                               # =>This Loop Header: Depth=1
                                        #     Child Loop BB82_8 Depth 2
                                        #       Child Loop BB82_15 Depth 3
                                        #         Child Loop BB82_23 Depth 4
                                        #           Child Loop BB82_31 Depth 5
                                        #           Child Loop BB82_46 Depth 5
                                        #           Child Loop BB82_53 Depth 5
                                        #           Child Loop BB82_59 Depth 5
	movss	-32(%rbp), %xmm0                # xmm0 = mem[0],zero,zero,zero
	cvtss2sd	%xmm0, %xmm0
	movabsq	$.L.str.207, %rdi
	movb	$1, %al
	callq	printf@PLT
	movabsq	$.L.str.208, %rdi
	movb	$0, %al
	callq	printf@PLT
	callq	getchar@PLT
	cmpl	$31, %eax
	jne	.LBB82_3
# %bb.2:
	jmp	.LBB82_100
.LBB82_3:                               #   in Loop: Header=BB82_1 Depth=1
	callq	getchar@PLT
	cmpl	$19, %eax
	jne	.LBB82_5
# %bb.4:
	jmp	.LBB82_98
.LBB82_5:                               #   in Loop: Header=BB82_1 Depth=1
	callq	getchar@PLT
	cmpl	$83, %eax
	jne	.LBB82_7
# %bb.6:
	movabsq	$.L.str.209, %rdi
	movb	$0, %al
	callq	printf@PLT
	jmp	.LBB82_99
.LBB82_7:                               #   in Loop: Header=BB82_1 Depth=1
	movabsq	$.L.str.210, %rdi
	movb	$0, %al
	callq	printf@PLT
	movabsq	$.L.str.211, %rdi
	movb	$0, %al
	callq	printf@PLT
.LBB82_8:                               #   Parent Loop BB82_1 Depth=1
                                        # =>  This Loop Header: Depth=2
                                        #       Child Loop BB82_15 Depth 3
                                        #         Child Loop BB82_23 Depth 4
                                        #           Child Loop BB82_31 Depth 5
                                        #           Child Loop BB82_46 Depth 5
                                        #           Child Loop BB82_53 Depth 5
                                        #           Child Loop BB82_59 Depth 5
	movabsq	$.L.str.212, %rdi
	movb	$0, %al
	callq	printf@PLT
	movabsq	$.L.str.213, %rdi
	movb	$0, %al
	callq	printf@PLT
	callq	getchar@PLT
	cmpl	$23, %eax
	jne	.LBB82_10
# %bb.9:                                #   in Loop: Header=BB82_1 Depth=1
	jmp	.LBB82_88
.LBB82_10:                              #   in Loop: Header=BB82_8 Depth=2
	callq	getchar@PLT
	cmpl	$97, %eax
	jne	.LBB82_12
# %bb.11:
	movl	$1923, %edi                     # imm = 0x783
	callq	exit@PLT
.LBB82_12:                              #   in Loop: Header=BB82_8 Depth=2
	callq	getchar@PLT
	cmpl	$31, %eax
	jne	.LBB82_14
# %bb.13:
	jmp	.LBB82_100
.LBB82_14:                              #   in Loop: Header=BB82_8 Depth=2
	movabsq	$.L.str.214, %rdi
	movb	$0, %al
	callq	printf@PLT
	movabsq	$.L.str.215, %rdi
	movb	$0, %al
	callq	printf@PLT
	movl	$0, -24(%rbp)
.LBB82_15:                              #   Parent Loop BB82_1 Depth=1
                                        #     Parent Loop BB82_8 Depth=2
                                        # =>    This Loop Header: Depth=3
                                        #         Child Loop BB82_23 Depth 4
                                        #           Child Loop BB82_31 Depth 5
                                        #           Child Loop BB82_46 Depth 5
                                        #           Child Loop BB82_53 Depth 5
                                        #           Child Loop BB82_59 Depth 5
	cmpl	$9167, -24(%rbp)                # imm = 0x23CF
	je	.LBB82_79
# %bb.16:                               #   in Loop: Header=BB82_15 Depth=3
	movl	-24(%rbp), %esi
	movabsq	$.L.str.216, %rdi
	movb	$0, %al
	callq	printf@PLT
	xorps	%xmm0, %xmm0
	xorl	%edi, %edi
	callq	FF_function_133
	movzwl	%ax, %edi
	xorl	%esi, %esi
	xorl	%edx, %edx
	xorl	%ecx, %ecx
	callq	FF_function_110
	callq	getchar@PLT
	cmpl	$97, %eax
	jne	.LBB82_18
# %bb.17:
	movl	$1923, %edi                     # imm = 0x783
	callq	exit@PLT
.LBB82_18:                              #   in Loop: Header=BB82_15 Depth=3
	callq	getchar@PLT
	cmpl	$31, %eax
	jne	.LBB82_20
# %bb.19:
	jmp	.LBB82_100
.LBB82_20:                              #   in Loop: Header=BB82_15 Depth=3
	callq	getchar@PLT
	cmpl	$19, %eax
	jne	.LBB82_22
# %bb.21:                               #   in Loop: Header=BB82_8 Depth=2
	jmp	.LBB82_80
.LBB82_22:                              #   in Loop: Header=BB82_15 Depth=3
	movl	$0, -48(%rbp)
	movss	.LCPI82_2(%rip), %xmm0          # xmm0 = mem[0],zero,zero,zero
	movss	%xmm0, -44(%rbp)
	movq	$0, -40(%rbp)
	movq	-48(%rbp), %rdi
	movq	-40(%rbp), %rsi
	movb	$0, %al
	callq	FF_function_171
	movabsq	$.L.str.217, %rdi
	movb	$0, %al
	callq	printf@PLT
	movss	.LCPI82_1(%rip), %xmm0          # xmm0 = mem[0],zero,zero,zero
	movss	%xmm0, -20(%rbp)
.LBB82_23:                              #   Parent Loop BB82_1 Depth=1
                                        #     Parent Loop BB82_8 Depth=2
                                        #       Parent Loop BB82_15 Depth=3
                                        # =>      This Loop Header: Depth=4
                                        #           Child Loop BB82_31 Depth 5
                                        #           Child Loop BB82_46 Depth 5
                                        #           Child Loop BB82_53 Depth 5
                                        #           Child Loop BB82_59 Depth 5
	movss	.LCPI82_3(%rip), %xmm0          # xmm0 = mem[0],zero,zero,zero
	ucomiss	-20(%rbp), %xmm0
	jb	.LBB82_71
# %bb.24:                               #   in Loop: Header=BB82_23 Depth=4
	movss	-20(%rbp), %xmm0                # xmm0 = mem[0],zero,zero,zero
	cvtss2sd	%xmm0, %xmm0
	movabsq	$.L.str.218, %rdi
	movb	$1, %al
	callq	printf@PLT
	movabsq	$.L.str.219, %rdi
	movb	$0, %al
	callq	printf@PLT
	callq	getchar@PLT
	cmpl	$23, %eax
	jne	.LBB82_26
# %bb.25:                               #   in Loop: Header=BB82_15 Depth=3
	jmp	.LBB82_72
.LBB82_26:                              #   in Loop: Header=BB82_23 Depth=4
	callq	getchar@PLT
	cmpl	$97, %eax
	jne	.LBB82_28
# %bb.27:
	movl	$1923, %edi                     # imm = 0x783
	callq	exit@PLT
.LBB82_28:                              #   in Loop: Header=BB82_23 Depth=4
	callq	getchar@PLT
	cmpl	$31, %eax
	jne	.LBB82_30
# %bb.29:
	jmp	.LBB82_100
.LBB82_30:                              #   in Loop: Header=BB82_23 Depth=4
	movabsq	$.L.str.220, %rdi
	movb	$0, %al
	callq	printf@PLT
	movabsq	$.L.str.221, %rdi
	movb	$0, %al
	callq	printf@PLT
.LBB82_31:                              #   Parent Loop BB82_1 Depth=1
                                        #     Parent Loop BB82_8 Depth=2
                                        #       Parent Loop BB82_15 Depth=3
                                        #         Parent Loop BB82_23 Depth=4
                                        # =>        This Inner Loop Header: Depth=5
	movabsq	$.L.str.222, %rdi
	movb	$0, %al
	callq	printf@PLT
	movabsq	$.L.str.223, %rdi
	movb	$0, %al
	callq	printf@PLT
	callq	getchar@PLT
	cmpl	$23, %eax
	jne	.LBB82_33
# %bb.32:                               #   in Loop: Header=BB82_23 Depth=4
	jmp	.LBB82_43
.LBB82_33:                              #   in Loop: Header=BB82_31 Depth=5
	callq	getchar@PLT
	cmpl	$97, %eax
	jne	.LBB82_35
# %bb.34:
	movl	$1923, %edi                     # imm = 0x783
	callq	exit@PLT
.LBB82_35:                              #   in Loop: Header=BB82_31 Depth=5
	callq	getchar@PLT
	cmpl	$73, %eax
	jne	.LBB82_37
# %bb.36:
	movabsq	$.L.str.224, %rdi
	movb	$0, %al
	callq	printf@PLT
	jmp	.LBB82_98
.LBB82_37:                              #   in Loop: Header=BB82_31 Depth=5
	movabsq	$.L.str.225, %rdi
	movb	$0, %al
	callq	printf@PLT
	callq	getchar@PLT
	cmpl	$17, %eax
	jne	.LBB82_39
# %bb.38:                               #   in Loop: Header=BB82_31 Depth=5
	jmp	.LBB82_40
.LBB82_39:                              #   in Loop: Header=BB82_31 Depth=5
	movabsq	$.L.str.226, %rdi
	movb	$0, %al
	callq	printf@PLT
.LBB82_40:                              #   in Loop: Header=BB82_31 Depth=5
	jmp	.LBB82_41
.LBB82_41:                              #   in Loop: Header=BB82_31 Depth=5
	movb	$1, %al
	testb	$1, %al
	jne	.LBB82_31
	jmp	.LBB82_42
.LBB82_42:                              # %.loopexit
                                        #   in Loop: Header=BB82_23 Depth=4
	jmp	.LBB82_43
.LBB82_43:                              #   in Loop: Header=BB82_23 Depth=4
	jmp	.LBB82_44
.LBB82_44:                              #   in Loop: Header=BB82_23 Depth=4
	movabsq	$.L.str.227, %rdi
	movb	$0, %al
	callq	printf@PLT
	movabsq	$.L.str.228, %rdi
	movb	$0, %al
	callq	printf@PLT
# %bb.45:                               #   in Loop: Header=BB82_23 Depth=4
	movabsq	$.L.str.229, %rdi
	movb	$0, %al
	callq	printf@PLT
	movl	$2924, -28(%rbp)                # imm = 0xB6C
.LBB82_46:                              #   Parent Loop BB82_1 Depth=1
                                        #     Parent Loop BB82_8 Depth=2
                                        #       Parent Loop BB82_15 Depth=3
                                        #         Parent Loop BB82_23 Depth=4
                                        # =>        This Inner Loop Header: Depth=5
	cvtsi2sdl	-28(%rbp), %xmm0
	movsd	.LCPI82_4(%rip), %xmm1          # xmm1 = mem[0],zero
	ucomisd	%xmm1, %xmm0
	jb	.LBB82_50
# %bb.47:                               #   in Loop: Header=BB82_46 Depth=5
	movabsq	$.L.str.230, %rdi
	movb	$0, %al
	callq	printf@PLT
	callq	getchar@PLT
# %bb.48:                               #   in Loop: Header=BB82_46 Depth=5
	jmp	.LBB82_49
.LBB82_49:                              #   in Loop: Header=BB82_46 Depth=5
	movl	-28(%rbp), %eax
	subl	$13, %eax
	movl	%eax, -28(%rbp)
	jmp	.LBB82_46
.LBB82_50:                              #   in Loop: Header=BB82_23 Depth=4
	jmp	.LBB82_51
.LBB82_51:                              #   in Loop: Header=BB82_23 Depth=4
	movabsq	$.L.str.231, %rdi
	movb	$0, %al
	callq	printf@PLT
	movabsq	$.L.str.232, %rdi
	movb	$0, %al
	callq	printf@PLT
# %bb.52:                               #   in Loop: Header=BB82_23 Depth=4
	movabsq	$.L.str.233, %rdi
	movb	$0, %al
	callq	printf@PLT
	movl	$2013, -16(%rbp)                # imm = 0x7DD
.LBB82_53:                              #   Parent Loop BB82_1 Depth=1
                                        #     Parent Loop BB82_8 Depth=2
                                        #       Parent Loop BB82_15 Depth=3
                                        #         Parent Loop BB82_23 Depth=4
                                        # =>        This Inner Loop Header: Depth=5
	cvtsi2sdl	-16(%rbp), %xmm0
	movsd	.LCPI82_5(%rip), %xmm1          # xmm1 = mem[0],zero
	ucomisd	%xmm1, %xmm0
	jb	.LBB82_56
# %bb.54:                               #   in Loop: Header=BB82_53 Depth=5
	movl	-16(%rbp), %esi
	movabsq	$.L.str.234, %rdi
	movb	$0, %al
	callq	printf@PLT
	callq	getchar@PLT
# %bb.55:                               #   in Loop: Header=BB82_53 Depth=5
	movl	-16(%rbp), %eax
	subl	$3, %eax
	movl	%eax, -16(%rbp)
	jmp	.LBB82_53
.LBB82_56:                              #   in Loop: Header=BB82_23 Depth=4
	jmp	.LBB82_57
.LBB82_57:                              #   in Loop: Header=BB82_23 Depth=4
	movabsq	$.L.str.235, %rdi
	movb	$0, %al
	callq	printf@PLT
	movabsq	$.L.str.236, %rdi
	movb	$0, %al
	callq	printf@PLT
# %bb.58:                               #   in Loop: Header=BB82_23 Depth=4
	movabsq	$.L.str.237, %rdi
	movb	$0, %al
	callq	printf@PLT
	movss	.LCPI82_6(%rip), %xmm0          # xmm0 = mem[0],zero,zero,zero
	movss	%xmm0, -12(%rbp)
.LBB82_59:                              #   Parent Loop BB82_1 Depth=1
                                        #     Parent Loop BB82_8 Depth=2
                                        #       Parent Loop BB82_15 Depth=3
                                        #         Parent Loop BB82_23 Depth=4
                                        # =>        This Inner Loop Header: Depth=5
	movss	-12(%rbp), %xmm0                # xmm0 = mem[0],zero,zero,zero
	cvtss2sd	%xmm0, %xmm0
	movabsq	$.L.str.238, %rdi
	movb	$1, %al
	callq	printf@PLT
	callq	getchar@PLT
# %bb.60:                               #   in Loop: Header=BB82_59 Depth=5
	movss	-12(%rbp), %xmm0                # xmm0 = mem[0],zero,zero,zero
	cvtss2sd	%xmm0, %xmm0
	movsd	.LCPI82_7(%rip), %xmm1          # xmm1 = mem[0],zero
	addsd	%xmm1, %xmm0
	cvtsd2ss	%xmm0, %xmm0
	movss	%xmm0, -12(%rbp)
# %bb.61:                               #   in Loop: Header=BB82_59 Depth=5
	movss	-12(%rbp), %xmm0                # xmm0 = mem[0],zero,zero,zero
	cvtss2sd	%xmm0, %xmm0
	movsd	.LCPI82_8(%rip), %xmm1          # xmm1 = mem[0],zero
	ucomisd	%xmm0, %xmm1
	jae	.LBB82_59
# %bb.62:                               #   in Loop: Header=BB82_23 Depth=4
	jmp	.LBB82_63
.LBB82_63:                              #   in Loop: Header=BB82_23 Depth=4
	movabsq	$.L.str.239, %rdi
	movb	$0, %al
	callq	printf@PLT
	xorl	%edi, %edi
	xorl	%esi, %esi
	xorl	%edx, %edx
	callq	FF_function_140
# %bb.64:                               #   in Loop: Header=BB82_23 Depth=4
	callq	getchar@PLT
	cmpl	$67, %eax
	jne	.LBB82_66
# %bb.65:                               #   in Loop: Header=BB82_23 Depth=4
	jmp	.LBB82_70
.LBB82_66:                              #   in Loop: Header=BB82_23 Depth=4
	callq	getchar@PLT
	cmpl	$17, %eax
	jne	.LBB82_68
# %bb.67:                               #   in Loop: Header=BB82_23 Depth=4
	jmp	.LBB82_69
.LBB82_68:                              #   in Loop: Header=BB82_23 Depth=4
	xorl	%edi, %edi
	callq	FF_function_131
.LBB82_69:                              #   in Loop: Header=BB82_23 Depth=4
	jmp	.LBB82_70
.LBB82_70:                              #   in Loop: Header=BB82_23 Depth=4
	movss	.LCPI82_9(%rip), %xmm0          # xmm0 = mem[0],zero,zero,zero
	addss	-20(%rbp), %xmm0
	movss	%xmm0, -20(%rbp)
	jmp	.LBB82_23
.LBB82_71:                              # %.loopexit1
                                        #   in Loop: Header=BB82_15 Depth=3
	jmp	.LBB82_72
.LBB82_72:                              #   in Loop: Header=BB82_15 Depth=3
	jmp	.LBB82_73
.LBB82_73:                              #   in Loop: Header=BB82_15 Depth=3
	movabsq	$.L.str.240, %rdi
	movb	$0, %al
	callq	printf@PLT
	callq	FF_function_148
# %bb.74:                               #   in Loop: Header=BB82_15 Depth=3
	callq	getchar@PLT
	cmpl	$67, %eax
	jne	.LBB82_76
# %bb.75:                               #   in Loop: Header=BB82_15 Depth=3
	jmp	.LBB82_78
.LBB82_76:                              #   in Loop: Header=BB82_15 Depth=3
	movabsq	$.L.str.241, %rdi
	movb	$0, %al
	callq	printf@PLT
# %bb.77:                               #   in Loop: Header=BB82_15 Depth=3
	jmp	.LBB82_78
.LBB82_78:                              #   in Loop: Header=BB82_15 Depth=3
	movl	-24(%rbp), %eax
	addl	$9, %eax
	movl	%eax, -24(%rbp)
	jmp	.LBB82_15
.LBB82_79:                              #   in Loop: Header=BB82_8 Depth=2
	jmp	.LBB82_80
.LBB82_80:                              #   in Loop: Header=BB82_8 Depth=2
	movabsq	$.L.str.242, %rdi
	movb	$0, %al
	callq	printf@PLT
	movabsq	$.L.str.243, %rdi
	movb	$0, %al
	callq	printf@PLT
# %bb.81:                               #   in Loop: Header=BB82_8 Depth=2
	callq	getchar@PLT
	cmpl	$67, %eax
	jne	.LBB82_83
# %bb.82:                               #   in Loop: Header=BB82_8 Depth=2
	jmp	.LBB82_87
.LBB82_83:                              #   in Loop: Header=BB82_8 Depth=2
	callq	getchar@PLT
	cmpl	$17, %eax
	jne	.LBB82_85
# %bb.84:                               #   in Loop: Header=BB82_8 Depth=2
	jmp	.LBB82_86
.LBB82_85:                              #   in Loop: Header=BB82_8 Depth=2
	movabsq	$.L.str.244, %rdi
	movb	$0, %al
	callq	printf@PLT
.LBB82_86:                              #   in Loop: Header=BB82_8 Depth=2
	jmp	.LBB82_87
.LBB82_87:                              # %.backedge
                                        #   in Loop: Header=BB82_8 Depth=2
	jmp	.LBB82_8
.LBB82_88:                              #   in Loop: Header=BB82_1 Depth=1
	jmp	.LBB82_89
.LBB82_89:                              #   in Loop: Header=BB82_1 Depth=1
	movabsq	$.L.str.245, %rdi
	movb	$0, %al
	callq	printf@PLT
	callq	FF_function_172
# %bb.90:                               #   in Loop: Header=BB82_1 Depth=1
	callq	getchar@PLT
	cmpl	$67, %eax
	jne	.LBB82_92
# %bb.91:                               #   in Loop: Header=BB82_1 Depth=1
	jmp	.LBB82_96
.LBB82_92:                              #   in Loop: Header=BB82_1 Depth=1
	callq	getchar@PLT
	cmpl	$17, %eax
	jne	.LBB82_94
# %bb.93:                               #   in Loop: Header=BB82_1 Depth=1
	jmp	.LBB82_95
.LBB82_94:                              #   in Loop: Header=BB82_1 Depth=1
	movabsq	$.L.str.246, %rdi
	movb	$0, %al
	callq	printf@PLT
.LBB82_95:                              #   in Loop: Header=BB82_1 Depth=1
	callq	getchar@PLT
	cvtsi2ss	%eax, %xmm0
	movss	-32(%rbp), %xmm1                # xmm1 = mem[0],zero,zero,zero
	subss	%xmm0, %xmm1
	movss	%xmm1, -32(%rbp)
.LBB82_96:                              #   in Loop: Header=BB82_1 Depth=1
	movb	$1, %al
	testb	$1, %al
	jne	.LBB82_1
	jmp	.LBB82_97
.LBB82_97:
	jmp	.LBB82_98
.LBB82_98:
	movabsq	$.L.str.247, %rdi
	movb	$0, %al
	callq	printf@PLT
	xorps	%xmm0, %xmm0
	callq	FF_function_109
.LBB82_99:
	movabsq	$.L.str.248, %rdi
	movb	$0, %al
	callq	printf@PLT
	movb	$0, -8(%rbp)
.LBB82_100:
	movb	-8(%rbp), %al
	addq	$64, %rsp
	popq	%rbp
	.cfi_def_cfa %rsp, 8
	retq
.Lfunc_end82:
	.size	CF_function_179, .Lfunc_end82-CF_function_179
	.cfi_endproc
                                        # -- End function
	.globl	FF_function_180                 # -- Begin function FF_function_180
	.p2align	4, 0x90
	.type	FF_function_180,@function
FF_function_180:                        # @FF_function_180
	.cfi_startproc
# %bb.0:
	pushq	%rbp
	.cfi_def_cfa_offset 16
	.cfi_offset %rbp, -16
	movq	%rsp, %rbp
	.cfi_def_cfa_register %rbp
	subq	$16, %rsp
	movss	%xmm0, -12(%rbp)
	movss	%xmm1, -8(%rbp)
	movabsq	$.L.str.249, %rdi
	movb	$0, %al
	callq	printf@PLT
	movw	$0, -2(%rbp)
	movabsq	$.L.str.250, %rdi
	movb	$0, %al
	callq	printf@PLT
	movzwl	-2(%rbp), %eax
	addq	$16, %rsp
	popq	%rbp
	.cfi_def_cfa %rsp, 8
	retq
.Lfunc_end83:
	.size	FF_function_180, .Lfunc_end83-FF_function_180
	.cfi_endproc
                                        # -- End function
	.section	.rodata.cst4,"aM",@progbits,4
	.p2align	2                               # -- Begin function CF_function_181
.LCPI84_0:
	.long	0x45dab214                      # float 6998.25977
.LCPI84_1:
	.long	0x41000000                      # float 8
	.section	.rodata.cst8,"aM",@progbits,8
	.p2align	3
.LCPI84_2:
	.quad	0x401551eb851eb852              # double 5.3300000000000001
.LCPI84_3:
	.quad	0x40a6360000000000              # double 2843
	.text
	.globl	CF_function_181
	.p2align	4, 0x90
	.type	CF_function_181,@function
CF_function_181:                        # @CF_function_181
	.cfi_startproc
# %bb.0:
	pushq	%rbp
	.cfi_def_cfa_offset 16
	.cfi_offset %rbp, -16
	movq	%rsp, %rbp
	.cfi_def_cfa_register %rbp
	subq	$32, %rsp
	movb	%dil, -17(%rbp)
	movabsq	$.L.str.251, %rdi
	movb	$0, %al
	callq	printf@PLT
	movabsq	$.L.str.252, %rdi
	movb	$0, %al
	callq	printf@PLT
.LBB84_1:                               # =>This Loop Header: Depth=1
                                        #     Child Loop BB84_8 Depth 2
                                        #       Child Loop BB84_14 Depth 3
                                        #     Child Loop BB84_36 Depth 2
	movabsq	$.L.str.253, %rdi
	movb	$0, %al
	callq	printf@PLT
	movabsq	$.L.str.254, %rdi
	movb	$0, %al
	callq	printf@PLT
	callq	getchar@PLT
	cmpl	$97, %eax
	jne	.LBB84_3
# %bb.2:
	movl	$1923, %edi                     # imm = 0x783
	callq	exit@PLT
.LBB84_3:                               #   in Loop: Header=BB84_1 Depth=1
	callq	getchar@PLT
	cmpl	$19, %eax
	jne	.LBB84_5
# %bb.4:
	jmp	.LBB84_48
.LBB84_5:                               #   in Loop: Header=BB84_1 Depth=1
	callq	getchar@PLT
	cmpl	$83, %eax
	jne	.LBB84_7
# %bb.6:
	movabsq	$.L.str.255, %rdi
	movb	$0, %al
	callq	printf@PLT
	jmp	.LBB84_49
.LBB84_7:                               #   in Loop: Header=BB84_1 Depth=1
	movabsq	$.L.str.256, %rdi
	movb	$0, %al
	callq	printf@PLT
	movabsq	$.L.str.257, %rdi
	movb	$0, %al
	callq	printf@PLT
	movss	.LCPI84_0(%rip), %xmm0          # xmm0 = mem[0],zero,zero,zero
	movss	%xmm0, -4(%rbp)
.LBB84_8:                               #   Parent Loop BB84_1 Depth=1
                                        # =>  This Loop Header: Depth=2
                                        #       Child Loop BB84_14 Depth 3
	movss	-4(%rbp), %xmm0                 # xmm0 = mem[0],zero,zero,zero
	movss	.LCPI84_1(%rip), %xmm1          # xmm1 = mem[0],zero,zero,zero
	ucomiss	%xmm1, %xmm0
	jne	.LBB84_9
	jp	.LBB84_9
	jmp	.LBB84_33
.LBB84_9:                               #   in Loop: Header=BB84_8 Depth=2
	movss	-4(%rbp), %xmm0                 # xmm0 = mem[0],zero,zero,zero
	cvtss2sd	%xmm0, %xmm0
	movabsq	$.L.str.258, %rdi
	movb	$1, %al
	callq	printf@PLT
	movabsq	$.L.str.259, %rdi
	movb	$0, %al
	callq	printf@PLT
	callq	getchar@PLT
	cmpl	$97, %eax
	jne	.LBB84_11
# %bb.10:
	movl	$1923, %edi                     # imm = 0x783
	callq	exit@PLT
.LBB84_11:                              #   in Loop: Header=BB84_8 Depth=2
	callq	getchar@PLT
	cmpl	$83, %eax
	jne	.LBB84_13
# %bb.12:                               #   in Loop: Header=BB84_1 Depth=1
	movabsq	$.L.str.260, %rdi
	movb	$0, %al
	callq	printf@PLT
	jmp	.LBB84_35
.LBB84_13:                              #   in Loop: Header=BB84_8 Depth=2
	movabsq	$.L.str.261, %rdi
	movb	$0, %al
	callq	printf@PLT
	movabsq	$.L.str.262, %rdi
	movb	$0, %al
	callq	printf@PLT
	movl	$7206, -16(%rbp)                # imm = 0x1C26
.LBB84_14:                              #   Parent Loop BB84_1 Depth=1
                                        #     Parent Loop BB84_8 Depth=2
                                        # =>    This Inner Loop Header: Depth=3
	movl	-16(%rbp), %esi
	movabsq	$.L.str.263, %rdi
	movb	$0, %al
	callq	printf@PLT
	movabsq	$.L.str.264, %rdi
	movb	$0, %al
	callq	printf@PLT
	callq	getchar@PLT
	cmpl	$23, %eax
	jne	.LBB84_16
# %bb.15:                               #   in Loop: Header=BB84_8 Depth=2
	jmp	.LBB84_27
.LBB84_16:                              #   in Loop: Header=BB84_14 Depth=3
	callq	getchar@PLT
	cmpl	$83, %eax
	jne	.LBB84_18
# %bb.17:                               #   in Loop: Header=BB84_8 Depth=2
	movabsq	$.L.str.265, %rdi
	movb	$0, %al
	callq	printf@PLT
	jmp	.LBB84_29
.LBB84_18:                              #   in Loop: Header=BB84_14 Depth=3
	callq	getchar@PLT
	cmpl	$73, %eax
	jne	.LBB84_20
# %bb.19:
	movabsq	$.L.str.266, %rdi
	movb	$0, %al
	callq	printf@PLT
	jmp	.LBB84_48
.LBB84_20:                              #   in Loop: Header=BB84_14 Depth=3
	movabsq	$.L.str.267, %rdi
	movb	$0, %al
	callq	printf@PLT
	callq	getchar@PLT
	cmpl	$67, %eax
	jne	.LBB84_22
# %bb.21:                               #   in Loop: Header=BB84_14 Depth=3
	jmp	.LBB84_26
.LBB84_22:                              #   in Loop: Header=BB84_14 Depth=3
	callq	getchar@PLT
	cmpl	$17, %eax
	jne	.LBB84_24
# %bb.23:                               #   in Loop: Header=BB84_14 Depth=3
	jmp	.LBB84_25
.LBB84_24:                              #   in Loop: Header=BB84_14 Depth=3
	movabsq	$.L.str.268, %rdi
	movb	$0, %al
	callq	printf@PLT
.LBB84_25:                              #   in Loop: Header=BB84_14 Depth=3
	jmp	.LBB84_26
.LBB84_26:                              #   in Loop: Header=BB84_14 Depth=3
	movl	-16(%rbp), %eax
	subl	$11, %eax
	movl	%eax, -16(%rbp)
	jmp	.LBB84_14
.LBB84_27:                              #   in Loop: Header=BB84_8 Depth=2
	jmp	.LBB84_28
.LBB84_28:                              #   in Loop: Header=BB84_8 Depth=2
	movabsq	$.L.str.269, %rdi
	movb	$0, %al
	callq	printf@PLT
	xorl	%edi, %edi
	xorl	%esi, %esi
	xorl	%edx, %edx
	callq	FF_function_107
	movzbl	%al, %edi
	xorl	%esi, %esi
	xorl	%edx, %edx
	callq	FF_function_107
.LBB84_29:                              #   in Loop: Header=BB84_8 Depth=2
	callq	getchar@PLT
	cmpl	$17, %eax
	jne	.LBB84_31
# %bb.30:                               #   in Loop: Header=BB84_8 Depth=2
	jmp	.LBB84_32
.LBB84_31:                              #   in Loop: Header=BB84_8 Depth=2
	xorl	%edi, %edi
	xorl	%esi, %esi
	xorl	%edx, %edx
	xorl	%ecx, %ecx
	callq	FF_function_110
.LBB84_32:                              #   in Loop: Header=BB84_8 Depth=2
	movss	-4(%rbp), %xmm0                 # xmm0 = mem[0],zero,zero,zero
	cvtss2sd	%xmm0, %xmm0
	movsd	.LCPI84_2(%rip), %xmm1          # xmm1 = mem[0],zero
	divsd	%xmm1, %xmm0
	cvtsd2ss	%xmm0, %xmm0
	movss	%xmm0, -4(%rbp)
	jmp	.LBB84_8
.LBB84_33:                              #   in Loop: Header=BB84_1 Depth=1
	jmp	.LBB84_34
.LBB84_34:                              #   in Loop: Header=BB84_1 Depth=1
	movabsq	$.L.str.270, %rdi
	movb	$0, %al
	callq	printf@PLT
	xorl	%edi, %edi
	xorps	%xmm0, %xmm0
	xorps	%xmm1, %xmm1
	xorl	%esi, %esi
	xorl	%edx, %edx
	callq	FF_function_121
.LBB84_35:                              #   in Loop: Header=BB84_1 Depth=1
	movabsq	$.L.str.271, %rdi
	movb	$0, %al
	callq	printf@PLT
	movl	$2824, -12(%rbp)                # imm = 0xB08
.LBB84_36:                              #   Parent Loop BB84_1 Depth=1
                                        # =>  This Inner Loop Header: Depth=2
	cvtsi2sdl	-12(%rbp), %xmm0
	movsd	.LCPI84_3(%rip), %xmm1          # xmm1 = mem[0],zero
	ucomisd	%xmm0, %xmm1
	jb	.LBB84_40
# %bb.37:                               #   in Loop: Header=BB84_36 Depth=2
	movabsq	$.L.str.272, %rdi
	movb	$0, %al
	callq	printf@PLT
	callq	getchar@PLT
# %bb.38:                               #   in Loop: Header=BB84_36 Depth=2
	jmp	.LBB84_39
.LBB84_39:                              #   in Loop: Header=BB84_36 Depth=2
	movl	-12(%rbp), %eax
	addl	$1, %eax
	movl	%eax, -12(%rbp)
	jmp	.LBB84_36
.LBB84_40:                              #   in Loop: Header=BB84_1 Depth=1
	jmp	.LBB84_41
.LBB84_41:                              #   in Loop: Header=BB84_1 Depth=1
	movabsq	$.L.str.273, %rdi
	movb	$0, %al
	callq	printf@PLT
	movabsq	$.L.str.274, %rdi
	movb	$0, %al
	callq	printf@PLT
# %bb.42:                               #   in Loop: Header=BB84_1 Depth=1
	callq	getchar@PLT
	cmpl	$17, %eax
	jne	.LBB84_44
# %bb.43:                               #   in Loop: Header=BB84_1 Depth=1
	jmp	.LBB84_45
.LBB84_44:                              #   in Loop: Header=BB84_1 Depth=1
	movabsq	$.L.str.275, %rdi
	movb	$0, %al
	callq	printf@PLT
.LBB84_45:                              #   in Loop: Header=BB84_1 Depth=1
	jmp	.LBB84_46
.LBB84_46:                              #   in Loop: Header=BB84_1 Depth=1
	movb	$1, %al
	testb	$1, %al
	jne	.LBB84_1
	jmp	.LBB84_47
.LBB84_47:
	jmp	.LBB84_48
.LBB84_48:
	movabsq	$.L.str.276, %rdi
	movb	$0, %al
	callq	printf@PLT
	xorps	%xmm0, %xmm0
	xorl	%edi, %edi
	callq	FF_function_124
.LBB84_49:
	movabsq	$.L.str.277, %rdi
	movb	$0, %al
	callq	printf@PLT
	movw	$0, -8(%rbp)
	movw	-8(%rbp), %ax
	addq	$32, %rsp
	popq	%rbp
	.cfi_def_cfa %rsp, 8
	retq
.Lfunc_end84:
	.size	CF_function_181, .Lfunc_end84-CF_function_181
	.cfi_endproc
                                        # -- End function
	.globl	FF_function_183                 # -- Begin function FF_function_183
	.p2align	4, 0x90
	.type	FF_function_183,@function
FF_function_183:                        # @FF_function_183
	.cfi_startproc
# %bb.0:
	pushq	%rbp
	.cfi_def_cfa_offset 16
	.cfi_offset %rbp, -16
	movq	%rsp, %rbp
	.cfi_def_cfa_register %rbp
	subq	$224, %rsp
	testb	%al, %al
	je	.LBB85_5
# %bb.4:
	movaps	%xmm1, -160(%rbp)
	movaps	%xmm2, -144(%rbp)
	movaps	%xmm3, -128(%rbp)
	movaps	%xmm4, -112(%rbp)
	movaps	%xmm5, -96(%rbp)
	movaps	%xmm6, -80(%rbp)
	movaps	%xmm7, -64(%rbp)
.LBB85_5:
	movq	%r9, -184(%rbp)
	movq	%r8, -192(%rbp)
	movq	%rcx, -200(%rbp)
	movq	%rdx, -208(%rbp)
	movq	%rsi, -216(%rbp)
	movq	%rdi, -224(%rbp)
	movsd	%xmm0, -40(%rbp)
	movabsq	$.L.str.278, %rdi
	movb	$0, %al
	callq	printf@PLT
	leaq	-32(%rbp), %rax
	leaq	-224(%rbp), %rcx
	movq	%rcx, 16(%rax)
	leaq	16(%rbp), %rcx
	movq	%rcx, 8(%rax)
	movl	$64, 4(%rax)
	movl	$0, (%rax)
	leaq	-32(%rbp), %rcx
	movl	-32(%rbp), %edx
	cmpl	$40, %edx
	ja	.LBB85_2
# %bb.1:
	movslq	%edx, %rax
	addq	16(%rcx), %rax
	addl	$8, %edx
	movl	%edx, (%rcx)
	jmp	.LBB85_3
.LBB85_2:
	movq	8(%rcx), %rax
	movq	%rax, %rdx
	addq	$8, %rdx
	movq	%rdx, 8(%rcx)
.LBB85_3:
	movq	(%rax), %rax
	movq	%rax, -8(%rbp)
	xorps	%xmm0, %xmm0
	movl	$1, %edi
	movb	$1, %al
	callq	FF_function_183
	xorps	%xmm0, %xmm0
	movl	$1, %edi
	movl	$2, %esi
	movl	$3, %edx
	movb	$1, %al
	callq	FF_function_183
	movl	$.L.str.279, %edi
	xorl	%eax, %eax
	callq	printf@PLT
	movq	-8(%rbp), %rax
	addq	$224, %rsp
	popq	%rbp
	.cfi_def_cfa %rsp, 8
	retq
.Lfunc_end85:
	.size	FF_function_183, .Lfunc_end85-FF_function_183
	.cfi_endproc
                                        # -- End function
	.section	.rodata.cst4,"aM",@progbits,4
	.p2align	2                               # -- Begin function CF_function_184
.LCPI86_0:
	.long	0x46028bcd                      # float 8354.95019
.LCPI86_1:
	.long	0x40000000                      # float 2
.LCPI86_2:
	.long	0xbf800000                      # float -1
.LCPI86_3:
	.long	0x3f000000                      # float 0.5
.LCPI86_4:
	.long	0x4538aa14                      # float 2954.62988
	.section	.rodata.cst8,"aM",@progbits,8
	.p2align	3
.LCPI86_5:
	.quad	0x40a7080000000000              # double 2948
	.text
	.globl	CF_function_184
	.p2align	4, 0x90
	.type	CF_function_184,@function
CF_function_184:                        # @CF_function_184
	.cfi_startproc
# %bb.0:
	pushq	%rbp
	.cfi_def_cfa_offset 16
	.cfi_offset %rbp, -16
	movq	%rsp, %rbp
	.cfi_def_cfa_register %rbp
	pushq	%rbx
	subq	$120, %rsp
	.cfi_offset %rbx, -24
	movsd	%xmm0, -64(%rbp)
	movabsq	$.L.str.280, %rdi
	movb	$0, %al
	callq	printf@PLT
	movabsq	$.L.str.281, %rdi
	movb	$0, %al
	callq	printf@PLT
.LBB86_1:                               # =>This Loop Header: Depth=1
                                        #     Child Loop BB86_6 Depth 2
                                        #       Child Loop BB86_15 Depth 3
                                        #     Child Loop BB86_37 Depth 2
                                        #       Child Loop BB86_45 Depth 3
	movabsq	$.L.str.282, %rdi
	movb	$0, %al
	callq	printf@PLT
	movabsq	$.L.str.283, %rdi
	movb	$0, %al
	callq	printf@PLT
	callq	getchar@PLT
	cmpl	$19, %eax
	jne	.LBB86_3
# %bb.2:
	jmp	.LBB86_61
.LBB86_3:                               #   in Loop: Header=BB86_1 Depth=1
	callq	getchar@PLT
	cmpl	$83, %eax
	jne	.LBB86_5
# %bb.4:
	movabsq	$.L.str.284, %rdi
	movb	$0, %al
	callq	printf@PLT
	jmp	.LBB86_62
.LBB86_5:                               #   in Loop: Header=BB86_1 Depth=1
	movabsq	$.L.str.285, %rdi
	movb	$0, %al
	callq	printf@PLT
	movabsq	$.L.str.286, %rdi
	movb	$0, %al
	callq	printf@PLT
.LBB86_6:                               #   Parent Loop BB86_1 Depth=1
                                        # =>  This Loop Header: Depth=2
                                        #       Child Loop BB86_15 Depth 3
	movabsq	$.L.str.287, %rdi
	movb	$0, %al
	callq	printf@PLT
	callq	FF_function_173
	callq	getchar@PLT
	cmpl	$23, %eax
	jne	.LBB86_8
# %bb.7:                                #   in Loop: Header=BB86_1 Depth=1
	jmp	.LBB86_34
.LBB86_8:                               #   in Loop: Header=BB86_6 Depth=2
	callq	getchar@PLT
	cmpl	$31, %eax
	jne	.LBB86_10
# %bb.9:
	jmp	.LBB86_63
.LBB86_10:                              #   in Loop: Header=BB86_6 Depth=2
	callq	getchar@PLT
	cmpl	$19, %eax
	jne	.LBB86_12
# %bb.11:                               #   in Loop: Header=BB86_1 Depth=1
	jmp	.LBB86_35
.LBB86_12:                              #   in Loop: Header=BB86_6 Depth=2
	callq	getchar@PLT
	cmpl	$73, %eax
	jne	.LBB86_14
# %bb.13:
	movabsq	$.L.str.288, %rdi
	movb	$0, %al
	callq	printf@PLT
	jmp	.LBB86_61
.LBB86_14:                              #   in Loop: Header=BB86_6 Depth=2
	movabsq	$.L.str.289, %rdi
	movb	$0, %al
	callq	printf@PLT
	movabsq	$.L.str.290, %rdi
	movb	$0, %al
	callq	printf@PLT
	movss	.LCPI86_0(%rip), %xmm0          # xmm0 = mem[0],zero,zero,zero
	movss	%xmm0, -28(%rbp)
.LBB86_15:                              #   Parent Loop BB86_1 Depth=1
                                        #     Parent Loop BB86_6 Depth=2
                                        # =>    This Inner Loop Header: Depth=3
	movss	-28(%rbp), %xmm0                # xmm0 = mem[0],zero,zero,zero
	movss	.LCPI86_1(%rip), %xmm1          # xmm1 = mem[0],zero,zero,zero
	ucomiss	%xmm1, %xmm0
	jbe	.LBB86_27
# %bb.16:                               #   in Loop: Header=BB86_15 Depth=3
	movss	-28(%rbp), %xmm0                # xmm0 = mem[0],zero,zero,zero
	cvtss2sd	%xmm0, %xmm0
	movabsq	$.L.str.291, %rdi
	movb	$1, %al
	callq	printf@PLT
	xorl	%edi, %edi
	xorps	%xmm0, %xmm0
	xorl	%esi, %esi
	xorl	%edx, %edx
	xorps	%xmm1, %xmm1
	xorl	%ecx, %ecx
	xorl	%r8d, %r8d
	xorl	%r9d, %r9d
	xorps	%xmm2, %xmm2
	movl	$0, (%rsp)
	movl	$0, 8(%rsp)
	movl	$0, 16(%rsp)
	movl	$0, 24(%rsp)
	movq	$0, 32(%rsp)
	movl	$0, 40(%rsp)
	movq	$0, 48(%rsp)
	callq	FF_function_129
	movq	%rax, %rbx
	callq	FF_function_172
	movq	%rbx, %rdi
	xorps	%xmm0, %xmm0
	xorl	%esi, %esi
	movswl	%ax, %edx
	xorps	%xmm1, %xmm1
	xorl	%ecx, %ecx
	callq	FF_function_141
	callq	getchar@PLT
	cmpl	$19, %eax
	jne	.LBB86_18
# %bb.17:                               #   in Loop: Header=BB86_6 Depth=2
	jmp	.LBB86_28
.LBB86_18:                              #   in Loop: Header=BB86_15 Depth=3
	callq	getchar@PLT
	cmpl	$83, %eax
	jne	.LBB86_20
# %bb.19:                               #   in Loop: Header=BB86_6 Depth=2
	movabsq	$.L.str.292, %rdi
	movb	$0, %al
	callq	printf@PLT
	jmp	.LBB86_29
.LBB86_20:                              #   in Loop: Header=BB86_15 Depth=3
	callq	getchar@PLT
	cmpl	$73, %eax
	jne	.LBB86_22
# %bb.21:
	movabsq	$.L.str.293, %rdi
	movb	$0, %al
	callq	printf@PLT
	jmp	.LBB86_61
.LBB86_22:                              #   in Loop: Header=BB86_15 Depth=3
	movabsq	$.L.str.294, %rdi
	movb	$0, %al
	callq	printf@PLT
	xorps	%xmm0, %xmm0
	callq	FF_function_106
	movabsq	$.L.str.295, %rdi
	movb	$0, %al
	callq	printf@PLT
	callq	FF_function_155
	movaps	%xmm0, %xmm2
	xorl	%edi, %edi
	xorps	%xmm0, %xmm0
	xorl	%esi, %esi
	xorl	%edx, %edx
	xorps	%xmm1, %xmm1
	xorl	%ecx, %ecx
	xorl	%r8d, %r8d
	xorl	%r9d, %r9d
	movl	$0, (%rsp)
	movl	$0, 8(%rsp)
	movl	$0, 16(%rsp)
	movl	$0, 24(%rsp)
	movq	$0, 32(%rsp)
	movl	$0, 40(%rsp)
	movq	$0, 48(%rsp)
	callq	FF_function_129
	movabsq	$.L.str.296, %rdi
	movb	$0, %al
	callq	printf@PLT
	callq	FF_function_162
	movabsq	$.L.str.297, %rdi
	movb	$0, %al
	callq	printf@PLT
	movabsq	$.L.str.298, %rdi
	movb	$0, %al
	callq	printf@PLT
	callq	getchar@PLT
	cmpl	$67, %eax
	jne	.LBB86_24
# %bb.23:                               #   in Loop: Header=BB86_15 Depth=3
	jmp	.LBB86_26
.LBB86_24:                              #   in Loop: Header=BB86_15 Depth=3
	movabsq	$.L.str.299, %rdi
	movb	$0, %al
	callq	printf@PLT
# %bb.25:                               #   in Loop: Header=BB86_15 Depth=3
	jmp	.LBB86_26
.LBB86_26:                              #   in Loop: Header=BB86_15 Depth=3
	movss	.LCPI86_2(%rip), %xmm0          # xmm0 = mem[0],zero,zero,zero
	addss	-28(%rbp), %xmm0
	movss	%xmm0, -28(%rbp)
	jmp	.LBB86_15
.LBB86_27:                              #   in Loop: Header=BB86_6 Depth=2
	jmp	.LBB86_28
.LBB86_28:                              #   in Loop: Header=BB86_6 Depth=2
	movabsq	$.L.str.300, %rdi
	movb	$0, %al
	callq	printf@PLT
	movabsq	$.L.str.301, %rdi
	movb	$0, %al
	callq	printf@PLT
.LBB86_29:                              #   in Loop: Header=BB86_6 Depth=2
	callq	getchar@PLT
	cmpl	$67, %eax
	jne	.LBB86_32
# %bb.30:                               #   in Loop: Header=BB86_6 Depth=2
	jmp	.LBB86_31
.LBB86_31:                              # %.backedge1
                                        #   in Loop: Header=BB86_6 Depth=2
	jmp	.LBB86_6
.LBB86_32:                              #   in Loop: Header=BB86_6 Depth=2
	movabsq	$.L.str.302, %rdi
	movb	$0, %al
	callq	printf@PLT
# %bb.33:                               #   in Loop: Header=BB86_6 Depth=2
	jmp	.LBB86_31
.LBB86_34:                              #   in Loop: Header=BB86_1 Depth=1
	jmp	.LBB86_35
.LBB86_35:                              #   in Loop: Header=BB86_1 Depth=1
	movabsq	$.L.str.303, %rdi
	movb	$0, %al
	callq	printf@PLT
	movabsq	$.L.str.304, %rdi
	movb	$0, %al
	callq	printf@PLT
# %bb.36:                               #   in Loop: Header=BB86_1 Depth=1
	movabsq	$.L.str.305, %rdi
	movb	$0, %al
	callq	printf@PLT
	movl	$8398, -24(%rbp)                # imm = 0x20CE
.LBB86_37:                              #   Parent Loop BB86_1 Depth=1
                                        # =>  This Loop Header: Depth=2
                                        #       Child Loop BB86_45 Depth 3
	cmpl	$4, -24(%rbp)
	jle	.LBB86_56
# %bb.38:                               #   in Loop: Header=BB86_37 Depth=2
	movl	-24(%rbp), %esi
	movabsq	$.L.str.306, %rdi
	movb	$0, %al
	callq	printf@PLT
	movabsq	$.L.str.307, %rdi
	movb	$0, %al
	callq	printf@PLT
	xorps	%xmm0, %xmm0
	callq	FF_function_106
	movabsq	$.L.str.308, %rdi
	movb	$0, %al
	callq	printf@PLT
	movabsq	$.L.str.309, %rdi
	movb	$0, %al
	callq	printf@PLT
	xorl	%edi, %edi
	xorl	%esi, %esi
	callq	FF_function_118
	movq	%rax, %rdi
	xorps	%xmm0, %xmm0
	xorl	%esi, %esi
	xorl	%edx, %edx
	xorps	%xmm1, %xmm1
	xorl	%ecx, %ecx
	callq	FF_function_141
	callq	FF_function_153
	movaps	%xmm0, %xmm1
	xorl	%edi, %edi
	xorl	%esi, %esi
	xorl	%edx, %edx
	xorl	%ecx, %ecx
	xorl	%r8d, %r8d
	xorl	%r9d, %r9d
	xorps	%xmm0, %xmm0
	callq	FF_function_115
	callq	FF_function_158
	xorps	%xmm0, %xmm0
	callq	FF_function_109
	movabsq	$.L.str.310, %rdi
	movb	$0, %al
	callq	printf@PLT
	xorl	%edi, %edi
	callq	FF_function_130
	movq	%rax, %rdi
	xorps	%xmm0, %xmm0
	xorl	%esi, %esi
	xorl	%edx, %edx
	xorps	%xmm1, %xmm1
	xorl	%ecx, %ecx
	callq	FF_function_141
	movabsq	$.L.str.311, %rdi
	movb	$0, %al
	callq	printf@PLT
	xorl	%edi, %edi
	callq	FF_function_166
	movabsq	$.L.str.312, %rdi
	movb	$0, %al
	callq	printf@PLT
	xorl	%edi, %edi
	callq	FF_function_130
	movabsq	$.L.str.313, %rdi
	movb	$0, %al
	callq	printf@PLT
	movabsq	$.L.str.314, %rdi
	movb	$0, %al
	callq	printf@PLT
	movabsq	$.L.str.315, %rdi
	movb	$0, %al
	callq	printf@PLT
	movl	$0, -48(%rbp)
	movss	.LCPI86_3(%rip), %xmm0          # xmm0 = mem[0],zero,zero,zero
	movss	%xmm0, -44(%rbp)
	movq	$0, -40(%rbp)
	movq	-48(%rbp), %rdi
	movq	-40(%rbp), %rsi
	xorl	%edx, %edx
	xorl	%ecx, %ecx
	movb	$0, %al
	callq	FF_function_171
	xorl	%edi, %edi
	xorl	%esi, %esi
	movq	%rax, %rdx
	callq	FF_function_140
	callq	getchar@PLT
	cmpl	$23, %eax
	jne	.LBB86_40
# %bb.39:                               #   in Loop: Header=BB86_1 Depth=1
	jmp	.LBB86_57
.LBB86_40:                              #   in Loop: Header=BB86_37 Depth=2
	callq	getchar@PLT
	cmpl	$31, %eax
	jne	.LBB86_42
# %bb.41:
	jmp	.LBB86_63
.LBB86_42:                              #   in Loop: Header=BB86_37 Depth=2
	callq	getchar@PLT
	cmpl	$83, %eax
	jne	.LBB86_44
# %bb.43:                               #   in Loop: Header=BB86_1 Depth=1
	movabsq	$.L.str.316, %rdi
	movb	$0, %al
	callq	printf@PLT
	jmp	.LBB86_59
.LBB86_44:                              #   in Loop: Header=BB86_37 Depth=2
	movabsq	$.L.str.317, %rdi
	movb	$0, %al
	callq	printf@PLT
	movabsq	$.L.str.318, %rdi
	movb	$0, %al
	callq	printf@PLT
	movss	.LCPI86_4(%rip), %xmm0          # xmm0 = mem[0],zero,zero,zero
	movss	%xmm0, -20(%rbp)
.LBB86_45:                              #   Parent Loop BB86_1 Depth=1
                                        #     Parent Loop BB86_37 Depth=2
                                        # =>    This Inner Loop Header: Depth=3
	movss	-20(%rbp), %xmm0                # xmm0 = mem[0],zero,zero,zero
	cvtss2sd	%xmm0, %xmm0
	movsd	.LCPI86_5(%rip), %xmm1          # xmm1 = mem[0],zero
	ucomisd	%xmm1, %xmm0
	jb	.LBB86_49
# %bb.46:                               #   in Loop: Header=BB86_45 Depth=3
	movss	-20(%rbp), %xmm0                # xmm0 = mem[0],zero,zero,zero
	cvtss2sd	%xmm0, %xmm0
	movabsq	$.L.str.319, %rdi
	movb	$1, %al
	callq	printf@PLT
	callq	getchar@PLT
# %bb.47:                               #   in Loop: Header=BB86_45 Depth=3
	jmp	.LBB86_48
.LBB86_48:                              #   in Loop: Header=BB86_45 Depth=3
	movss	.LCPI86_2(%rip), %xmm0          # xmm0 = mem[0],zero,zero,zero
	addss	-20(%rbp), %xmm0
	movss	%xmm0, -20(%rbp)
	jmp	.LBB86_45
.LBB86_49:                              #   in Loop: Header=BB86_37 Depth=2
	jmp	.LBB86_50
.LBB86_50:                              #   in Loop: Header=BB86_37 Depth=2
	movabsq	$.L.str.320, %rdi
	movb	$0, %al
	callq	printf@PLT
	callq	FF_function_151
# %bb.51:                               #   in Loop: Header=BB86_37 Depth=2
	callq	getchar@PLT
	cmpl	$67, %eax
	jne	.LBB86_54
# %bb.52:                               #   in Loop: Header=BB86_37 Depth=2
	jmp	.LBB86_53
.LBB86_53:                              # %.backedge
                                        #   in Loop: Header=BB86_37 Depth=2
	jmp	.LBB86_37
.LBB86_54:                              #   in Loop: Header=BB86_37 Depth=2
	movabsq	$.L.str.321, %rdi
	movb	$0, %al
	callq	printf@PLT
# %bb.55:                               #   in Loop: Header=BB86_37 Depth=2
	movl	-24(%rbp), %eax
	movl	$5, %ecx
	cltd
	idivl	%ecx
	movl	%eax, -24(%rbp)
	jmp	.LBB86_53
.LBB86_56:                              # %.loopexit
                                        #   in Loop: Header=BB86_1 Depth=1
	jmp	.LBB86_57
.LBB86_57:                              #   in Loop: Header=BB86_1 Depth=1
	jmp	.LBB86_58
.LBB86_58:                              #   in Loop: Header=BB86_1 Depth=1
	movabsq	$.L.str.322, %rdi
	movb	$0, %al
	callq	printf@PLT
	movabsq	$.L.str.323, %rdi
	movb	$0, %al
	callq	printf@PLT
.LBB86_59:                              #   in Loop: Header=BB86_1 Depth=1
	callq	FF_function_151
# %bb.60:                               #   in Loop: Header=BB86_1 Depth=1
	jmp	.LBB86_1
.LBB86_61:
	movabsq	$.L.str.324, %rdi
	movb	$0, %al
	callq	printf@PLT
	xorl	%edi, %edi
	xorps	%xmm0, %xmm0
	xorps	%xmm1, %xmm1
	xorl	%esi, %esi
	xorl	%edx, %edx
	callq	FF_function_121
	movsd	%xmm0, -56(%rbp)                # 8-byte Spill
	xorl	%edi, %edi
	xorl	%esi, %esi
	xorl	%edx, %edx
	xorl	%ecx, %ecx
	xorps	%xmm0, %xmm0
	xorl	%r8d, %r8d
	xorl	%r9d, %r9d
	movq	$0, (%rsp)
	callq	FF_function_139
	xorl	%edi, %edi
	movsd	-56(%rbp), %xmm0                # 8-byte Reload
                                        # xmm0 = mem[0],zero
	xorl	%esi, %esi
	xorl	%edx, %edx
	xorps	%xmm1, %xmm1
	movq	%rax, %rcx
	callq	FF_function_141
.LBB86_62:
	movabsq	$.L.str.325, %rdi
	movb	$0, %al
	callq	printf@PLT
	movb	$0, -16(%rbp)
.LBB86_63:
	movb	-16(%rbp), %al
	addq	$120, %rsp
	popq	%rbx
	popq	%rbp
	.cfi_def_cfa %rsp, 8
	retq
.Lfunc_end86:
	.size	CF_function_184, .Lfunc_end86-CF_function_184
	.cfi_endproc
                                        # -- End function
	.section	.rodata.cst8,"aM",@progbits,8
	.p2align	3                               # -- Begin function CF_function_185
.LCPI87_0:
	.quad	0x409f540000000000              # double 2005
.LCPI87_1:
	.quad	0x40a1560000000000              # double 2219
	.text
	.globl	CF_function_185
	.p2align	4, 0x90
	.type	CF_function_185,@function
CF_function_185:                        # @CF_function_185
	.cfi_startproc
# %bb.0:
	pushq	%rbp
	.cfi_def_cfa_offset 16
	.cfi_offset %rbp, -16
	movq	%rsp, %rbp
	.cfi_def_cfa_register %rbp
	subq	$32, %rsp
	movq	%rdi, -32(%rbp)
	movabsq	$.L.str.326, %rdi
	movb	$0, %al
	callq	printf@PLT
	movabsq	$.L.str.327, %rdi
	movb	$0, %al
	callq	printf@PLT
.LBB87_1:                               # =>This Loop Header: Depth=1
                                        #     Child Loop BB87_8 Depth 2
                                        #       Child Loop BB87_15 Depth 3
                                        #     Child Loop BB87_31 Depth 2
                                        #       Child Loop BB87_40 Depth 3
                                        #         Child Loop BB87_53 Depth 4
                                        #     Child Loop BB87_69 Depth 2
                                        #       Child Loop BB87_76 Depth 3
                                        #         Child Loop BB87_81 Depth 4
                                        #           Child Loop BB87_88 Depth 5
	movabsq	$.L.str.328, %rdi
	movb	$0, %al
	callq	printf@PLT
	callq	FF_function_160
	callq	getchar@PLT
	cmpl	$23, %eax
	jne	.LBB87_3
# %bb.2:
	jmp	.LBB87_132
.LBB87_3:                               #   in Loop: Header=BB87_1 Depth=1
	callq	getchar@PLT
	cmpl	$31, %eax
	jne	.LBB87_5
# %bb.4:
	jmp	.LBB87_135
.LBB87_5:                               #   in Loop: Header=BB87_1 Depth=1
	callq	getchar@PLT
	cmpl	$83, %eax
	jne	.LBB87_7
# %bb.6:
	movabsq	$.L.str.329, %rdi
	movb	$0, %al
	callq	printf@PLT
	jmp	.LBB87_134
.LBB87_7:                               #   in Loop: Header=BB87_1 Depth=1
	movabsq	$.L.str.330, %rdi
	movb	$0, %al
	callq	printf@PLT
	movabsq	$.L.str.331, %rdi
	movb	$0, %al
	callq	printf@PLT
.LBB87_8:                               #   Parent Loop BB87_1 Depth=1
                                        # =>  This Loop Header: Depth=2
                                        #       Child Loop BB87_15 Depth 3
	movabsq	$.L.str.332, %rdi
	movb	$0, %al
	callq	printf@PLT
	movabsq	$.L.str.333, %rdi
	movb	$0, %al
	callq	printf@PLT
	callq	getchar@PLT
	cmpl	$31, %eax
	jne	.LBB87_10
# %bb.9:
	jmp	.LBB87_135
.LBB87_10:                              #   in Loop: Header=BB87_8 Depth=2
	callq	getchar@PLT
	cmpl	$19, %eax
	jne	.LBB87_12
# %bb.11:                               #   in Loop: Header=BB87_1 Depth=1
	jmp	.LBB87_29
.LBB87_12:                              #   in Loop: Header=BB87_8 Depth=2
	callq	getchar@PLT
	cmpl	$73, %eax
	jne	.LBB87_14
# %bb.13:
	movabsq	$.L.str.334, %rdi
	movb	$0, %al
	callq	printf@PLT
	jmp	.LBB87_133
.LBB87_14:                              #   in Loop: Header=BB87_8 Depth=2
	movabsq	$.L.str.335, %rdi
	movb	$0, %al
	callq	printf@PLT
	movabsq	$.L.str.336, %rdi
	movb	$0, %al
	callq	printf@PLT
	movl	$2020, -16(%rbp)                # imm = 0x7E4
.LBB87_15:                              #   Parent Loop BB87_1 Depth=1
                                        #     Parent Loop BB87_8 Depth=2
                                        # =>    This Inner Loop Header: Depth=3
	cvtsi2sdl	-16(%rbp), %xmm0
	movsd	.LCPI87_0(%rip), %xmm1          # xmm1 = mem[0],zero
	ucomisd	%xmm1, %xmm0
	jbe	.LBB87_19
# %bb.16:                               #   in Loop: Header=BB87_15 Depth=3
	movabsq	$.L.str.337, %rdi
	movb	$0, %al
	callq	printf@PLT
	callq	getchar@PLT
# %bb.17:                               #   in Loop: Header=BB87_15 Depth=3
	jmp	.LBB87_18
.LBB87_18:                              #   in Loop: Header=BB87_15 Depth=3
	movl	-16(%rbp), %eax
	addl	$-1, %eax
	movl	%eax, -16(%rbp)
	jmp	.LBB87_15
.LBB87_19:                              #   in Loop: Header=BB87_8 Depth=2
	jmp	.LBB87_20
.LBB87_20:                              #   in Loop: Header=BB87_8 Depth=2
	movabsq	$.L.str.338, %rdi
	movb	$0, %al
	callq	printf@PLT
	movabsq	$.L.str.339, %rdi
	movb	$0, %al
	callq	printf@PLT
# %bb.21:                               #   in Loop: Header=BB87_8 Depth=2
	callq	getchar@PLT
	cmpl	$67, %eax
	jne	.LBB87_23
# %bb.22:                               #   in Loop: Header=BB87_8 Depth=2
	jmp	.LBB87_27
.LBB87_23:                              #   in Loop: Header=BB87_8 Depth=2
	callq	getchar@PLT
	cmpl	$17, %eax
	jne	.LBB87_25
# %bb.24:                               #   in Loop: Header=BB87_8 Depth=2
	jmp	.LBB87_26
.LBB87_25:                              #   in Loop: Header=BB87_8 Depth=2
	movabsq	$.L.str.340, %rdi
	movb	$0, %al
	callq	printf@PLT
.LBB87_26:                              #   in Loop: Header=BB87_8 Depth=2
	jmp	.LBB87_27
.LBB87_27:                              #   in Loop: Header=BB87_8 Depth=2
	movb	$1, %al
	testb	$1, %al
	jne	.LBB87_8
	jmp	.LBB87_28
.LBB87_28:                              #   in Loop: Header=BB87_1 Depth=1
	jmp	.LBB87_29
.LBB87_29:                              #   in Loop: Header=BB87_1 Depth=1
	movabsq	$.L.str.341, %rdi
	movb	$0, %al
	callq	printf@PLT
	callq	FF_function_172
# %bb.30:                               #   in Loop: Header=BB87_1 Depth=1
	movabsq	$.L.str.342, %rdi
	movb	$0, %al
	callq	printf@PLT
.LBB87_31:                              #   Parent Loop BB87_1 Depth=1
                                        # =>  This Loop Header: Depth=2
                                        #       Child Loop BB87_40 Depth 3
                                        #         Child Loop BB87_53 Depth 4
	movabsq	$.L.str.343, %rdi
	movb	$0, %al
	callq	printf@PLT
	movabsq	$.L.str.344, %rdi
	movb	$0, %al
	callq	printf@PLT
	callq	getchar@PLT
	cmpl	$23, %eax
	jne	.LBB87_33
# %bb.32:                               #   in Loop: Header=BB87_1 Depth=1
	jmp	.LBB87_66
.LBB87_33:                              #   in Loop: Header=BB87_31 Depth=2
	callq	getchar@PLT
	cmpl	$31, %eax
	jne	.LBB87_35
# %bb.34:
	jmp	.LBB87_135
.LBB87_35:                              #   in Loop: Header=BB87_31 Depth=2
	callq	getchar@PLT
	cmpl	$83, %eax
	jne	.LBB87_37
# %bb.36:                               #   in Loop: Header=BB87_1 Depth=1
	movabsq	$.L.str.345, %rdi
	movb	$0, %al
	callq	printf@PLT
	jmp	.LBB87_68
.LBB87_37:                              #   in Loop: Header=BB87_31 Depth=2
	callq	getchar@PLT
	cmpl	$73, %eax
	jne	.LBB87_39
# %bb.38:
	movabsq	$.L.str.346, %rdi
	movb	$0, %al
	callq	printf@PLT
	jmp	.LBB87_133
.LBB87_39:                              #   in Loop: Header=BB87_31 Depth=2
	callq	FF_function_158
	movabsq	$.L.str.347, %rdi
	movb	$0, %al
	callq	printf@PLT
.LBB87_40:                              #   Parent Loop BB87_1 Depth=1
                                        #     Parent Loop BB87_31 Depth=2
                                        # =>    This Loop Header: Depth=3
                                        #         Child Loop BB87_53 Depth 4
	movabsq	$.L.str.348, %rdi
	movb	$0, %al
	callq	printf@PLT
	movabsq	$.L.str.349, %rdi
	movb	$0, %al
	callq	printf@PLT
	callq	getchar@PLT
	cmpl	$23, %eax
	jne	.LBB87_42
# %bb.41:                               #   in Loop: Header=BB87_31 Depth=2
	jmp	.LBB87_62
.LBB87_42:                              #   in Loop: Header=BB87_40 Depth=3
	callq	getchar@PLT
	cmpl	$97, %eax
	jne	.LBB87_44
# %bb.43:
	movl	$1923, %edi                     # imm = 0x783
	callq	exit@PLT
.LBB87_44:                              #   in Loop: Header=BB87_40 Depth=3
	callq	getchar@PLT
	cmpl	$31, %eax
	jne	.LBB87_46
# %bb.45:
	jmp	.LBB87_135
.LBB87_46:                              #   in Loop: Header=BB87_40 Depth=3
	callq	getchar@PLT
	cmpl	$19, %eax
	jne	.LBB87_48
# %bb.47:                               #   in Loop: Header=BB87_31 Depth=2
	jmp	.LBB87_63
.LBB87_48:                              #   in Loop: Header=BB87_40 Depth=3
	callq	getchar@PLT
	cmpl	$83, %eax
	jne	.LBB87_50
# %bb.49:                               #   in Loop: Header=BB87_31 Depth=2
	movabsq	$.L.str.350, %rdi
	movb	$0, %al
	callq	printf@PLT
	jmp	.LBB87_64
.LBB87_50:                              #   in Loop: Header=BB87_40 Depth=3
	callq	getchar@PLT
	cmpl	$73, %eax
	jne	.LBB87_52
# %bb.51:
	movabsq	$.L.str.351, %rdi
	movb	$0, %al
	callq	printf@PLT
	jmp	.LBB87_133
.LBB87_52:                              #   in Loop: Header=BB87_40 Depth=3
	movabsq	$.L.str.352, %rdi
	movb	$0, %al
	callq	printf@PLT
	movabsq	$.L.str.353, %rdi
	movb	$0, %al
	callq	printf@PLT
	movl	$2232, -12(%rbp)                # imm = 0x8B8
.LBB87_53:                              #   Parent Loop BB87_1 Depth=1
                                        #     Parent Loop BB87_31 Depth=2
                                        #       Parent Loop BB87_40 Depth=3
                                        # =>      This Inner Loop Header: Depth=4
	cvtsi2sdl	-12(%rbp), %xmm0
	movsd	.LCPI87_1(%rip), %xmm1          # xmm1 = mem[0],zero
	ucomisd	%xmm1, %xmm0
	jbe	.LBB87_56
# %bb.54:                               #   in Loop: Header=BB87_53 Depth=4
	movl	-12(%rbp), %esi
	movabsq	$.L.str.354, %rdi
	movb	$0, %al
	callq	printf@PLT
	callq	getchar@PLT
# %bb.55:                               #   in Loop: Header=BB87_53 Depth=4
	movl	-12(%rbp), %eax
	addl	$-1, %eax
	movl	%eax, -12(%rbp)
	jmp	.LBB87_53
.LBB87_56:                              #   in Loop: Header=BB87_40 Depth=3
	jmp	.LBB87_57
.LBB87_57:                              #   in Loop: Header=BB87_40 Depth=3
	movabsq	$.L.str.355, %rdi
	movb	$0, %al
	callq	printf@PLT
	movq	$0, -24(%rbp)
	movq	-24(%rbp), %rdi
	movb	$0, %al
	callq	FF_function_176
# %bb.58:                               #   in Loop: Header=BB87_40 Depth=3
	callq	getchar@PLT
	cmpl	$17, %eax
	jne	.LBB87_60
# %bb.59:                               #   in Loop: Header=BB87_40 Depth=3
	jmp	.LBB87_61
.LBB87_60:                              #   in Loop: Header=BB87_40 Depth=3
	movabsq	$.L.str.356, %rdi
	movb	$0, %al
	callq	printf@PLT
.LBB87_61:                              #   in Loop: Header=BB87_40 Depth=3
	jmp	.LBB87_40
.LBB87_62:                              #   in Loop: Header=BB87_31 Depth=2
	jmp	.LBB87_63
.LBB87_63:                              #   in Loop: Header=BB87_31 Depth=2
	movabsq	$.L.str.357, %rdi
	movb	$0, %al
	callq	printf@PLT
	movabsq	$.L.str.358, %rdi
	movb	$0, %al
	callq	printf@PLT
.LBB87_64:                              #   in Loop: Header=BB87_31 Depth=2
	movabsq	$.L.str.359, %rdi
	movb	$0, %al
	callq	printf@PLT
	movabsq	$.L.str.360, %rdi
	movb	$0, %al
	callq	printf@PLT
	movabsq	$.L.str.361, %rdi
	movb	$0, %al
	callq	printf@PLT
	movabsq	$.L.str.362, %rdi
	movb	$0, %al
	callq	printf@PLT
# %bb.65:                               #   in Loop: Header=BB87_31 Depth=2
	jmp	.LBB87_31
.LBB87_66:                              #   in Loop: Header=BB87_1 Depth=1
	jmp	.LBB87_67
.LBB87_67:                              #   in Loop: Header=BB87_1 Depth=1
	movabsq	$.L.str.363, %rdi
	movb	$0, %al
	callq	printf@PLT
	movabsq	$.L.str.364, %rdi
	movb	$0, %al
	callq	printf@PLT
.LBB87_68:                              #   in Loop: Header=BB87_1 Depth=1
	movabsq	$.L.str.365, %rdi
	movb	$0, %al
	callq	printf@PLT
.LBB87_69:                              #   Parent Loop BB87_1 Depth=1
                                        # =>  This Loop Header: Depth=2
                                        #       Child Loop BB87_76 Depth 3
                                        #         Child Loop BB87_81 Depth 4
                                        #           Child Loop BB87_88 Depth 5
	movabsq	$.L.str.366, %rdi
	movb	$0, %al
	callq	printf@PLT
	movabsq	$.L.str.367, %rdi
	movb	$0, %al
	callq	printf@PLT
	callq	getchar@PLT
	cmpl	$23, %eax
	jne	.LBB87_71
# %bb.70:                               #   in Loop: Header=BB87_1 Depth=1
	jmp	.LBB87_123
.LBB87_71:                              #   in Loop: Header=BB87_69 Depth=2
	callq	getchar@PLT
	cmpl	$19, %eax
	jne	.LBB87_73
# %bb.72:                               #   in Loop: Header=BB87_1 Depth=1
	jmp	.LBB87_124
.LBB87_73:                              #   in Loop: Header=BB87_69 Depth=2
	callq	getchar@PLT
	cmpl	$73, %eax
	jne	.LBB87_75
# %bb.74:
	movabsq	$.L.str.368, %rdi
	movb	$0, %al
	callq	printf@PLT
	jmp	.LBB87_133
.LBB87_75:                              #   in Loop: Header=BB87_69 Depth=2
	movabsq	$.L.str.369, %rdi
	movb	$0, %al
	callq	printf@PLT
	movabsq	$.L.str.370, %rdi
	movb	$0, %al
	callq	printf@PLT
.LBB87_76:                              #   Parent Loop BB87_1 Depth=1
                                        #     Parent Loop BB87_69 Depth=2
                                        # =>    This Loop Header: Depth=3
                                        #         Child Loop BB87_81 Depth 4
                                        #           Child Loop BB87_88 Depth 5
	movabsq	$.L.str.371, %rdi
	movb	$0, %al
	callq	printf@PLT
	movabsq	$.L.str.372, %rdi
	movb	$0, %al
	callq	printf@PLT
	callq	getchar@PLT
	cmpl	$23, %eax
	jne	.LBB87_78
# %bb.77:                               #   in Loop: Header=BB87_69 Depth=2
	jmp	.LBB87_113
.LBB87_78:                              #   in Loop: Header=BB87_76 Depth=3
	callq	getchar@PLT
	cmpl	$19, %eax
	jne	.LBB87_80
# %bb.79:                               #   in Loop: Header=BB87_69 Depth=2
	jmp	.LBB87_114
.LBB87_80:                              #   in Loop: Header=BB87_76 Depth=3
	movabsq	$.L.str.373, %rdi
	movb	$0, %al
	callq	printf@PLT
	movabsq	$.L.str.374, %rdi
	movb	$0, %al
	callq	printf@PLT
.LBB87_81:                              #   Parent Loop BB87_1 Depth=1
                                        #     Parent Loop BB87_69 Depth=2
                                        #       Parent Loop BB87_76 Depth=3
                                        # =>      This Loop Header: Depth=4
                                        #           Child Loop BB87_88 Depth 5
	movabsq	$.L.str.375, %rdi
	movb	$0, %al
	callq	printf@PLT
	movabsq	$.L.str.376, %rdi
	movb	$0, %al
	callq	printf@PLT
	callq	getchar@PLT
	cmpl	$23, %eax
	jne	.LBB87_83
# %bb.82:                               #   in Loop: Header=BB87_76 Depth=3
	jmp	.LBB87_104
.LBB87_83:                              #   in Loop: Header=BB87_81 Depth=4
	callq	getchar@PLT
	cmpl	$97, %eax
	jne	.LBB87_85
# %bb.84:
	movl	$1923, %edi                     # imm = 0x783
	callq	exit@PLT
.LBB87_85:                              #   in Loop: Header=BB87_81 Depth=4
	callq	getchar@PLT
	cmpl	$73, %eax
	jne	.LBB87_87
# %bb.86:
	movabsq	$.L.str.377, %rdi
	movb	$0, %al
	callq	printf@PLT
	jmp	.LBB87_133
.LBB87_87:                              #   in Loop: Header=BB87_81 Depth=4
	movabsq	$.L.str.378, %rdi
	movb	$0, %al
	callq	printf@PLT
	movabsq	$.L.str.379, %rdi
	movb	$0, %al
	callq	printf@PLT
.LBB87_88:                              #   Parent Loop BB87_1 Depth=1
                                        #     Parent Loop BB87_69 Depth=2
                                        #       Parent Loop BB87_76 Depth=3
                                        #         Parent Loop BB87_81 Depth=4
                                        # =>        This Inner Loop Header: Depth=5
	movabsq	$.L.str.380, %rdi
	movb	$0, %al
	callq	printf@PLT
	movabsq	$.L.str.381, %rdi
	movb	$0, %al
	callq	printf@PLT
	callq	getchar@PLT
	cmpl	$97, %eax
	jne	.LBB87_90
# %bb.89:
	movl	$1923, %edi                     # imm = 0x783
	callq	exit@PLT
.LBB87_90:                              #   in Loop: Header=BB87_88 Depth=5
	callq	getchar@PLT
	cmpl	$31, %eax
	jne	.LBB87_92
# %bb.91:
	jmp	.LBB87_135
.LBB87_92:                              #   in Loop: Header=BB87_88 Depth=5
	callq	getchar@PLT
	cmpl	$19, %eax
	jne	.LBB87_94
# %bb.93:                               #   in Loop: Header=BB87_81 Depth=4
	jmp	.LBB87_101
.LBB87_94:                              #   in Loop: Header=BB87_88 Depth=5
	callq	getchar@PLT
	cmpl	$73, %eax
	jne	.LBB87_96
# %bb.95:
	movabsq	$.L.str.382, %rdi
	movb	$0, %al
	callq	printf@PLT
	jmp	.LBB87_133
.LBB87_96:                              #   in Loop: Header=BB87_88 Depth=5
	xorl	%edi, %edi
	xorl	%esi, %esi
	xorl	%edx, %edx
	xorl	%ecx, %ecx
	callq	FF_function_110
	callq	getchar@PLT
	cmpl	$67, %eax
	jne	.LBB87_99
# %bb.97:                               #   in Loop: Header=BB87_88 Depth=5
	jmp	.LBB87_98
.LBB87_98:                              # %.backedge
                                        #   in Loop: Header=BB87_88 Depth=5
	jmp	.LBB87_88
.LBB87_99:                              #   in Loop: Header=BB87_88 Depth=5
	xorl	%edi, %edi
	callq	FF_function_142
# %bb.100:                              #   in Loop: Header=BB87_88 Depth=5
	jmp	.LBB87_98
.LBB87_101:                             #   in Loop: Header=BB87_81 Depth=4
	movabsq	$.L.str.383, %rdi
	movb	$0, %al
	callq	printf@PLT
	movabsq	$.L.str.384, %rdi
	movb	$0, %al
	callq	printf@PLT
# %bb.102:                              #   in Loop: Header=BB87_81 Depth=4
	movabsq	$.L.str.385, %rdi
	movb	$0, %al
	callq	printf@PLT
# %bb.103:                              #   in Loop: Header=BB87_81 Depth=4
	jmp	.LBB87_81
.LBB87_104:                             #   in Loop: Header=BB87_76 Depth=3
	jmp	.LBB87_105
.LBB87_105:                             #   in Loop: Header=BB87_76 Depth=3
	movabsq	$.L.str.386, %rdi
	movb	$0, %al
	callq	printf@PLT
	movabsq	$.L.str.387, %rdi
	movb	$0, %al
	callq	printf@PLT
# %bb.106:                              #   in Loop: Header=BB87_76 Depth=3
	callq	getchar@PLT
	cmpl	$67, %eax
	jne	.LBB87_108
# %bb.107:                              #   in Loop: Header=BB87_76 Depth=3
	jmp	.LBB87_112
.LBB87_108:                             #   in Loop: Header=BB87_76 Depth=3
	callq	getchar@PLT
	cmpl	$17, %eax
	jne	.LBB87_110
# %bb.109:                              #   in Loop: Header=BB87_76 Depth=3
	jmp	.LBB87_111
.LBB87_110:                             #   in Loop: Header=BB87_76 Depth=3
	movabsq	$.L.str.388, %rdi
	movb	$0, %al
	callq	printf@PLT
.LBB87_111:                             #   in Loop: Header=BB87_76 Depth=3
	jmp	.LBB87_112
.LBB87_112:                             # %.backedge1
                                        #   in Loop: Header=BB87_76 Depth=3
	jmp	.LBB87_76
.LBB87_113:                             #   in Loop: Header=BB87_69 Depth=2
	jmp	.LBB87_114
.LBB87_114:                             #   in Loop: Header=BB87_69 Depth=2
	movabsq	$.L.str.389, %rdi
	movb	$0, %al
	callq	printf@PLT
	xorps	%xmm0, %xmm0
	xorps	%xmm1, %xmm1
	callq	FF_function_180
# %bb.115:                              #   in Loop: Header=BB87_69 Depth=2
	callq	getchar@PLT
	cmpl	$67, %eax
	jne	.LBB87_117
# %bb.116:                              #   in Loop: Header=BB87_69 Depth=2
	jmp	.LBB87_121
.LBB87_117:                             #   in Loop: Header=BB87_69 Depth=2
	callq	getchar@PLT
	cmpl	$17, %eax
	jne	.LBB87_119
# %bb.118:                              #   in Loop: Header=BB87_69 Depth=2
	jmp	.LBB87_120
.LBB87_119:                             #   in Loop: Header=BB87_69 Depth=2
	xorl	%edi, %edi
	movb	$0, %al
	callq	FF_function_101
.LBB87_120:                             #   in Loop: Header=BB87_69 Depth=2
	jmp	.LBB87_121
.LBB87_121:                             #   in Loop: Header=BB87_69 Depth=2
	movb	$1, %al
	testb	$1, %al
	jne	.LBB87_69
	jmp	.LBB87_122
.LBB87_122:                             # %.loopexit
                                        #   in Loop: Header=BB87_1 Depth=1
	jmp	.LBB87_123
.LBB87_123:                             #   in Loop: Header=BB87_1 Depth=1
	jmp	.LBB87_124
.LBB87_124:                             #   in Loop: Header=BB87_1 Depth=1
	movabsq	$.L.str.390, %rdi
	movb	$0, %al
	callq	printf@PLT
	callq	FF_function_151
# %bb.125:                              #   in Loop: Header=BB87_1 Depth=1
	callq	getchar@PLT
	cmpl	$67, %eax
	jne	.LBB87_127
# %bb.126:                              #   in Loop: Header=BB87_1 Depth=1
	jmp	.LBB87_131
.LBB87_127:                             #   in Loop: Header=BB87_1 Depth=1
	callq	getchar@PLT
	cmpl	$17, %eax
	jne	.LBB87_129
# %bb.128:                              #   in Loop: Header=BB87_1 Depth=1
	jmp	.LBB87_130
.LBB87_129:                             #   in Loop: Header=BB87_1 Depth=1
	movabsq	$.L.str.391, %rdi
	movb	$0, %al
	callq	printf@PLT
.LBB87_130:                             #   in Loop: Header=BB87_1 Depth=1
	jmp	.LBB87_131
.LBB87_131:                             # %.backedge2
                                        #   in Loop: Header=BB87_1 Depth=1
	jmp	.LBB87_1
.LBB87_132:
	jmp	.LBB87_133
.LBB87_133:
	movabsq	$.L.str.392, %rdi
	movb	$0, %al
	callq	printf@PLT
	movabsq	$.L.str.393, %rdi
	movb	$0, %al
	callq	printf@PLT
.LBB87_134:
	movabsq	$.L.str.394, %rdi
	movb	$0, %al
	callq	printf@PLT
	movb	$0, -8(%rbp)
.LBB87_135:
	movb	-8(%rbp), %al
	addq	$32, %rsp
	popq	%rbp
	.cfi_def_cfa %rsp, 8
	retq
.Lfunc_end87:
	.size	CF_function_185, .Lfunc_end87-CF_function_185
	.cfi_endproc
                                        # -- End function
	.section	.rodata.cst4,"aM",@progbits,4
	.p2align	2                               # -- Begin function CF_function_186
.LCPI88_0:
	.long	0x4067ae14                      # float 3.61999989
.LCPI88_1:
	.long	0x46173400                      # float 9677
.LCPI88_2:
	.long	0x4525ff5c                      # float 2655.95996
.LCPI88_4:
	.long	0x3f800000                      # float 1
.LCPI88_9:
	.long	0x40f28f5c                      # float 7.57999992
.LCPI88_10:
	.long	0x3f000000                      # float 0.5
.LCPI88_13:
	.long	0x45bf2800                      # float 6117
	.section	.rodata.cst8,"aM",@progbits,8
	.p2align	3
.LCPI88_3:
	.quad	0x40a354eb851eb852              # double 2474.46
.LCPI88_5:
	.quad	0x40240f5c28f5c28f              # double 10.029999999999999
.LCPI88_6:
	.quad	0x40a01e0000000000              # double 2063
.LCPI88_7:
	.quad	0x40a1540000000000              # double 2218
.LCPI88_8:
	.quad	0x40a2de0000000000              # double 2415
.LCPI88_11:
	.quad	0x40a0f60000000000              # double 2171
.LCPI88_12:
	.quad	0x4010b851eb851eb8              # double 4.1799999999999997
	.text
	.globl	CF_function_186
	.p2align	4, 0x90
	.type	CF_function_186,@function
CF_function_186:                        # @CF_function_186
	.cfi_startproc
# %bb.0:
	pushq	%rbp
	.cfi_def_cfa_offset 16
	.cfi_offset %rbp, -16
	movq	%rsp, %rbp
	.cfi_def_cfa_register %rbp
	subq	$96, %rsp
	movw	%di, -42(%rbp)
	movabsq	$.L.str.395, %rdi
	movb	$0, %al
	callq	printf@PLT
	callq	getchar@PLT
	cmpl	$79, %eax
	jne	.LBB88_172
# %bb.1:
	movabsq	$.L.str.396, %rdi
	movb	$0, %al
	callq	printf@PLT
.LBB88_2:                               # =>This Loop Header: Depth=1
                                        #     Child Loop BB88_7 Depth 2
                                        #       Child Loop BB88_16 Depth 3
                                        #         Child Loop BB88_24 Depth 4
                                        #         Child Loop BB88_37 Depth 4
                                        #       Child Loop BB88_54 Depth 3
                                        #         Child Loop BB88_59 Depth 4
                                        #         Child Loop BB88_65 Depth 4
                                        #     Child Loop BB88_78 Depth 2
                                        #       Child Loop BB88_89 Depth 3
                                        #         Child Loop BB88_100 Depth 4
                                        #         Child Loop BB88_117 Depth 4
                                        #       Child Loop BB88_129 Depth 3
                                        #         Child Loop BB88_136 Depth 4
                                        #         Child Loop BB88_142 Depth 4
	movabsq	$.L.str.397, %rdi
	movb	$0, %al
	callq	printf@PLT
	movabsq	$.L.str.398, %rdi
	movb	$0, %al
	callq	printf@PLT
	callq	getchar@PLT
	cmpl	$97, %eax
	jne	.LBB88_4
# %bb.3:
	movl	$1923, %edi                     # imm = 0x783
	callq	exit@PLT
.LBB88_4:                               #   in Loop: Header=BB88_2 Depth=1
	callq	getchar@PLT
	cmpl	$83, %eax
	jne	.LBB88_6
# %bb.5:
	movabsq	$.L.str.399, %rdi
	movb	$0, %al
	callq	printf@PLT
	jmp	.LBB88_174
.LBB88_6:                               #   in Loop: Header=BB88_2 Depth=1
	movabsq	$.L.str.400, %rdi
	movb	$0, %al
	callq	printf@PLT
	movabsq	$.L.str.401, %rdi
	movb	$0, %al
	callq	printf@PLT
.LBB88_7:                               #   Parent Loop BB88_2 Depth=1
                                        # =>  This Loop Header: Depth=2
                                        #       Child Loop BB88_16 Depth 3
                                        #         Child Loop BB88_24 Depth 4
                                        #         Child Loop BB88_37 Depth 4
                                        #       Child Loop BB88_54 Depth 3
                                        #         Child Loop BB88_59 Depth 4
                                        #         Child Loop BB88_65 Depth 4
	movabsq	$.L.str.402, %rdi
	movb	$0, %al
	callq	printf@PLT
	movabsq	$.L.str.403, %rdi
	movb	$0, %al
	callq	printf@PLT
	callq	getchar@PLT
	cmpl	$23, %eax
	jne	.LBB88_9
# %bb.8:                                #   in Loop: Header=BB88_2 Depth=1
	jmp	.LBB88_75
.LBB88_9:                               #   in Loop: Header=BB88_7 Depth=2
	callq	getchar@PLT
	cmpl	$31, %eax
	jne	.LBB88_11
# %bb.10:
	jmp	.LBB88_175
.LBB88_11:                              #   in Loop: Header=BB88_7 Depth=2
	callq	getchar@PLT
	cmpl	$19, %eax
	jne	.LBB88_13
# %bb.12:                               #   in Loop: Header=BB88_2 Depth=1
	jmp	.LBB88_76
.LBB88_13:                              #   in Loop: Header=BB88_7 Depth=2
	callq	getchar@PLT
	cmpl	$83, %eax
	jne	.LBB88_15
# %bb.14:                               #   in Loop: Header=BB88_2 Depth=1
	movabsq	$.L.str.404, %rdi
	movb	$0, %al
	callq	printf@PLT
	jmp	.LBB88_77
.LBB88_15:                              #   in Loop: Header=BB88_7 Depth=2
	movabsq	$.L.str.405, %rdi
	movb	$0, %al
	callq	printf@PLT
	movabsq	$.L.str.406, %rdi
	movb	$0, %al
	callq	printf@PLT
	movss	.LCPI88_0(%rip), %xmm0          # xmm0 = mem[0],zero,zero,zero
	movss	%xmm0, -20(%rbp)
.LBB88_16:                              #   Parent Loop BB88_2 Depth=1
                                        #     Parent Loop BB88_7 Depth=2
                                        # =>    This Loop Header: Depth=3
                                        #         Child Loop BB88_24 Depth 4
                                        #         Child Loop BB88_37 Depth 4
	movss	.LCPI88_1(%rip), %xmm0          # xmm0 = mem[0],zero,zero,zero
	ucomiss	-20(%rbp), %xmm0
	jb	.LBB88_50
# %bb.17:                               #   in Loop: Header=BB88_16 Depth=3
	movss	-20(%rbp), %xmm0                # xmm0 = mem[0],zero,zero,zero
	cvtss2sd	%xmm0, %xmm0
	movabsq	$.L.str.407, %rdi
	movb	$1, %al
	callq	printf@PLT
	movabsq	$.L.str.408, %rdi
	movb	$0, %al
	callq	printf@PLT
	callq	getchar@PLT
	cmpl	$23, %eax
	jne	.LBB88_19
# %bb.18:                               #   in Loop: Header=BB88_7 Depth=2
	jmp	.LBB88_51
.LBB88_19:                              #   in Loop: Header=BB88_16 Depth=3
	callq	getchar@PLT
	cmpl	$97, %eax
	jne	.LBB88_21
# %bb.20:
	movl	$1923, %edi                     # imm = 0x783
	callq	exit@PLT
.LBB88_21:                              #   in Loop: Header=BB88_16 Depth=3
	callq	getchar@PLT
	cmpl	$31, %eax
	jne	.LBB88_23
# %bb.22:
	jmp	.LBB88_175
.LBB88_23:                              #   in Loop: Header=BB88_16 Depth=3
	xorl	%edi, %edi
	xorps	%xmm0, %xmm0
	xorl	%esi, %esi
	xorl	%edx, %edx
	xorps	%xmm1, %xmm1
	xorl	%ecx, %ecx
	callq	FF_function_141
	movabsq	$.L.str.409, %rdi
	movb	$0, %al
	callq	printf@PLT
.LBB88_24:                              #   Parent Loop BB88_2 Depth=1
                                        #     Parent Loop BB88_7 Depth=2
                                        #       Parent Loop BB88_16 Depth=3
                                        # =>      This Inner Loop Header: Depth=4
	movabsq	$.L.str.410, %rdi
	movb	$0, %al
	callq	printf@PLT
	xorl	%edi, %edi
	callq	FF_function_147
	movq	%rax, %rdi
	callq	FF_function_142
	callq	getchar@PLT
	cmpl	$23, %eax
	jne	.LBB88_26
# %bb.25:                               #   in Loop: Header=BB88_16 Depth=3
	jmp	.LBB88_34
.LBB88_26:                              #   in Loop: Header=BB88_24 Depth=4
	callq	getchar@PLT
	cmpl	$31, %eax
	jne	.LBB88_28
# %bb.27:
	jmp	.LBB88_175
.LBB88_28:                              #   in Loop: Header=BB88_24 Depth=4
	callq	getchar@PLT
	cmpl	$19, %eax
	jne	.LBB88_30
# %bb.29:                               #   in Loop: Header=BB88_16 Depth=3
	jmp	.LBB88_35
.LBB88_30:                              #   in Loop: Header=BB88_24 Depth=4
	callq	getchar@PLT
	cmpl	$73, %eax
	jne	.LBB88_32
# %bb.31:
	movabsq	$.L.str.411, %rdi
	movb	$0, %al
	callq	printf@PLT
	jmp	.LBB88_173
.LBB88_32:                              #   in Loop: Header=BB88_24 Depth=4
	movabsq	$.L.str.412, %rdi
	movb	$0, %al
	callq	printf@PLT
	movabsq	$.L.str.413, %rdi
	movb	$0, %al
	callq	printf@PLT
# %bb.33:                               #   in Loop: Header=BB88_24 Depth=4
	jmp	.LBB88_24
.LBB88_34:                              #   in Loop: Header=BB88_16 Depth=3
	jmp	.LBB88_35
.LBB88_35:                              #   in Loop: Header=BB88_16 Depth=3
	movabsq	$.L.str.414, %rdi
	movb	$0, %al
	callq	printf@PLT
	callq	FF_function_153
# %bb.36:                               #   in Loop: Header=BB88_16 Depth=3
	movabsq	$.L.str.415, %rdi
	movb	$0, %al
	callq	printf@PLT
	movss	.LCPI88_2(%rip), %xmm0          # xmm0 = mem[0],zero,zero,zero
	movss	%xmm0, -32(%rbp)
.LBB88_37:                              #   Parent Loop BB88_2 Depth=1
                                        #     Parent Loop BB88_7 Depth=2
                                        #       Parent Loop BB88_16 Depth=3
                                        # =>      This Inner Loop Header: Depth=4
	movss	-32(%rbp), %xmm0                # xmm0 = mem[0],zero,zero,zero
	cvtss2sd	%xmm0, %xmm0
	movsd	.LCPI88_3(%rip), %xmm1          # xmm1 = mem[0],zero
	ucomisd	%xmm1, %xmm0
	jb	.LBB88_41
# %bb.38:                               #   in Loop: Header=BB88_37 Depth=4
	movabsq	$.L.str.416, %rdi
	movb	$0, %al
	callq	printf@PLT
	callq	getchar@PLT
# %bb.39:                               #   in Loop: Header=BB88_37 Depth=4
	jmp	.LBB88_40
.LBB88_40:                              #   in Loop: Header=BB88_37 Depth=4
	movss	-32(%rbp), %xmm0                # xmm0 = mem[0],zero,zero,zero
	cvtss2sd	%xmm0, %xmm0
	movsd	.LCPI88_5(%rip), %xmm1          # xmm1 = mem[0],zero
	subsd	%xmm1, %xmm0
	cvtsd2ss	%xmm0, %xmm0
	movss	%xmm0, -32(%rbp)
	jmp	.LBB88_37
.LBB88_41:                              #   in Loop: Header=BB88_16 Depth=3
	jmp	.LBB88_42
.LBB88_42:                              #   in Loop: Header=BB88_16 Depth=3
	movabsq	$.L.str.417, %rdi
	movb	$0, %al
	callq	printf@PLT
	xorl	%edi, %edi
	xorl	%esi, %esi
	callq	FF_function_132
# %bb.43:                               #   in Loop: Header=BB88_16 Depth=3
	callq	getchar@PLT
	cmpl	$67, %eax
	jne	.LBB88_46
# %bb.44:                               #   in Loop: Header=BB88_16 Depth=3
	jmp	.LBB88_45
.LBB88_45:                              # %.backedge
                                        #   in Loop: Header=BB88_16 Depth=3
	jmp	.LBB88_16
.LBB88_46:                              #   in Loop: Header=BB88_16 Depth=3
	callq	getchar@PLT
	cmpl	$17, %eax
	jne	.LBB88_48
# %bb.47:                               #   in Loop: Header=BB88_16 Depth=3
	jmp	.LBB88_49
.LBB88_48:                              #   in Loop: Header=BB88_16 Depth=3
	movabsq	$.L.str.418, %rdi
	movb	$0, %al
	callq	printf@PLT
.LBB88_49:                              #   in Loop: Header=BB88_16 Depth=3
	movss	.LCPI88_4(%rip), %xmm0          # xmm0 = mem[0],zero,zero,zero
	addss	-20(%rbp), %xmm0
	movss	%xmm0, -20(%rbp)
	jmp	.LBB88_45
.LBB88_50:                              # %.loopexit2
                                        #   in Loop: Header=BB88_7 Depth=2
	jmp	.LBB88_51
.LBB88_51:                              #   in Loop: Header=BB88_7 Depth=2
	jmp	.LBB88_52
.LBB88_52:                              #   in Loop: Header=BB88_7 Depth=2
	movabsq	$.L.str.419, %rdi
	movb	$0, %al
	callq	printf@PLT
	movabsq	$.L.str.420, %rdi
	movb	$0, %al
	callq	printf@PLT
# %bb.53:                               #   in Loop: Header=BB88_7 Depth=2
	movabsq	$.L.str.421, %rdi
	movb	$0, %al
	callq	printf@PLT
.LBB88_54:                              #   Parent Loop BB88_2 Depth=1
                                        #     Parent Loop BB88_7 Depth=2
                                        # =>    This Loop Header: Depth=3
                                        #         Child Loop BB88_59 Depth 4
                                        #         Child Loop BB88_65 Depth 4
	movabsq	$.L.str.422, %rdi
	movb	$0, %al
	callq	printf@PLT
	movabsq	$.L.str.423, %rdi
	movb	$0, %al
	callq	printf@PLT
	callq	getchar@PLT
	cmpl	$97, %eax
	jne	.LBB88_56
# %bb.55:
	movl	$1923, %edi                     # imm = 0x783
	callq	exit@PLT
.LBB88_56:                              #   in Loop: Header=BB88_54 Depth=3
	callq	getchar@PLT
	cmpl	$19, %eax
	jne	.LBB88_58
# %bb.57:                               #   in Loop: Header=BB88_7 Depth=2
	jmp	.LBB88_72
.LBB88_58:                              #   in Loop: Header=BB88_54 Depth=3
	movabsq	$.L.str.424, %rdi
	movb	$0, %al
	callq	printf@PLT
	movabsq	$.L.str.425, %rdi
	movb	$0, %al
	callq	printf@PLT
	movl	$2023, -16(%rbp)                # imm = 0x7E7
.LBB88_59:                              #   Parent Loop BB88_2 Depth=1
                                        #     Parent Loop BB88_7 Depth=2
                                        #       Parent Loop BB88_54 Depth=3
                                        # =>      This Inner Loop Header: Depth=4
	movl	-16(%rbp), %esi
	movabsq	$.L.str.426, %rdi
	movb	$0, %al
	callq	printf@PLT
	callq	getchar@PLT
# %bb.60:                               #   in Loop: Header=BB88_59 Depth=4
	movl	-16(%rbp), %eax
	addl	$8, %eax
	movl	%eax, -16(%rbp)
# %bb.61:                               #   in Loop: Header=BB88_59 Depth=4
	cvtsi2sdl	-16(%rbp), %xmm0
	movsd	.LCPI88_6(%rip), %xmm1          # xmm1 = mem[0],zero
	ucomisd	%xmm1, %xmm0
	jne	.LBB88_59
	jp	.LBB88_59
# %bb.62:                               #   in Loop: Header=BB88_54 Depth=3
	jmp	.LBB88_63
.LBB88_63:                              #   in Loop: Header=BB88_54 Depth=3
	movabsq	$.L.str.427, %rdi
	movb	$0, %al
	callq	printf@PLT
	callq	FF_function_151
# %bb.64:                               #   in Loop: Header=BB88_54 Depth=3
	movabsq	$.L.str.428, %rdi
	movb	$0, %al
	callq	printf@PLT
	movl	$2154, -28(%rbp)                # imm = 0x86A
.LBB88_65:                              #   Parent Loop BB88_2 Depth=1
                                        #     Parent Loop BB88_7 Depth=2
                                        #       Parent Loop BB88_54 Depth=3
                                        # =>      This Inner Loop Header: Depth=4
	cvtsi2sdl	-28(%rbp), %xmm0
	movsd	.LCPI88_7(%rip), %xmm1          # xmm1 = mem[0],zero
	ucomisd	%xmm0, %xmm1
	jbe	.LBB88_68
# %bb.66:                               #   in Loop: Header=BB88_65 Depth=4
	movabsq	$.L.str.429, %rdi
	movb	$0, %al
	callq	printf@PLT
	callq	getchar@PLT
# %bb.67:                               #   in Loop: Header=BB88_65 Depth=4
	movl	-28(%rbp), %eax
	addl	$4, %eax
	movl	%eax, -28(%rbp)
	jmp	.LBB88_65
.LBB88_68:                              #   in Loop: Header=BB88_54 Depth=3
	jmp	.LBB88_69
.LBB88_69:                              #   in Loop: Header=BB88_54 Depth=3
	movabsq	$.L.str.430, %rdi
	movb	$0, %al
	callq	printf@PLT
	movabsq	$.L.str.431, %rdi
	movb	$0, %al
	callq	printf@PLT
# %bb.70:                               #   in Loop: Header=BB88_54 Depth=3
	movabsq	$.L.str.432, %rdi
	movb	$0, %al
	callq	printf@PLT
# %bb.71:                               #   in Loop: Header=BB88_54 Depth=3
	jmp	.LBB88_54
.LBB88_72:                              #   in Loop: Header=BB88_7 Depth=2
	movabsq	$.L.str.433, %rdi
	movb	$0, %al
	callq	printf@PLT
	movabsq	$.L.str.434, %rdi
	movb	$0, %al
	callq	printf@PLT
# %bb.73:                               #   in Loop: Header=BB88_7 Depth=2
	movabsq	$.L.str.435, %rdi
	movb	$0, %al
	callq	printf@PLT
# %bb.74:                               #   in Loop: Header=BB88_7 Depth=2
	jmp	.LBB88_7
.LBB88_75:                              #   in Loop: Header=BB88_2 Depth=1
	jmp	.LBB88_76
.LBB88_76:                              #   in Loop: Header=BB88_2 Depth=1
	movabsq	$.L.str.436, %rdi
	movb	$0, %al
	callq	printf@PLT
	movabsq	$.L.str.437, %rdi
	movb	$0, %al
	callq	printf@PLT
.LBB88_77:                              #   in Loop: Header=BB88_2 Depth=1
	movabsq	$.L.str.438, %rdi
	movb	$0, %al
	callq	printf@PLT
.LBB88_78:                              #   Parent Loop BB88_2 Depth=1
                                        # =>  This Loop Header: Depth=2
                                        #       Child Loop BB88_89 Depth 3
                                        #         Child Loop BB88_100 Depth 4
                                        #         Child Loop BB88_117 Depth 4
                                        #       Child Loop BB88_129 Depth 3
                                        #         Child Loop BB88_136 Depth 4
                                        #         Child Loop BB88_142 Depth 4
	movabsq	$.L.str.439, %rdi
	movb	$0, %al
	callq	printf@PLT
	movabsq	$.L.str.440, %rdi
	movb	$0, %al
	callq	printf@PLT
	callq	getchar@PLT
	cmpl	$23, %eax
	jne	.LBB88_80
# %bb.79:                               #   in Loop: Header=BB88_2 Depth=1
	jmp	.LBB88_166
.LBB88_80:                              #   in Loop: Header=BB88_78 Depth=2
	callq	getchar@PLT
	cmpl	$97, %eax
	jne	.LBB88_82
# %bb.81:
	movl	$1923, %edi                     # imm = 0x783
	callq	exit@PLT
.LBB88_82:                              #   in Loop: Header=BB88_78 Depth=2
	callq	getchar@PLT
	cmpl	$19, %eax
	jne	.LBB88_84
# %bb.83:                               #   in Loop: Header=BB88_2 Depth=1
	jmp	.LBB88_167
.LBB88_84:                              #   in Loop: Header=BB88_78 Depth=2
	callq	getchar@PLT
	cmpl	$83, %eax
	jne	.LBB88_86
# %bb.85:                               #   in Loop: Header=BB88_2 Depth=1
	movabsq	$.L.str.441, %rdi
	movb	$0, %al
	callq	printf@PLT
	jmp	.LBB88_168
.LBB88_86:                              #   in Loop: Header=BB88_78 Depth=2
	callq	getchar@PLT
	cmpl	$73, %eax
	jne	.LBB88_88
# %bb.87:
	movabsq	$.L.str.442, %rdi
	movb	$0, %al
	callq	printf@PLT
	jmp	.LBB88_173
.LBB88_88:                              #   in Loop: Header=BB88_78 Depth=2
	movabsq	$.L.str.443, %rdi
	movb	$0, %al
	callq	printf@PLT
	movabsq	$.L.str.444, %rdi
	movb	$0, %al
	callq	printf@PLT
.LBB88_89:                              #   Parent Loop BB88_2 Depth=1
                                        #     Parent Loop BB88_78 Depth=2
                                        # =>    This Loop Header: Depth=3
                                        #         Child Loop BB88_100 Depth 4
                                        #         Child Loop BB88_117 Depth 4
	movabsq	$.L.str.445, %rdi
	movb	$0, %al
	callq	printf@PLT
	movabsq	$.L.str.446, %rdi
	movb	$0, %al
	callq	printf@PLT
	callq	getchar@PLT
	cmpl	$23, %eax
	jne	.LBB88_91
# %bb.90:                               #   in Loop: Header=BB88_78 Depth=2
	jmp	.LBB88_126
.LBB88_91:                              #   in Loop: Header=BB88_89 Depth=3
	callq	getchar@PLT
	cmpl	$31, %eax
	jne	.LBB88_93
# %bb.92:
	jmp	.LBB88_175
.LBB88_93:                              #   in Loop: Header=BB88_89 Depth=3
	callq	getchar@PLT
	cmpl	$19, %eax
	jne	.LBB88_95
# %bb.94:                               #   in Loop: Header=BB88_78 Depth=2
	jmp	.LBB88_127
.LBB88_95:                              #   in Loop: Header=BB88_89 Depth=3
	callq	getchar@PLT
	cmpl	$83, %eax
	jne	.LBB88_97
# %bb.96:                               #   in Loop: Header=BB88_78 Depth=2
	movabsq	$.L.str.447, %rdi
	movb	$0, %al
	callq	printf@PLT
	jmp	.LBB88_128
.LBB88_97:                              #   in Loop: Header=BB88_89 Depth=3
	callq	getchar@PLT
	cmpl	$73, %eax
	jne	.LBB88_99
# %bb.98:
	movabsq	$.L.str.448, %rdi
	movb	$0, %al
	callq	printf@PLT
	jmp	.LBB88_173
.LBB88_99:                              #   in Loop: Header=BB88_89 Depth=3
	movabsq	$.L.str.449, %rdi
	movb	$0, %al
	callq	printf@PLT
	movabsq	$.L.str.450, %rdi
	movb	$0, %al
	callq	printf@PLT
.LBB88_100:                             #   Parent Loop BB88_2 Depth=1
                                        #     Parent Loop BB88_78 Depth=2
                                        #       Parent Loop BB88_89 Depth=3
                                        # =>      This Inner Loop Header: Depth=4
	movabsq	$.L.str.451, %rdi
	movb	$0, %al
	callq	printf@PLT
	movabsq	$.L.str.452, %rdi
	movb	$0, %al
	callq	printf@PLT
	callq	getchar@PLT
	cmpl	$23, %eax
	jne	.LBB88_102
# %bb.101:                              #   in Loop: Header=BB88_89 Depth=3
	jmp	.LBB88_114
.LBB88_102:                             #   in Loop: Header=BB88_100 Depth=4
	callq	getchar@PLT
	cmpl	$97, %eax
	jne	.LBB88_104
# %bb.103:
	movl	$1923, %edi                     # imm = 0x783
	callq	exit@PLT
.LBB88_104:                             #   in Loop: Header=BB88_100 Depth=4
	callq	getchar@PLT
	cmpl	$19, %eax
	jne	.LBB88_106
# %bb.105:                              #   in Loop: Header=BB88_89 Depth=3
	jmp	.LBB88_115
.LBB88_106:                             #   in Loop: Header=BB88_100 Depth=4
	callq	getchar@PLT
	cmpl	$83, %eax
	jne	.LBB88_108
# %bb.107:                              #   in Loop: Header=BB88_89 Depth=3
	movabsq	$.L.str.453, %rdi
	movb	$0, %al
	callq	printf@PLT
	jmp	.LBB88_116
.LBB88_108:                             #   in Loop: Header=BB88_100 Depth=4
	movabsq	$.L.str.454, %rdi
	movb	$0, %al
	callq	printf@PLT
	callq	getchar@PLT
	cmpl	$17, %eax
	jne	.LBB88_110
# %bb.109:                              #   in Loop: Header=BB88_100 Depth=4
	jmp	.LBB88_111
.LBB88_110:                             #   in Loop: Header=BB88_100 Depth=4
	xorl	%edi, %edi
	callq	FF_function_131
	xorl	%edi, %edi
	xorps	%xmm0, %xmm0
	xorps	%xmm1, %xmm1
	xorl	%esi, %esi
	movq	%rax, %rdx
	callq	FF_function_121
.LBB88_111:                             #   in Loop: Header=BB88_100 Depth=4
	jmp	.LBB88_112
.LBB88_112:                             #   in Loop: Header=BB88_100 Depth=4
	movb	$1, %al
	testb	$1, %al
	jne	.LBB88_100
	jmp	.LBB88_113
.LBB88_113:                             # %.loopexit
                                        #   in Loop: Header=BB88_89 Depth=3
	jmp	.LBB88_114
.LBB88_114:                             #   in Loop: Header=BB88_89 Depth=3
	jmp	.LBB88_115
.LBB88_115:                             #   in Loop: Header=BB88_89 Depth=3
	movabsq	$.L.str.455, %rdi
	movb	$0, %al
	callq	printf@PLT
	movabsq	$.L.str.456, %rdi
	movb	$0, %al
	callq	printf@PLT
.LBB88_116:                             #   in Loop: Header=BB88_89 Depth=3
	movabsq	$.L.str.457, %rdi
	movb	$0, %al
	callq	printf@PLT
	movl	$2429, -12(%rbp)                # imm = 0x97D
.LBB88_117:                             #   Parent Loop BB88_2 Depth=1
                                        #     Parent Loop BB88_78 Depth=2
                                        #       Parent Loop BB88_89 Depth=3
                                        # =>      This Inner Loop Header: Depth=4
	movl	-12(%rbp), %esi
	movabsq	$.L.str.458, %rdi
	movb	$0, %al
	callq	printf@PLT
	callq	getchar@PLT
# %bb.118:                              #   in Loop: Header=BB88_117 Depth=4
	movl	-12(%rbp), %eax
	addl	$-1, %eax
	movl	%eax, -12(%rbp)
# %bb.119:                              #   in Loop: Header=BB88_117 Depth=4
	cvtsi2sdl	-12(%rbp), %xmm0
	movsd	.LCPI88_8(%rip), %xmm1          # xmm1 = mem[0],zero
	ucomisd	%xmm1, %xmm0
	jae	.LBB88_117
# %bb.120:                              #   in Loop: Header=BB88_89 Depth=3
	jmp	.LBB88_121
.LBB88_121:                             #   in Loop: Header=BB88_89 Depth=3
	movabsq	$.L.str.459, %rdi
	movb	$0, %al
	callq	printf@PLT
	movabsq	$.L.str.460, %rdi
	movb	$0, %al
	callq	printf@PLT
# %bb.122:                              #   in Loop: Header=BB88_89 Depth=3
	callq	getchar@PLT
	cmpl	$17, %eax
	jne	.LBB88_124
# %bb.123:                              #   in Loop: Header=BB88_89 Depth=3
	jmp	.LBB88_125
.LBB88_124:                             #   in Loop: Header=BB88_89 Depth=3
	xorl	%edi, %edi
	callq	FF_function_147
.LBB88_125:                             #   in Loop: Header=BB88_89 Depth=3
	jmp	.LBB88_89
.LBB88_126:                             #   in Loop: Header=BB88_78 Depth=2
	jmp	.LBB88_127
.LBB88_127:                             #   in Loop: Header=BB88_78 Depth=2
	movabsq	$.L.str.461, %rdi
	movb	$0, %al
	callq	printf@PLT
	xorl	%edi, %edi
	xorl	%esi, %esi
	xorl	%edx, %edx
	xorl	%ecx, %ecx
	xorps	%xmm0, %xmm0
	xorl	%r8d, %r8d
	xorl	%r9d, %r9d
	movq	$0, (%rsp)
	callq	FF_function_139
.LBB88_128:                             #   in Loop: Header=BB88_78 Depth=2
	movabsq	$.L.str.462, %rdi
	movb	$0, %al
	callq	printf@PLT
	movss	.LCPI88_9(%rip), %xmm0          # xmm0 = mem[0],zero,zero,zero
	movss	%xmm0, -8(%rbp)
.LBB88_129:                             #   Parent Loop BB88_2 Depth=1
                                        #     Parent Loop BB88_78 Depth=2
                                        # =>    This Loop Header: Depth=3
                                        #         Child Loop BB88_136 Depth 4
                                        #         Child Loop BB88_142 Depth 4
	movss	-8(%rbp), %xmm0                 # xmm0 = mem[0],zero,zero,zero
	cvtss2sd	%xmm0, %xmm0
	movabsq	$.L.str.463, %rdi
	movb	$1, %al
	callq	printf@PLT
	movabsq	$.L.str.464, %rdi
	movb	$0, %al
	callq	printf@PLT
	callq	getchar@PLT
	cmpl	$23, %eax
	jne	.LBB88_131
# %bb.130:                              #   in Loop: Header=BB88_78 Depth=2
	jmp	.LBB88_160
.LBB88_131:                             #   in Loop: Header=BB88_129 Depth=3
	callq	getchar@PLT
	cmpl	$83, %eax
	jne	.LBB88_133
# %bb.132:                              #   in Loop: Header=BB88_78 Depth=2
	movabsq	$.L.str.465, %rdi
	movb	$0, %al
	callq	printf@PLT
	jmp	.LBB88_162
.LBB88_133:                             #   in Loop: Header=BB88_129 Depth=3
	callq	getchar@PLT
	cmpl	$73, %eax
	jne	.LBB88_135
# %bb.134:
	movabsq	$.L.str.466, %rdi
	movb	$0, %al
	callq	printf@PLT
	jmp	.LBB88_173
.LBB88_135:                             #   in Loop: Header=BB88_129 Depth=3
	movl	$0, -80(%rbp)
	movss	.LCPI88_10(%rip), %xmm0         # xmm0 = mem[0],zero,zero,zero
	movss	%xmm0, -76(%rbp)
	movq	$0, -72(%rbp)
	movq	-80(%rbp), %rdi
	movq	-72(%rbp), %rsi
	xorl	%edx, %edx
	xorl	%ecx, %ecx
	movb	$0, %al
	callq	FF_function_171
	xorl	%edi, %edi
	xorl	%esi, %esi
	movq	%rax, %rdx
	callq	FF_function_140
	movabsq	$.L.str.467, %rdi
	movb	$0, %al
	callq	printf@PLT
	movabsq	$.L.str.468, %rdi
	movb	$0, %al
	callq	printf@PLT
	movabsq	$.L.str.469, %rdi
	movb	$0, %al
	callq	printf@PLT
	xorps	%xmm0, %xmm0
	xorl	%edi, %edi
	callq	FF_function_133
	movabsq	$.L.str.470, %rdi
	movb	$0, %al
	callq	printf@PLT
	movabsq	$.L.str.471, %rdi
	movb	$0, %al
	callq	printf@PLT
	movabsq	$.L.str.472, %rdi
	movb	$0, %al
	callq	printf@PLT
	movabsq	$.L.str.473, %rdi
	movb	$0, %al
	callq	printf@PLT
	movabsq	$.L.str.474, %rdi
	movb	$0, %al
	callq	printf@PLT
	callq	FF_function_149
	movabsq	$.L.str.475, %rdi
	movb	$0, %al
	callq	printf@PLT
	movabsq	$.L.str.476, %rdi
	movb	$0, %al
	callq	printf@PLT
	movl	$2188, -24(%rbp)                # imm = 0x88C
.LBB88_136:                             #   Parent Loop BB88_2 Depth=1
                                        #     Parent Loop BB88_78 Depth=2
                                        #       Parent Loop BB88_129 Depth=3
                                        # =>      This Inner Loop Header: Depth=4
	movabsq	$.L.str.477, %rdi
	movb	$0, %al
	callq	printf@PLT
	callq	getchar@PLT
# %bb.137:                              #   in Loop: Header=BB88_136 Depth=4
	movl	-24(%rbp), %eax
	addl	$-1, %eax
	movl	%eax, -24(%rbp)
# %bb.138:                              #   in Loop: Header=BB88_136 Depth=4
	cvtsi2sdl	-24(%rbp), %xmm0
	movsd	.LCPI88_11(%rip), %xmm1         # xmm1 = mem[0],zero
	ucomisd	%xmm1, %xmm0
	ja	.LBB88_136
# %bb.139:                              #   in Loop: Header=BB88_129 Depth=3
	jmp	.LBB88_140
.LBB88_140:                             #   in Loop: Header=BB88_129 Depth=3
	movabsq	$.L.str.478, %rdi
	movb	$0, %al
	callq	printf@PLT
	movabsq	$.L.str.479, %rdi
	movb	$0, %al
	callq	printf@PLT
# %bb.141:                              #   in Loop: Header=BB88_129 Depth=3
	movabsq	$.L.str.480, %rdi
	movb	$0, %al
	callq	printf@PLT
	movl	$2, -4(%rbp)
.LBB88_142:                             #   Parent Loop BB88_2 Depth=1
                                        #     Parent Loop BB88_78 Depth=2
                                        #       Parent Loop BB88_129 Depth=3
                                        # =>      This Inner Loop Header: Depth=4
	cmpl	$8998, -4(%rbp)                 # imm = 0x2326
	je	.LBB88_152
# %bb.143:                              #   in Loop: Header=BB88_142 Depth=4
	movl	-4(%rbp), %esi
	movabsq	$.L.str.481, %rdi
	movb	$0, %al
	callq	printf@PLT
	movabsq	$.L.str.482, %rdi
	movb	$0, %al
	callq	printf@PLT
	callq	getchar@PLT
	cmpl	$19, %eax
	jne	.LBB88_145
# %bb.144:                              #   in Loop: Header=BB88_129 Depth=3
	jmp	.LBB88_153
.LBB88_145:                             #   in Loop: Header=BB88_142 Depth=4
	callq	getchar@PLT
	cmpl	$83, %eax
	jne	.LBB88_147
# %bb.146:                              #   in Loop: Header=BB88_129 Depth=3
	movabsq	$.L.str.483, %rdi
	movb	$0, %al
	callq	printf@PLT
	jmp	.LBB88_154
.LBB88_147:                             #   in Loop: Header=BB88_142 Depth=4
	callq	getchar@PLT
	cmpl	$73, %eax
	jne	.LBB88_149
# %bb.148:
	movabsq	$.L.str.484, %rdi
	movb	$0, %al
	callq	printf@PLT
	jmp	.LBB88_173
.LBB88_149:                             #   in Loop: Header=BB88_142 Depth=4
	movabsq	$.L.str.485, %rdi
	movb	$0, %al
	callq	printf@PLT
	movabsq	$.L.str.486, %rdi
	movb	$0, %al
	callq	printf@PLT
# %bb.150:                              #   in Loop: Header=BB88_142 Depth=4
	jmp	.LBB88_151
.LBB88_151:                             #   in Loop: Header=BB88_142 Depth=4
	movl	-4(%rbp), %eax
	addl	$1, %eax
	movl	%eax, -4(%rbp)
	jmp	.LBB88_142
.LBB88_152:                             #   in Loop: Header=BB88_129 Depth=3
	jmp	.LBB88_153
.LBB88_153:                             #   in Loop: Header=BB88_129 Depth=3
	movabsq	$.L.str.487, %rdi
	movb	$0, %al
	callq	printf@PLT
	xorps	%xmm0, %xmm0
	callq	FF_function_146
.LBB88_154:                             #   in Loop: Header=BB88_129 Depth=3
	callq	getchar@PLT
	cmpl	$17, %eax
	jne	.LBB88_156
# %bb.155:                              #   in Loop: Header=BB88_129 Depth=3
	jmp	.LBB88_157
.LBB88_156:                             #   in Loop: Header=BB88_129 Depth=3
	movabsq	$.L.str.488, %rdi
	movb	$0, %al
	callq	printf@PLT
.LBB88_157:                             #   in Loop: Header=BB88_129 Depth=3
	movss	-8(%rbp), %xmm0                 # xmm0 = mem[0],zero,zero,zero
	cvtss2sd	%xmm0, %xmm0
	movsd	.LCPI88_12(%rip), %xmm1         # xmm1 = mem[0],zero
	addsd	%xmm1, %xmm0
	cvtsd2ss	%xmm0, %xmm0
	movss	%xmm0, -8(%rbp)
# %bb.158:                              #   in Loop: Header=BB88_129 Depth=3
	movss	.LCPI88_13(%rip), %xmm0         # xmm0 = mem[0],zero,zero,zero
	ucomiss	-8(%rbp), %xmm0
	jae	.LBB88_129
# %bb.159:                              # %.loopexit1
                                        #   in Loop: Header=BB88_78 Depth=2
	jmp	.LBB88_160
.LBB88_160:                             #   in Loop: Header=BB88_78 Depth=2
	jmp	.LBB88_161
.LBB88_161:                             #   in Loop: Header=BB88_78 Depth=2
	movabsq	$.L.str.489, %rdi
	movb	$0, %al
	callq	printf@PLT
	movabsq	$.L.str.490, %rdi
	movb	$0, %al
	callq	printf@PLT
.LBB88_162:                             #   in Loop: Header=BB88_78 Depth=2
	movl	$0, -64(%rbp)
	movss	.LCPI88_10(%rip), %xmm0         # xmm0 = mem[0],zero,zero,zero
	movss	%xmm0, -60(%rbp)
	movq	$0, -56(%rbp)
	movq	-64(%rbp), %rdi
	movq	-56(%rbp), %rsi
	movb	$0, %al
	callq	FF_function_171
# %bb.163:                              #   in Loop: Header=BB88_78 Depth=2
	jmp	.LBB88_164
.LBB88_164:                             #   in Loop: Header=BB88_78 Depth=2
	movb	$1, %al
	testb	$1, %al
	jne	.LBB88_78
	jmp	.LBB88_165
.LBB88_165:                             # %.loopexit3
                                        #   in Loop: Header=BB88_2 Depth=1
	jmp	.LBB88_166
.LBB88_166:                             #   in Loop: Header=BB88_2 Depth=1
	jmp	.LBB88_167
.LBB88_167:                             #   in Loop: Header=BB88_2 Depth=1
	movabsq	$.L.str.491, %rdi
	movb	$0, %al
	callq	printf@PLT
	movabsq	$.L.str.492, %rdi
	movb	$0, %al
	callq	printf@PLT
.LBB88_168:                             #   in Loop: Header=BB88_2 Depth=1
	xorl	%edi, %edi
	xorps	%xmm0, %xmm0
	xorl	%esi, %esi
	xorl	%edx, %edx
	xorps	%xmm1, %xmm1
	xorl	%ecx, %ecx
	callq	FF_function_141
# %bb.169:                              #   in Loop: Header=BB88_2 Depth=1
	jmp	.LBB88_170
.LBB88_170:                             #   in Loop: Header=BB88_2 Depth=1
	movb	$1, %al
	testb	$1, %al
	jne	.LBB88_2
	jmp	.LBB88_171
.LBB88_171:
	jmp	.LBB88_172
.LBB88_172:
	jmp	.LBB88_173
.LBB88_173:
	movabsq	$.L.str.493, %rdi
	movb	$0, %al
	callq	printf@PLT
	movabsq	$.L.str.494, %rdi
	movb	$0, %al
	callq	printf@PLT
.LBB88_174:
	movabsq	$.L.str.495, %rdi
	movb	$0, %al
	callq	printf@PLT
	xorps	%xmm0, %xmm0
	movss	%xmm0, -40(%rbp)
.LBB88_175:
	movss	-40(%rbp), %xmm0                # xmm0 = mem[0],zero,zero,zero
	addq	$96, %rsp
	popq	%rbp
	.cfi_def_cfa %rsp, 8
	retq
.Lfunc_end88:
	.size	CF_function_186, .Lfunc_end88-CF_function_186
	.cfi_endproc
                                        # -- End function
	.section	.rodata.cst4,"aM",@progbits,4
	.p2align	2                               # -- Begin function CF_function_187
.LCPI89_0:
	.long	0x3f000000                      # float 0.5
.LCPI89_1:
	.long	0x45002333                      # float 2050.19995
.LCPI89_2:
	.long	0x3f800000                      # float 1
.LCPI89_4:
	.long	0x45d3908f                      # float 6770.06982
.LCPI89_5:
	.long	0x41000000                      # float 8
.LCPI89_6:
	.long	0xbf800000                      # float -1
.LCPI89_7:
	.long	0x450f1d9a                      # float 2289.8501
.LCPI89_10:
	.long	0x4507c548                      # float 2172.33008
	.section	.rodata.cst8,"aM",@progbits,8
	.p2align	3
.LCPI89_3:
	.quad	0x40a01e0000000000              # double 2063
.LCPI89_8:
	.quad	0x4019ae147ae147ae              # double 6.4199999999999999
.LCPI89_9:
	.quad	0x40a194f5c28f5c29              # double 2250.48
.LCPI89_11:
	.quad	0x40a1220000000000              # double 2193
	.text
	.globl	CF_function_187
	.p2align	4, 0x90
	.type	CF_function_187,@function
CF_function_187:                        # @CF_function_187
	.cfi_startproc
# %bb.0:
	pushq	%rbp
	.cfi_def_cfa_offset 16
	.cfi_offset %rbp, -16
	movq	%rsp, %rbp
	.cfi_def_cfa_register %rbp
	pushq	%rbx
	subq	$104, %rsp
	.cfi_offset %rbx, -24
	movq	%rdi, -56(%rbp)
	movabsq	$.L.str.496, %rdi
	movb	$0, %al
	callq	printf@PLT
	callq	getchar@PLT
	cmpl	$79, %eax
	jne	.LBB89_128
# %bb.1:
	movabsq	$.L.str.497, %rdi
	movb	$0, %al
	callq	printf@PLT
.LBB89_2:                               # =>This Loop Header: Depth=1
                                        #     Child Loop BB89_19 Depth 2
                                        #       Child Loop BB89_22 Depth 3
                                        #         Child Loop BB89_31 Depth 4
                                        #     Child Loop BB89_53 Depth 2
                                        #       Child Loop BB89_63 Depth 3
	movabsq	$.L.str.498, %rdi
	movb	$0, %al
	callq	printf@PLT
	callq	FF_function_151
	callq	getchar@PLT
	cmpl	$31, %eax
	jne	.LBB89_4
# %bb.3:
	jmp	.LBB89_131
.LBB89_4:                               #   in Loop: Header=BB89_2 Depth=1
	callq	getchar@PLT
	cmpl	$83, %eax
	jne	.LBB89_6
# %bb.5:
	movabsq	$.L.str.499, %rdi
	movb	$0, %al
	callq	printf@PLT
	jmp	.LBB89_130
.LBB89_6:                               #   in Loop: Header=BB89_2 Depth=1
	xorps	%xmm0, %xmm0
	movb	$1, %al
	callq	FF_function_103
	callq	getchar@PLT
	cmpl	$79, %eax
	jne	.LBB89_16
# %bb.7:
	movabsq	$.L.str.500, %rdi
	movb	$0, %al
	callq	printf@PLT
.LBB89_8:                               # =>This Loop Header: Depth=1
                                        #     Child Loop BB89_9 Depth 2
	movabsq	$.L.str.501, %rdi
	movb	$0, %al
	callq	printf@PLT
	movabsq	$.L.str.502, %rdi
	movb	$0, %al
	callq	printf@PLT
	movabsq	$.L.str.503, %rdi
	movb	$0, %al
	callq	printf@PLT
	movabsq	$.L.str.504, %rdi
	movb	$0, %al
	callq	printf@PLT
	movss	.LCPI89_10(%rip), %xmm0         # xmm0 = mem[0],zero,zero,zero
	movss	%xmm0, -32(%rbp)
.LBB89_9:                               #   Parent Loop BB89_8 Depth=1
                                        # =>  This Inner Loop Header: Depth=2
	movabsq	$.L.str.505, %rdi
	movb	$0, %al
	callq	printf@PLT
	callq	getchar@PLT
# %bb.10:                               #   in Loop: Header=BB89_9 Depth=2
	movss	.LCPI89_2(%rip), %xmm0          # xmm0 = mem[0],zero,zero,zero
	addss	-32(%rbp), %xmm0
	movss	%xmm0, -32(%rbp)
# %bb.11:                               #   in Loop: Header=BB89_9 Depth=2
	movss	-32(%rbp), %xmm0                # xmm0 = mem[0],zero,zero,zero
	cvtss2sd	%xmm0, %xmm0
	movsd	.LCPI89_11(%rip), %xmm1         # xmm1 = mem[0],zero
	ucomisd	%xmm0, %xmm1
	ja	.LBB89_9
# %bb.12:                               #   in Loop: Header=BB89_8 Depth=1
	jmp	.LBB89_13
.LBB89_13:                              #   in Loop: Header=BB89_8 Depth=1
	movabsq	$.L.str.506, %rdi
	movb	$0, %al
	callq	printf@PLT
	movabsq	$.L.str.507, %rdi
	movb	$0, %al
	callq	printf@PLT
# %bb.14:                               #   in Loop: Header=BB89_8 Depth=1
	movabsq	$.L.str.508, %rdi
	movb	$0, %al
	callq	printf@PLT
# %bb.15:                               #   in Loop: Header=BB89_8 Depth=1
	jmp	.LBB89_8
.LBB89_16:                              #   in Loop: Header=BB89_2 Depth=1
	jmp	.LBB89_17
.LBB89_17:                              #   in Loop: Header=BB89_2 Depth=1
	movabsq	$.L.str.509, %rdi
	movb	$0, %al
	callq	printf@PLT
	movabsq	$.L.str.510, %rdi
	movb	$0, %al
	callq	printf@PLT
# %bb.18:                               #   in Loop: Header=BB89_2 Depth=1
	movabsq	$.L.str.511, %rdi
	movb	$0, %al
	callq	printf@PLT
.LBB89_19:                              #   Parent Loop BB89_2 Depth=1
                                        # =>  This Loop Header: Depth=2
                                        #       Child Loop BB89_22 Depth 3
                                        #         Child Loop BB89_31 Depth 4
	movabsq	$.L.str.512, %rdi
	movb	$0, %al
	callq	printf@PLT
	movabsq	$.L.str.513, %rdi
	movb	$0, %al
	callq	printf@PLT
	callq	getchar@PLT
	cmpl	$23, %eax
	jne	.LBB89_21
# %bb.20:                               #   in Loop: Header=BB89_2 Depth=1
	jmp	.LBB89_50
.LBB89_21:                              #   in Loop: Header=BB89_19 Depth=2
	xorl	%edi, %edi
	xorps	%xmm0, %xmm0
	xorl	%esi, %esi
	xorl	%edx, %edx
	xorps	%xmm1, %xmm1
	xorl	%ecx, %ecx
	callq	FF_function_141
	movq	%rax, %rbx
	movl	$0, -48(%rbp)
	movss	.LCPI89_0(%rip), %xmm0          # xmm0 = mem[0],zero,zero,zero
	movss	%xmm0, -44(%rbp)
	movq	$0, -40(%rbp)
	movq	-48(%rbp), %rdi
	movq	-40(%rbp), %rsi
	xorl	%edx, %edx
	xorl	%ecx, %ecx
	movb	$0, %al
	callq	FF_function_171
	movq	%rbx, %rdi
	movq	%rax, %rsi
	xorl	%edx, %edx
	xorl	%ecx, %ecx
	xorps	%xmm0, %xmm0
	xorl	%r8d, %r8d
	xorl	%r9d, %r9d
	movq	$0, (%rsp)
	callq	FF_function_139
	movabsq	$.L.str.514, %rdi
	movb	$0, %al
	callq	printf@PLT
.LBB89_22:                              #   Parent Loop BB89_2 Depth=1
                                        #     Parent Loop BB89_19 Depth=2
                                        # =>    This Loop Header: Depth=3
                                        #         Child Loop BB89_31 Depth 4
	movabsq	$.L.str.515, %rdi
	movb	$0, %al
	callq	printf@PLT
	movabsq	$.L.str.516, %rdi
	movb	$0, %al
	callq	printf@PLT
	callq	getchar@PLT
	cmpl	$23, %eax
	jne	.LBB89_24
# %bb.23:                               #   in Loop: Header=BB89_19 Depth=2
	jmp	.LBB89_42
.LBB89_24:                              #   in Loop: Header=BB89_22 Depth=3
	callq	getchar@PLT
	cmpl	$97, %eax
	jne	.LBB89_26
# %bb.25:
	movl	$1923, %edi                     # imm = 0x783
	callq	exit@PLT
.LBB89_26:                              #   in Loop: Header=BB89_22 Depth=3
	callq	getchar@PLT
	cmpl	$31, %eax
	jne	.LBB89_28
# %bb.27:
	jmp	.LBB89_131
.LBB89_28:                              #   in Loop: Header=BB89_22 Depth=3
	callq	getchar@PLT
	cmpl	$19, %eax
	jne	.LBB89_30
# %bb.29:                               #   in Loop: Header=BB89_19 Depth=2
	jmp	.LBB89_43
.LBB89_30:                              #   in Loop: Header=BB89_22 Depth=3
	movabsq	$.L.str.517, %rdi
	movb	$0, %al
	callq	printf@PLT
	movabsq	$.L.str.518, %rdi
	movb	$0, %al
	callq	printf@PLT
	movss	.LCPI89_1(%rip), %xmm0          # xmm0 = mem[0],zero,zero,zero
	movss	%xmm0, -28(%rbp)
.LBB89_31:                              #   Parent Loop BB89_2 Depth=1
                                        #     Parent Loop BB89_19 Depth=2
                                        #       Parent Loop BB89_22 Depth=3
                                        # =>      This Inner Loop Header: Depth=4
	movabsq	$.L.str.519, %rdi
	movb	$0, %al
	callq	printf@PLT
	callq	getchar@PLT
# %bb.32:                               #   in Loop: Header=BB89_31 Depth=4
	movss	.LCPI89_2(%rip), %xmm0          # xmm0 = mem[0],zero,zero,zero
	addss	-28(%rbp), %xmm0
	movss	%xmm0, -28(%rbp)
# %bb.33:                               #   in Loop: Header=BB89_31 Depth=4
	movss	-28(%rbp), %xmm0                # xmm0 = mem[0],zero,zero,zero
	cvtss2sd	%xmm0, %xmm0
	movsd	.LCPI89_3(%rip), %xmm1          # xmm1 = mem[0],zero
	ucomisd	%xmm0, %xmm1
	jae	.LBB89_31
# %bb.34:                               #   in Loop: Header=BB89_22 Depth=3
	jmp	.LBB89_35
.LBB89_35:                              #   in Loop: Header=BB89_22 Depth=3
	movabsq	$.L.str.520, %rdi
	movb	$0, %al
	callq	printf@PLT
	movabsq	$.L.str.521, %rdi
	movb	$0, %al
	callq	printf@PLT
# %bb.36:                               #   in Loop: Header=BB89_22 Depth=3
	callq	getchar@PLT
	cmpl	$67, %eax
	jne	.LBB89_38
# %bb.37:                               #   in Loop: Header=BB89_22 Depth=3
	jmp	.LBB89_40
.LBB89_38:                              #   in Loop: Header=BB89_22 Depth=3
	xorl	%edi, %edi
	xorps	%xmm0, %xmm0
	xorps	%xmm1, %xmm1
	xorl	%esi, %esi
	xorl	%edx, %edx
	callq	FF_function_121
# %bb.39:                               #   in Loop: Header=BB89_22 Depth=3
	jmp	.LBB89_40
.LBB89_40:                              #   in Loop: Header=BB89_22 Depth=3
	movb	$1, %al
	testb	$1, %al
	jne	.LBB89_22
	jmp	.LBB89_41
.LBB89_41:                              # %.loopexit
                                        #   in Loop: Header=BB89_19 Depth=2
	jmp	.LBB89_42
.LBB89_42:                              #   in Loop: Header=BB89_19 Depth=2
	jmp	.LBB89_43
.LBB89_43:                              #   in Loop: Header=BB89_19 Depth=2
	movabsq	$.L.str.522, %rdi
	movb	$0, %al
	callq	printf@PLT
	movabsq	$.L.str.523, %rdi
	movb	$0, %al
	callq	printf@PLT
# %bb.44:                               #   in Loop: Header=BB89_19 Depth=2
	callq	getchar@PLT
	cmpl	$67, %eax
	jne	.LBB89_46
# %bb.45:                               #   in Loop: Header=BB89_19 Depth=2
	jmp	.LBB89_48
.LBB89_46:                              #   in Loop: Header=BB89_19 Depth=2
	movabsq	$.L.str.524, %rdi
	movb	$0, %al
	callq	printf@PLT
# %bb.47:                               #   in Loop: Header=BB89_19 Depth=2
	jmp	.LBB89_48
.LBB89_48:                              #   in Loop: Header=BB89_19 Depth=2
	movb	$1, %al
	testb	$1, %al
	jne	.LBB89_19
	jmp	.LBB89_49
.LBB89_49:                              # %.loopexit3
                                        #   in Loop: Header=BB89_2 Depth=1
	jmp	.LBB89_50
.LBB89_50:                              #   in Loop: Header=BB89_2 Depth=1
	jmp	.LBB89_51
.LBB89_51:                              #   in Loop: Header=BB89_2 Depth=1
	movabsq	$.L.str.525, %rdi
	movb	$0, %al
	callq	printf@PLT
	movabsq	$.L.str.526, %rdi
	movb	$0, %al
	callq	printf@PLT
# %bb.52:                               #   in Loop: Header=BB89_2 Depth=1
	movabsq	$.L.str.527, %rdi
	movb	$0, %al
	callq	printf@PLT
.LBB89_53:                              #   Parent Loop BB89_2 Depth=1
                                        # =>  This Loop Header: Depth=2
                                        #       Child Loop BB89_63 Depth 3
	movabsq	$.L.str.528, %rdi
	movb	$0, %al
	callq	printf@PLT
	movabsq	$.L.str.529, %rdi
	movb	$0, %al
	callq	printf@PLT
	callq	getchar@PLT
	cmpl	$23, %eax
	jne	.LBB89_55
# %bb.54:                               #   in Loop: Header=BB89_2 Depth=1
	jmp	.LBB89_118
.LBB89_55:                              #   in Loop: Header=BB89_53 Depth=2
	callq	getchar@PLT
	cmpl	$31, %eax
	jne	.LBB89_57
# %bb.56:
	jmp	.LBB89_131
.LBB89_57:                              #   in Loop: Header=BB89_53 Depth=2
	callq	getchar@PLT
	cmpl	$19, %eax
	jne	.LBB89_59
# %bb.58:                               #   in Loop: Header=BB89_2 Depth=1
	jmp	.LBB89_119
.LBB89_59:                              #   in Loop: Header=BB89_53 Depth=2
	callq	getchar@PLT
	cmpl	$73, %eax
	jne	.LBB89_61
# %bb.60:
	movabsq	$.L.str.530, %rdi
	movb	$0, %al
	callq	printf@PLT
	jmp	.LBB89_129
.LBB89_61:                              #   in Loop: Header=BB89_53 Depth=2
	movabsq	$.L.str.531, %rdi
	movb	$0, %al
	callq	printf@PLT
	callq	getchar@PLT
	cmpl	$79, %eax
	jne	.LBB89_109
# %bb.62:                               #   in Loop: Header=BB89_53 Depth=2
	movabsq	$.L.str.532, %rdi
	movb	$0, %al
	callq	printf@PLT
.LBB89_63:                              #   Parent Loop BB89_2 Depth=1
                                        #     Parent Loop BB89_53 Depth=2
                                        # =>    This Inner Loop Header: Depth=3
	movabsq	$.L.str.533, %rdi
	movb	$0, %al
	callq	printf@PLT
	movabsq	$.L.str.534, %rdi
	movb	$0, %al
	callq	printf@PLT
	callq	getchar@PLT
	cmpl	$97, %eax
	jne	.LBB89_65
# %bb.64:
	movl	$1923, %edi                     # imm = 0x783
	callq	exit@PLT
.LBB89_65:                              #   in Loop: Header=BB89_63 Depth=3
	callq	getchar@PLT
	cmpl	$83, %eax
	jne	.LBB89_67
# %bb.66:                               #   in Loop: Header=BB89_53 Depth=2
	movabsq	$.L.str.535, %rdi
	movb	$0, %al
	callq	printf@PLT
	jmp	.LBB89_111
.LBB89_67:                              #   in Loop: Header=BB89_63 Depth=3
	callq	getchar@PLT
	cmpl	$73, %eax
	jne	.LBB89_69
# %bb.68:
	movabsq	$.L.str.536, %rdi
	movb	$0, %al
	callq	printf@PLT
	jmp	.LBB89_129
.LBB89_69:                              #   in Loop: Header=BB89_63 Depth=3
	xorl	%edi, %edi
	movb	$0, %al
	callq	FF_function_101
	callq	getchar@PLT
	cmpl	$79, %eax
	jne	.LBB89_100
# %bb.70:
	movabsq	$.L.str.537, %rdi
	movb	$0, %al
	callq	printf@PLT
.LBB89_71:                              # =>This Loop Header: Depth=1
                                        #     Child Loop BB89_78 Depth 2
                                        #     Child Loop BB89_93 Depth 2
	movabsq	$.L.str.538, %rdi
	movb	$0, %al
	callq	printf@PLT
	movabsq	$.L.str.539, %rdi
	movb	$0, %al
	callq	printf@PLT
	callq	getchar@PLT
	cmpl	$97, %eax
	jne	.LBB89_73
# %bb.72:
	movl	$1923, %edi                     # imm = 0x783
	callq	exit@PLT
.LBB89_73:                              #   in Loop: Header=BB89_71 Depth=1
	callq	getchar@PLT
	cmpl	$31, %eax
	jne	.LBB89_75
# %bb.74:
	jmp	.LBB89_131
.LBB89_75:                              #   in Loop: Header=BB89_71 Depth=1
	callq	getchar@PLT
	cmpl	$73, %eax
	jne	.LBB89_77
# %bb.76:
	movabsq	$.L.str.540, %rdi
	movb	$0, %al
	callq	printf@PLT
	jmp	.LBB89_129
.LBB89_77:                              #   in Loop: Header=BB89_71 Depth=1
	movabsq	$.L.str.541, %rdi
	movb	$0, %al
	callq	printf@PLT
	movabsq	$.L.str.542, %rdi
	movb	$0, %al
	callq	printf@PLT
	movss	.LCPI89_4(%rip), %xmm0          # xmm0 = mem[0],zero,zero,zero
	movss	%xmm0, -16(%rbp)
.LBB89_78:                              #   Parent Loop BB89_71 Depth=1
                                        # =>  This Inner Loop Header: Depth=2
	movss	-16(%rbp), %xmm0                # xmm0 = mem[0],zero,zero,zero
	movss	.LCPI89_5(%rip), %xmm1          # xmm1 = mem[0],zero,zero,zero
	ucomiss	%xmm1, %xmm0
	jbe	.LBB89_90
# %bb.79:                               #   in Loop: Header=BB89_78 Depth=2
	movss	-16(%rbp), %xmm0                # xmm0 = mem[0],zero,zero,zero
	cvtss2sd	%xmm0, %xmm0
	movabsq	$.L.str.543, %rdi
	movb	$1, %al
	callq	printf@PLT
	xorl	%edi, %edi
	xorl	%esi, %esi
	xorl	%edx, %edx
	callq	FF_function_107
	xorl	%edi, %edi
	xorps	%xmm0, %xmm0
	xorl	%esi, %esi
	xorl	%edx, %edx
	xorps	%xmm1, %xmm1
	xorl	%ecx, %ecx
	xorl	%r8d, %r8d
	xorl	%r9d, %r9d
	xorps	%xmm2, %xmm2
	movl	$0, (%rsp)
	movl	$0, 8(%rsp)
	movzbl	%al, %eax
	movl	%eax, 16(%rsp)
	movl	$0, 24(%rsp)
	movq	$0, 32(%rsp)
	movl	$0, 40(%rsp)
	movq	$0, 48(%rsp)
	callq	FF_function_129
	callq	getchar@PLT
	cmpl	$19, %eax
	jne	.LBB89_81
# %bb.80:                               #   in Loop: Header=BB89_71 Depth=1
	jmp	.LBB89_91
.LBB89_81:                              #   in Loop: Header=BB89_78 Depth=2
	callq	getchar@PLT
	cmpl	$83, %eax
	jne	.LBB89_83
# %bb.82:                               #   in Loop: Header=BB89_71 Depth=1
	movabsq	$.L.str.544, %rdi
	movb	$0, %al
	callq	printf@PLT
	jmp	.LBB89_92
.LBB89_83:                              #   in Loop: Header=BB89_78 Depth=2
	callq	getchar@PLT
	cmpl	$73, %eax
	jne	.LBB89_85
# %bb.84:
	movabsq	$.L.str.545, %rdi
	movb	$0, %al
	callq	printf@PLT
	jmp	.LBB89_129
.LBB89_85:                              #   in Loop: Header=BB89_78 Depth=2
	callq	FF_function_158
	callq	getchar@PLT
	cmpl	$67, %eax
	jne	.LBB89_88
# %bb.86:                               #   in Loop: Header=BB89_78 Depth=2
	jmp	.LBB89_87
.LBB89_87:                              # %.backedge
                                        #   in Loop: Header=BB89_78 Depth=2
	jmp	.LBB89_78
.LBB89_88:                              #   in Loop: Header=BB89_78 Depth=2
	movabsq	$.L.str.546, %rdi
	movb	$0, %al
	callq	printf@PLT
# %bb.89:                               #   in Loop: Header=BB89_78 Depth=2
	movss	.LCPI89_6(%rip), %xmm0          # xmm0 = mem[0],zero,zero,zero
	addss	-16(%rbp), %xmm0
	movss	%xmm0, -16(%rbp)
	jmp	.LBB89_87
.LBB89_90:                              #   in Loop: Header=BB89_71 Depth=1
	jmp	.LBB89_91
.LBB89_91:                              #   in Loop: Header=BB89_71 Depth=1
	movabsq	$.L.str.547, %rdi
	movb	$0, %al
	callq	printf@PLT
	movabsq	$.L.str.548, %rdi
	movb	$0, %al
	callq	printf@PLT
.LBB89_92:                              #   in Loop: Header=BB89_71 Depth=1
	movabsq	$.L.str.549, %rdi
	movb	$0, %al
	callq	printf@PLT
	movss	.LCPI89_7(%rip), %xmm0          # xmm0 = mem[0],zero,zero,zero
	movss	%xmm0, -12(%rbp)
.LBB89_93:                              #   Parent Loop BB89_71 Depth=1
                                        # =>  This Inner Loop Header: Depth=2
	movss	-12(%rbp), %xmm0                # xmm0 = mem[0],zero,zero,zero
	cvtss2sd	%xmm0, %xmm0
	movabsq	$.L.str.550, %rdi
	movb	$1, %al
	callq	printf@PLT
	callq	getchar@PLT
# %bb.94:                               #   in Loop: Header=BB89_93 Depth=2
	movss	-12(%rbp), %xmm0                # xmm0 = mem[0],zero,zero,zero
	cvtss2sd	%xmm0, %xmm0
	movsd	.LCPI89_8(%rip), %xmm1          # xmm1 = mem[0],zero
	subsd	%xmm1, %xmm0
	cvtsd2ss	%xmm0, %xmm0
	movss	%xmm0, -12(%rbp)
# %bb.95:                               #   in Loop: Header=BB89_93 Depth=2
	movss	-12(%rbp), %xmm0                # xmm0 = mem[0],zero,zero,zero
	cvtss2sd	%xmm0, %xmm0
	movsd	.LCPI89_9(%rip), %xmm1          # xmm1 = mem[0],zero
	ucomisd	%xmm1, %xmm0
	jae	.LBB89_93
# %bb.96:                               #   in Loop: Header=BB89_71 Depth=1
	jmp	.LBB89_97
.LBB89_97:                              #   in Loop: Header=BB89_71 Depth=1
	movabsq	$.L.str.551, %rdi
	movb	$0, %al
	callq	printf@PLT
	movabsq	$.L.str.552, %rdi
	movb	$0, %al
	callq	printf@PLT
# %bb.98:                               #   in Loop: Header=BB89_71 Depth=1
	xorl	%edi, %edi
	xorl	%esi, %esi
	xorps	%xmm0, %xmm0
	movb	$1, %al
	callq	FF_function_128
	xorl	%edi, %edi
	xorps	%xmm0, %xmm0
	xorl	%esi, %esi
	xorl	%edx, %edx
	xorps	%xmm1, %xmm1
	xorl	%ecx, %ecx
	movsbl	%al, %r8d
	xorl	%r9d, %r9d
	xorps	%xmm2, %xmm2
	movl	$0, (%rsp)
	movl	$0, 8(%rsp)
	movl	$0, 16(%rsp)
	movl	$0, 24(%rsp)
	movq	$0, 32(%rsp)
	movl	$0, 40(%rsp)
	movq	$0, 48(%rsp)
	callq	FF_function_129
# %bb.99:                               #   in Loop: Header=BB89_71 Depth=1
	jmp	.LBB89_71
.LBB89_100:                             #   in Loop: Header=BB89_63 Depth=3
	jmp	.LBB89_101
.LBB89_101:                             #   in Loop: Header=BB89_63 Depth=3
	movabsq	$.L.str.553, %rdi
	movb	$0, %al
	callq	printf@PLT
	movabsq	$.L.str.554, %rdi
	movb	$0, %al
	callq	printf@PLT
# %bb.102:                              #   in Loop: Header=BB89_63 Depth=3
	callq	getchar@PLT
	cmpl	$67, %eax
	jne	.LBB89_105
# %bb.103:                              #   in Loop: Header=BB89_63 Depth=3
	jmp	.LBB89_104
.LBB89_104:                             # %.backedge1
                                        #   in Loop: Header=BB89_63 Depth=3
	jmp	.LBB89_63
.LBB89_105:                             #   in Loop: Header=BB89_63 Depth=3
	callq	getchar@PLT
	cmpl	$17, %eax
	jne	.LBB89_107
# %bb.106:                              #   in Loop: Header=BB89_63 Depth=3
	jmp	.LBB89_108
.LBB89_107:                             #   in Loop: Header=BB89_63 Depth=3
	xorl	%edi, %edi
	movb	$0, %al
	callq	FF_function_128
.LBB89_108:                             #   in Loop: Header=BB89_63 Depth=3
	jmp	.LBB89_104
.LBB89_109:                             #   in Loop: Header=BB89_53 Depth=2
	jmp	.LBB89_110
.LBB89_110:                             #   in Loop: Header=BB89_53 Depth=2
	movabsq	$.L.str.555, %rdi
	movb	$0, %al
	callq	printf@PLT
	movabsq	$.L.str.556, %rdi
	movb	$0, %al
	callq	printf@PLT
.LBB89_111:                             #   in Loop: Header=BB89_53 Depth=2
	callq	getchar@PLT
	cmpl	$67, %eax
	jne	.LBB89_114
# %bb.112:                              #   in Loop: Header=BB89_53 Depth=2
	jmp	.LBB89_113
.LBB89_113:                             # %.backedge2
                                        #   in Loop: Header=BB89_53 Depth=2
	jmp	.LBB89_53
.LBB89_114:                             #   in Loop: Header=BB89_53 Depth=2
	callq	getchar@PLT
	cmpl	$17, %eax
	jne	.LBB89_116
# %bb.115:                              #   in Loop: Header=BB89_53 Depth=2
	jmp	.LBB89_117
.LBB89_116:                             #   in Loop: Header=BB89_53 Depth=2
	movabsq	$.L.str.557, %rdi
	movb	$0, %al
	callq	printf@PLT
.LBB89_117:                             #   in Loop: Header=BB89_53 Depth=2
	jmp	.LBB89_113
.LBB89_118:                             #   in Loop: Header=BB89_2 Depth=1
	jmp	.LBB89_119
.LBB89_119:                             #   in Loop: Header=BB89_2 Depth=1
	movabsq	$.L.str.558, %rdi
	movb	$0, %al
	callq	printf@PLT
	movabsq	$.L.str.559, %rdi
	movb	$0, %al
	callq	printf@PLT
# %bb.120:                              #   in Loop: Header=BB89_2 Depth=1
	callq	getchar@PLT
	cmpl	$67, %eax
	jne	.LBB89_122
# %bb.121:                              #   in Loop: Header=BB89_2 Depth=1
	jmp	.LBB89_126
.LBB89_122:                             #   in Loop: Header=BB89_2 Depth=1
	callq	getchar@PLT
	cmpl	$17, %eax
	jne	.LBB89_124
# %bb.123:                              #   in Loop: Header=BB89_2 Depth=1
	jmp	.LBB89_125
.LBB89_124:                             #   in Loop: Header=BB89_2 Depth=1
	xorl	%edi, %edi
	callq	FF_function_126
.LBB89_125:                             #   in Loop: Header=BB89_2 Depth=1
	jmp	.LBB89_126
.LBB89_126:                             #   in Loop: Header=BB89_2 Depth=1
	movb	$1, %al
	testb	$1, %al
	jne	.LBB89_2
	jmp	.LBB89_127
.LBB89_127:
	jmp	.LBB89_128
.LBB89_128:
	jmp	.LBB89_129
.LBB89_129:
	movabsq	$.L.str.560, %rdi
	movb	$0, %al
	callq	printf@PLT
	movabsq	$.L.str.561, %rdi
	movb	$0, %al
	callq	printf@PLT
.LBB89_130:
	movabsq	$.L.str.562, %rdi
	movb	$0, %al
	callq	printf@PLT
	movw	$0, -24(%rbp)
.LBB89_131:
	movw	-24(%rbp), %ax
	addq	$104, %rsp
	popq	%rbx
	popq	%rbp
	.cfi_def_cfa %rsp, 8
	retq
.Lfunc_end89:
	.size	CF_function_187, .Lfunc_end89-CF_function_187
	.cfi_endproc
                                        # -- End function
	.section	.rodata.cst4,"aM",@progbits,4
	.p2align	2                               # -- Begin function CF_function_188
.LCPI90_0:
	.long	0x45f967ae                      # float 7980.95996
.LCPI90_1:
	.long	0x4542bccd                      # float 3115.80005
.LCPI90_2:
	.long	0x40800000                      # float 4
.LCPI90_5:
	.long	0x41000000                      # float 8
	.section	.rodata.cst8,"aM",@progbits,8
	.p2align	3
.LCPI90_3:
	.quad	0x402de66666666666              # double 14.949999999999999
.LCPI90_4:
	.quad	0x40108f5c28f5c28f              # double 4.1399999999999997
	.text
	.globl	CF_function_188
	.p2align	4, 0x90
	.type	CF_function_188,@function
CF_function_188:                        # @CF_function_188
	.cfi_startproc
# %bb.0:
	pushq	%rbp
	.cfi_def_cfa_offset 16
	.cfi_offset %rbp, -16
	movq	%rsp, %rbp
	.cfi_def_cfa_register %rbp
	subq	$48, %rsp
	movq	%rdi, -40(%rbp)
	movabsq	$.L.str.563, %rdi
	movb	$0, %al
	callq	printf@PLT
	movabsq	$.L.str.564, %rdi
	movb	$0, %al
	callq	printf@PLT
	movss	.LCPI90_0(%rip), %xmm0          # xmm0 = mem[0],zero,zero,zero
	movss	%xmm0, -24(%rbp)
.LBB90_1:                               # =>This Loop Header: Depth=1
                                        #     Child Loop BB90_8 Depth 2
                                        #       Child Loop BB90_17 Depth 3
                                        #         Child Loop BB90_25 Depth 4
                                        #           Child Loop BB90_28 Depth 5
	movss	-24(%rbp), %xmm0                # xmm0 = mem[0],zero,zero,zero
	cvtss2sd	%xmm0, %xmm0
	movabsq	$.L.str.565, %rdi
	movb	$1, %al
	callq	printf@PLT
	movabsq	$.L.str.566, %rdi
	movb	$0, %al
	callq	printf@PLT
	callq	getchar@PLT
	cmpl	$97, %eax
	jne	.LBB90_3
# %bb.2:
	movl	$1923, %edi                     # imm = 0x783
	callq	exit@PLT
.LBB90_3:                               #   in Loop: Header=BB90_1 Depth=1
	callq	getchar@PLT
	cmpl	$31, %eax
	jne	.LBB90_5
# %bb.4:
	jmp	.LBB90_68
.LBB90_5:                               #   in Loop: Header=BB90_1 Depth=1
	callq	getchar@PLT
	cmpl	$83, %eax
	jne	.LBB90_7
# %bb.6:
	movabsq	$.L.str.567, %rdi
	movb	$0, %al
	callq	printf@PLT
	jmp	.LBB90_67
.LBB90_7:                               #   in Loop: Header=BB90_1 Depth=1
	movabsq	$.L.str.568, %rdi
	movb	$0, %al
	callq	printf@PLT
	movabsq	$.L.str.569, %rdi
	movb	$0, %al
	callq	printf@PLT
	movl	$8862, -20(%rbp)                # imm = 0x229E
.LBB90_8:                               #   Parent Loop BB90_1 Depth=1
                                        # =>  This Loop Header: Depth=2
                                        #       Child Loop BB90_17 Depth 3
                                        #         Child Loop BB90_25 Depth 4
                                        #           Child Loop BB90_28 Depth 5
	movl	-20(%rbp), %esi
	movabsq	$.L.str.570, %rdi
	movb	$0, %al
	callq	printf@PLT
	xorl	%edi, %edi
	xorl	%esi, %esi
	xorl	%edx, %edx
	xorl	%ecx, %ecx
	callq	FF_function_110
	callq	getchar@PLT
	cmpl	$23, %eax
	jne	.LBB90_10
# %bb.9:                                #   in Loop: Header=BB90_1 Depth=1
	jmp	.LBB90_60
.LBB90_10:                              #   in Loop: Header=BB90_8 Depth=2
	callq	getchar@PLT
	cmpl	$97, %eax
	jne	.LBB90_12
# %bb.11:
	movl	$1923, %edi                     # imm = 0x783
	callq	exit@PLT
.LBB90_12:                              #   in Loop: Header=BB90_8 Depth=2
	callq	getchar@PLT
	cmpl	$19, %eax
	jne	.LBB90_14
# %bb.13:                               #   in Loop: Header=BB90_1 Depth=1
	jmp	.LBB90_61
.LBB90_14:                              #   in Loop: Header=BB90_8 Depth=2
	callq	getchar@PLT
	cmpl	$83, %eax
	jne	.LBB90_16
# %bb.15:                               #   in Loop: Header=BB90_1 Depth=1
	movabsq	$.L.str.571, %rdi
	movb	$0, %al
	callq	printf@PLT
	jmp	.LBB90_62
.LBB90_16:                              #   in Loop: Header=BB90_8 Depth=2
	movabsq	$.L.str.572, %rdi
	movb	$0, %al
	callq	printf@PLT
	movabsq	$.L.str.573, %rdi
	movb	$0, %al
	callq	printf@PLT
	movss	.LCPI90_1(%rip), %xmm0          # xmm0 = mem[0],zero,zero,zero
	movss	%xmm0, -16(%rbp)
.LBB90_17:                              #   Parent Loop BB90_1 Depth=1
                                        #     Parent Loop BB90_8 Depth=2
                                        # =>    This Loop Header: Depth=3
                                        #         Child Loop BB90_25 Depth 4
                                        #           Child Loop BB90_28 Depth 5
	movss	-16(%rbp), %xmm0                # xmm0 = mem[0],zero,zero,zero
	movss	.LCPI90_2(%rip), %xmm1          # xmm1 = mem[0],zero,zero,zero
	ucomiss	%xmm1, %xmm0
	jbe	.LBB90_54
# %bb.18:                               #   in Loop: Header=BB90_17 Depth=3
	movss	-16(%rbp), %xmm0                # xmm0 = mem[0],zero,zero,zero
	cvtss2sd	%xmm0, %xmm0
	movabsq	$.L.str.574, %rdi
	movb	$1, %al
	callq	printf@PLT
	movabsq	$.L.str.575, %rdi
	movb	$0, %al
	callq	printf@PLT
	callq	getchar@PLT
	cmpl	$97, %eax
	jne	.LBB90_20
# %bb.19:
	movl	$1923, %edi                     # imm = 0x783
	callq	exit@PLT
.LBB90_20:                              #   in Loop: Header=BB90_17 Depth=3
	callq	getchar@PLT
	cmpl	$31, %eax
	jne	.LBB90_22
# %bb.21:
	jmp	.LBB90_68
.LBB90_22:                              #   in Loop: Header=BB90_17 Depth=3
	callq	getchar@PLT
	cmpl	$19, %eax
	jne	.LBB90_24
# %bb.23:                               #   in Loop: Header=BB90_8 Depth=2
	jmp	.LBB90_55
.LBB90_24:                              #   in Loop: Header=BB90_17 Depth=3
	movabsq	$.L.str.576, %rdi
	movb	$0, %al
	callq	printf@PLT
	movabsq	$.L.str.577, %rdi
	movb	$0, %al
	callq	printf@PLT
.LBB90_25:                              #   Parent Loop BB90_1 Depth=1
                                        #     Parent Loop BB90_8 Depth=2
                                        #       Parent Loop BB90_17 Depth=3
                                        # =>      This Loop Header: Depth=4
                                        #           Child Loop BB90_28 Depth 5
	movabsq	$.L.str.578, %rdi
	movb	$0, %al
	callq	printf@PLT
	xorl	%edi, %edi
	xorps	%xmm0, %xmm0
	xorps	%xmm1, %xmm1
	xorl	%esi, %esi
	xorl	%edx, %edx
	callq	FF_function_121
	callq	getchar@PLT
	cmpl	$19, %eax
	jne	.LBB90_27
# %bb.26:                               #   in Loop: Header=BB90_17 Depth=3
	jmp	.LBB90_50
.LBB90_27:                              #   in Loop: Header=BB90_25 Depth=4
	movabsq	$.L.str.579, %rdi
	movb	$0, %al
	callq	printf@PLT
	movabsq	$.L.str.580, %rdi
	movb	$0, %al
	callq	printf@PLT
	movl	$6859, -12(%rbp)                # imm = 0x1ACB
.LBB90_28:                              #   Parent Loop BB90_1 Depth=1
                                        #     Parent Loop BB90_8 Depth=2
                                        #       Parent Loop BB90_17 Depth=3
                                        #         Parent Loop BB90_25 Depth=4
                                        # =>        This Inner Loop Header: Depth=5
	cmpl	$8, -12(%rbp)
	jl	.LBB90_42
# %bb.29:                               #   in Loop: Header=BB90_28 Depth=5
	movl	-12(%rbp), %esi
	movabsq	$.L.str.581, %rdi
	movb	$0, %al
	callq	printf@PLT
	movq	$0, -32(%rbp)
	movq	-32(%rbp), %rdi
	movb	$0, %al
	callq	FF_function_176
	callq	getchar@PLT
	cmpl	$23, %eax
	jne	.LBB90_31
# %bb.30:                               #   in Loop: Header=BB90_25 Depth=4
	jmp	.LBB90_43
.LBB90_31:                              #   in Loop: Header=BB90_28 Depth=5
	callq	getchar@PLT
	cmpl	$31, %eax
	jne	.LBB90_33
# %bb.32:
	jmp	.LBB90_68
.LBB90_33:                              #   in Loop: Header=BB90_28 Depth=5
	callq	getchar@PLT
	cmpl	$19, %eax
	jne	.LBB90_35
# %bb.34:                               #   in Loop: Header=BB90_25 Depth=4
	jmp	.LBB90_44
.LBB90_35:                              #   in Loop: Header=BB90_28 Depth=5
	callq	getchar@PLT
	cmpl	$73, %eax
	jne	.LBB90_37
# %bb.36:
	movabsq	$.L.str.582, %rdi
	movb	$0, %al
	callq	printf@PLT
	jmp	.LBB90_66
.LBB90_37:                              #   in Loop: Header=BB90_28 Depth=5
	movabsq	$.L.str.583, %rdi
	movb	$0, %al
	callq	printf@PLT
	callq	getchar@PLT
	cmpl	$67, %eax
	jne	.LBB90_39
# %bb.38:                               #   in Loop: Header=BB90_28 Depth=5
	jmp	.LBB90_41
.LBB90_39:                              #   in Loop: Header=BB90_28 Depth=5
	movabsq	$.L.str.584, %rdi
	movb	$0, %al
	callq	printf@PLT
# %bb.40:                               #   in Loop: Header=BB90_28 Depth=5
	jmp	.LBB90_41
.LBB90_41:                              #   in Loop: Header=BB90_28 Depth=5
	movl	-12(%rbp), %eax
	movl	$6, %ecx
	cltd
	idivl	%ecx
	movl	%eax, -12(%rbp)
	jmp	.LBB90_28
.LBB90_42:                              # %.loopexit
                                        #   in Loop: Header=BB90_25 Depth=4
	jmp	.LBB90_43
.LBB90_43:                              #   in Loop: Header=BB90_25 Depth=4
	jmp	.LBB90_44
.LBB90_44:                              #   in Loop: Header=BB90_25 Depth=4
	movabsq	$.L.str.585, %rdi
	movb	$0, %al
	callq	printf@PLT
	movabsq	$.L.str.586, %rdi
	movb	$0, %al
	callq	printf@PLT
# %bb.45:                               #   in Loop: Header=BB90_25 Depth=4
	callq	getchar@PLT
	cmpl	$67, %eax
	jne	.LBB90_48
# %bb.46:                               #   in Loop: Header=BB90_25 Depth=4
	jmp	.LBB90_47
.LBB90_47:                              # %.backedge
                                        #   in Loop: Header=BB90_25 Depth=4
	jmp	.LBB90_25
.LBB90_48:                              #   in Loop: Header=BB90_25 Depth=4
	callq	FF_function_151
# %bb.49:                               #   in Loop: Header=BB90_25 Depth=4
	jmp	.LBB90_47
.LBB90_50:                              #   in Loop: Header=BB90_17 Depth=3
	movabsq	$.L.str.587, %rdi
	movb	$0, %al
	callq	printf@PLT
	callq	FF_function_151
# %bb.51:                               #   in Loop: Header=BB90_17 Depth=3
	movabsq	$.L.str.588, %rdi
	movb	$0, %al
	callq	printf@PLT
# %bb.52:                               #   in Loop: Header=BB90_17 Depth=3
	jmp	.LBB90_53
.LBB90_53:                              #   in Loop: Header=BB90_17 Depth=3
	movss	-16(%rbp), %xmm0                # xmm0 = mem[0],zero,zero,zero
	cvtss2sd	%xmm0, %xmm0
	movsd	.LCPI90_3(%rip), %xmm1          # xmm1 = mem[0],zero
	subsd	%xmm1, %xmm0
	cvtsd2ss	%xmm0, %xmm0
	movss	%xmm0, -16(%rbp)
	jmp	.LBB90_17
.LBB90_54:                              #   in Loop: Header=BB90_8 Depth=2
	jmp	.LBB90_55
.LBB90_55:                              #   in Loop: Header=BB90_8 Depth=2
	movabsq	$.L.str.589, %rdi
	movb	$0, %al
	callq	printf@PLT
	movabsq	$.L.str.590, %rdi
	movb	$0, %al
	callq	printf@PLT
# %bb.56:                               #   in Loop: Header=BB90_8 Depth=2
	movabsq	$.L.str.591, %rdi
	movb	$0, %al
	callq	printf@PLT
# %bb.57:                               #   in Loop: Header=BB90_8 Depth=2
	callq	getchar@PLT
	movl	-20(%rbp), %ecx
	subl	%eax, %ecx
	movl	%ecx, -20(%rbp)
# %bb.58:                               #   in Loop: Header=BB90_8 Depth=2
	cmpl	$8, -20(%rbp)
	jge	.LBB90_8
# %bb.59:                               # %.loopexit1
                                        #   in Loop: Header=BB90_1 Depth=1
	jmp	.LBB90_60
.LBB90_60:                              #   in Loop: Header=BB90_1 Depth=1
	jmp	.LBB90_61
.LBB90_61:                              #   in Loop: Header=BB90_1 Depth=1
	movabsq	$.L.str.592, %rdi
	movb	$0, %al
	callq	printf@PLT
	xorps	%xmm0, %xmm0
	xorl	%edi, %edi
	xorl	%esi, %esi
	movb	$1, %al
	callq	FF_function_103
	movq	%rax, %rdi
	callq	FF_function_131
.LBB90_62:                              #   in Loop: Header=BB90_1 Depth=1
	movabsq	$.L.str.593, %rdi
	movb	$0, %al
	callq	printf@PLT
# %bb.63:                               #   in Loop: Header=BB90_1 Depth=1
	movss	-24(%rbp), %xmm0                # xmm0 = mem[0],zero,zero,zero
	cvtss2sd	%xmm0, %xmm0
	movsd	.LCPI90_4(%rip), %xmm1          # xmm1 = mem[0],zero
	subsd	%xmm1, %xmm0
	cvtsd2ss	%xmm0, %xmm0
	movss	%xmm0, -24(%rbp)
# %bb.64:                               #   in Loop: Header=BB90_1 Depth=1
	movss	-24(%rbp), %xmm0                # xmm0 = mem[0],zero,zero,zero
	movss	.LCPI90_5(%rip), %xmm1          # xmm1 = mem[0],zero,zero,zero
	ucomiss	%xmm1, %xmm0
	jae	.LBB90_1
# %bb.65:
	jmp	.LBB90_66
.LBB90_66:
	movabsq	$.L.str.594, %rdi
	movb	$0, %al
	callq	printf@PLT
	movabsq	$.L.str.595, %rdi
	movb	$0, %al
	callq	printf@PLT
.LBB90_67:
	movabsq	$.L.str.596, %rdi
	movb	$0, %al
	callq	printf@PLT
	movb	$0, -8(%rbp)
.LBB90_68:
	movb	-8(%rbp), %al
	addq	$48, %rsp
	popq	%rbp
	.cfi_def_cfa %rsp, 8
	retq
.Lfunc_end90:
	.size	CF_function_188, .Lfunc_end90-CF_function_188
	.cfi_endproc
                                        # -- End function
	.section	.rodata.cst8,"aM",@progbits,8
	.p2align	3                               # -- Begin function CF_function_189
.LCPI91_0:
	.quad	0x40a3e20000000000              # double 2545
.LCPI91_2:
	.quad	0x40a2ad2e147ae148              # double 2390.5900000000001
.LCPI91_3:
	.quad	0x4020c7ae147ae148              # double 8.3900000000000006
	.section	.rodata.cst4,"aM",@progbits,4
	.p2align	2
.LCPI91_1:
	.long	0x451f675c                      # float 2550.45996
	.text
	.globl	CF_function_189
	.p2align	4, 0x90
	.type	CF_function_189,@function
CF_function_189:                        # @CF_function_189
	.cfi_startproc
# %bb.0:
	pushq	%rbp
	.cfi_def_cfa_offset 16
	.cfi_offset %rbp, -16
	movq	%rsp, %rbp
	.cfi_def_cfa_register %rbp
	subq	$32, %rsp
	movw	%di, -18(%rbp)
	movabsq	$.L.str.597, %rdi
	movb	$0, %al
	callq	printf@PLT
	movabsq	$.L.str.598, %rdi
	movb	$0, %al
	callq	printf@PLT
.LBB91_1:                               # =>This Loop Header: Depth=1
                                        #     Child Loop BB91_12 Depth 2
                                        #       Child Loop BB91_19 Depth 3
                                        #     Child Loop BB91_33 Depth 2
	movabsq	$.L.str.599, %rdi
	movb	$0, %al
	callq	printf@PLT
	movabsq	$.L.str.600, %rdi
	movb	$0, %al
	callq	printf@PLT
	callq	getchar@PLT
	cmpl	$23, %eax
	jne	.LBB91_3
# %bb.2:
	jmp	.LBB91_42
.LBB91_3:                               #   in Loop: Header=BB91_1 Depth=1
	callq	getchar@PLT
	cmpl	$97, %eax
	jne	.LBB91_5
# %bb.4:
	movl	$1923, %edi                     # imm = 0x783
	callq	exit@PLT
.LBB91_5:                               #   in Loop: Header=BB91_1 Depth=1
	callq	getchar@PLT
	cmpl	$31, %eax
	jne	.LBB91_7
# %bb.6:
	jmp	.LBB91_45
.LBB91_7:                               #   in Loop: Header=BB91_1 Depth=1
	callq	getchar@PLT
	cmpl	$19, %eax
	jne	.LBB91_9
# %bb.8:
	jmp	.LBB91_43
.LBB91_9:                               #   in Loop: Header=BB91_1 Depth=1
	callq	getchar@PLT
	cmpl	$83, %eax
	jne	.LBB91_11
# %bb.10:
	movabsq	$.L.str.601, %rdi
	movb	$0, %al
	callq	printf@PLT
	jmp	.LBB91_44
.LBB91_11:                              #   in Loop: Header=BB91_1 Depth=1
	movabsq	$.L.str.602, %rdi
	movb	$0, %al
	callq	printf@PLT
	movabsq	$.L.str.603, %rdi
	movb	$0, %al
	callq	printf@PLT
.LBB91_12:                              #   Parent Loop BB91_1 Depth=1
                                        # =>  This Loop Header: Depth=2
                                        #       Child Loop BB91_19 Depth 3
	movabsq	$.L.str.604, %rdi
	movb	$0, %al
	callq	printf@PLT
	movabsq	$.L.str.605, %rdi
	movb	$0, %al
	callq	printf@PLT
	callq	getchar@PLT
	cmpl	$23, %eax
	jne	.LBB91_14
# %bb.13:                               #   in Loop: Header=BB91_1 Depth=1
	jmp	.LBB91_30
.LBB91_14:                              #   in Loop: Header=BB91_12 Depth=2
	callq	getchar@PLT
	cmpl	$97, %eax
	jne	.LBB91_16
# %bb.15:
	movl	$1923, %edi                     # imm = 0x783
	callq	exit@PLT
.LBB91_16:                              #   in Loop: Header=BB91_12 Depth=2
	callq	getchar@PLT
	cmpl	$31, %eax
	jne	.LBB91_18
# %bb.17:
	jmp	.LBB91_45
.LBB91_18:                              #   in Loop: Header=BB91_12 Depth=2
	xorl	%edi, %edi
	xorl	%esi, %esi
	callq	FF_function_132
	movabsq	$.L.str.606, %rdi
	movb	$0, %al
	callq	printf@PLT
	movl	$2564, -4(%rbp)                 # imm = 0xA04
.LBB91_19:                              #   Parent Loop BB91_1 Depth=1
                                        #     Parent Loop BB91_12 Depth=2
                                        # =>    This Inner Loop Header: Depth=3
	cvtsi2sdl	-4(%rbp), %xmm0
	movsd	.LCPI91_0(%rip), %xmm1          # xmm1 = mem[0],zero
	ucomisd	%xmm1, %xmm0
	jb	.LBB91_22
# %bb.20:                               #   in Loop: Header=BB91_19 Depth=3
	movl	-4(%rbp), %esi
	movabsq	$.L.str.607, %rdi
	movb	$0, %al
	callq	printf@PLT
	callq	getchar@PLT
# %bb.21:                               #   in Loop: Header=BB91_19 Depth=3
	movl	-4(%rbp), %eax
	addl	$-1, %eax
	movl	%eax, -4(%rbp)
	jmp	.LBB91_19
.LBB91_22:                              #   in Loop: Header=BB91_12 Depth=2
	jmp	.LBB91_23
.LBB91_23:                              #   in Loop: Header=BB91_12 Depth=2
	movabsq	$.L.str.608, %rdi
	movb	$0, %al
	callq	printf@PLT
	movabsq	$.L.str.609, %rdi
	movb	$0, %al
	callq	printf@PLT
# %bb.24:                               #   in Loop: Header=BB91_12 Depth=2
	callq	getchar@PLT
	cmpl	$17, %eax
	jne	.LBB91_26
# %bb.25:                               #   in Loop: Header=BB91_12 Depth=2
	jmp	.LBB91_27
.LBB91_26:                              #   in Loop: Header=BB91_12 Depth=2
	movabsq	$.L.str.610, %rdi
	movb	$0, %al
	callq	printf@PLT
.LBB91_27:                              #   in Loop: Header=BB91_12 Depth=2
	jmp	.LBB91_28
.LBB91_28:                              #   in Loop: Header=BB91_12 Depth=2
	movb	$1, %al
	testb	$1, %al
	jne	.LBB91_12
	jmp	.LBB91_29
.LBB91_29:                              # %.loopexit
                                        #   in Loop: Header=BB91_1 Depth=1
	jmp	.LBB91_30
.LBB91_30:                              #   in Loop: Header=BB91_1 Depth=1
	jmp	.LBB91_31
.LBB91_31:                              #   in Loop: Header=BB91_1 Depth=1
	movabsq	$.L.str.611, %rdi
	movb	$0, %al
	callq	printf@PLT
	movabsq	$.L.str.612, %rdi
	movb	$0, %al
	callq	printf@PLT
# %bb.32:                               #   in Loop: Header=BB91_1 Depth=1
	movabsq	$.L.str.613, %rdi
	movb	$0, %al
	callq	printf@PLT
	movss	.LCPI91_1(%rip), %xmm0          # xmm0 = mem[0],zero,zero,zero
	movss	%xmm0, -8(%rbp)
.LBB91_33:                              #   Parent Loop BB91_1 Depth=1
                                        # =>  This Inner Loop Header: Depth=2
	movss	-8(%rbp), %xmm0                 # xmm0 = mem[0],zero,zero,zero
	cvtss2sd	%xmm0, %xmm0
	movsd	.LCPI91_2(%rip), %xmm1          # xmm1 = mem[0],zero
	ucomisd	%xmm1, %xmm0
	jb	.LBB91_36
# %bb.34:                               #   in Loop: Header=BB91_33 Depth=2
	movabsq	$.L.str.614, %rdi
	movb	$0, %al
	callq	printf@PLT
	callq	getchar@PLT
# %bb.35:                               #   in Loop: Header=BB91_33 Depth=2
	movss	-8(%rbp), %xmm0                 # xmm0 = mem[0],zero,zero,zero
	cvtss2sd	%xmm0, %xmm0
	movsd	.LCPI91_3(%rip), %xmm1          # xmm1 = mem[0],zero
	subsd	%xmm1, %xmm0
	cvtsd2ss	%xmm0, %xmm0
	movss	%xmm0, -8(%rbp)
	jmp	.LBB91_33
.LBB91_36:                              #   in Loop: Header=BB91_1 Depth=1
	jmp	.LBB91_37
.LBB91_37:                              #   in Loop: Header=BB91_1 Depth=1
	movabsq	$.L.str.615, %rdi
	movb	$0, %al
	callq	printf@PLT
	movabsq	$.L.str.616, %rdi
	movb	$0, %al
	callq	printf@PLT
# %bb.38:                               #   in Loop: Header=BB91_1 Depth=1
	callq	getchar@PLT
	cmpl	$17, %eax
	jne	.LBB91_40
# %bb.39:                               #   in Loop: Header=BB91_1 Depth=1
	jmp	.LBB91_41
.LBB91_40:                              #   in Loop: Header=BB91_1 Depth=1
	movabsq	$.L.str.617, %rdi
	movb	$0, %al
	callq	printf@PLT
.LBB91_41:                              #   in Loop: Header=BB91_1 Depth=1
	jmp	.LBB91_1
.LBB91_42:
	jmp	.LBB91_43
.LBB91_43:
	movabsq	$.L.str.618, %rdi
	movb	$0, %al
	callq	printf@PLT
	movabsq	$.L.str.619, %rdi
	movb	$0, %al
	callq	printf@PLT
.LBB91_44:
	movabsq	$.L.str.620, %rdi
	movb	$0, %al
	callq	printf@PLT
	xorps	%xmm0, %xmm0
	movss	%xmm0, -16(%rbp)
.LBB91_45:
	movss	-16(%rbp), %xmm0                # xmm0 = mem[0],zero,zero,zero
	addq	$32, %rsp
	popq	%rbp
	.cfi_def_cfa %rsp, 8
	retq
.Lfunc_end91:
	.size	CF_function_189, .Lfunc_end91-CF_function_189
	.cfi_endproc
                                        # -- End function
	.section	.rodata.cst4,"aM",@progbits,4
	.p2align	2                               # -- Begin function CF_function_190
.LCPI92_0:
	.long	0x45101614                      # float 2305.37988
.LCPI92_2:
	.long	0x460dfc1f                      # float 9087.03027
.LCPI92_4:
	.long	0x44fd1571                      # float 2024.67004
.LCPI92_7:
	.long	0x3f000000                      # float 0.5
.LCPI92_8:
	.long	0x3f800000                      # float 1
	.section	.rodata.cst8,"aM",@progbits,8
	.p2align	3
.LCPI92_1:
	.quad	0x40a2220000000000              # double 2321
.LCPI92_3:
	.quad	0x4015333333333333              # double 5.2999999999999998
.LCPI92_5:
	.quad	0x40a0133333333333              # double 2057.5999999999999
.LCPI92_6:
	.quad	0x400ae147ae147ae1              # double 3.3599999999999999
	.text
	.globl	CF_function_190
	.p2align	4, 0x90
	.type	CF_function_190,@function
CF_function_190:                        # @CF_function_190
	.cfi_startproc
# %bb.0:
	pushq	%rbp
	.cfi_def_cfa_offset 16
	.cfi_offset %rbp, -16
	movq	%rsp, %rbp
	.cfi_def_cfa_register %rbp
	subq	$48, %rsp
	movb	%dil, -21(%rbp)
	movabsq	$.L.str.621, %rdi
	movb	$0, %al
	callq	printf@PLT
	movabsq	$.L.str.622, %rdi
	movb	$0, %al
	callq	printf@PLT
.LBB92_1:                               # =>This Loop Header: Depth=1
                                        #     Child Loop BB92_8 Depth 2
                                        #     Child Loop BB92_14 Depth 2
                                        #       Child Loop BB92_17 Depth 3
                                        #       Child Loop BB92_31 Depth 3
	movabsq	$.L.str.623, %rdi
	movb	$0, %al
	callq	printf@PLT
	movabsq	$.L.str.624, %rdi
	movb	$0, %al
	callq	printf@PLT
	callq	getchar@PLT
	cmpl	$97, %eax
	jne	.LBB92_3
# %bb.2:
	movl	$1923, %edi                     # imm = 0x783
	callq	exit@PLT
.LBB92_3:                               #   in Loop: Header=BB92_1 Depth=1
	callq	getchar@PLT
	cmpl	$31, %eax
	jne	.LBB92_5
# %bb.4:
	jmp	.LBB92_53
.LBB92_5:                               #   in Loop: Header=BB92_1 Depth=1
	callq	getchar@PLT
	cmpl	$19, %eax
	jne	.LBB92_7
# %bb.6:
	jmp	.LBB92_51
.LBB92_7:                               #   in Loop: Header=BB92_1 Depth=1
	xorps	%xmm0, %xmm0
	xorl	%edi, %edi
	callq	FF_function_124
	movq	%rax, %rdi
	callq	FF_function_131
	movabsq	$.L.str.625, %rdi
	movb	$0, %al
	callq	printf@PLT
	movss	.LCPI92_0(%rip), %xmm0          # xmm0 = mem[0],zero,zero,zero
	movss	%xmm0, -20(%rbp)
.LBB92_8:                               #   Parent Loop BB92_1 Depth=1
                                        # =>  This Inner Loop Header: Depth=2
	movss	-20(%rbp), %xmm0                # xmm0 = mem[0],zero,zero,zero
	cvtss2sd	%xmm0, %xmm0
	movsd	.LCPI92_1(%rip), %xmm1          # xmm1 = mem[0],zero
	ucomisd	%xmm0, %xmm1
	jb	.LBB92_11
# %bb.9:                                #   in Loop: Header=BB92_8 Depth=2
	movabsq	$.L.str.626, %rdi
	movb	$0, %al
	callq	printf@PLT
	callq	getchar@PLT
# %bb.10:                               #   in Loop: Header=BB92_8 Depth=2
	movss	.LCPI92_8(%rip), %xmm0          # xmm0 = mem[0],zero,zero,zero
	addss	-20(%rbp), %xmm0
	movss	%xmm0, -20(%rbp)
	jmp	.LBB92_8
.LBB92_11:                              #   in Loop: Header=BB92_1 Depth=1
	jmp	.LBB92_12
.LBB92_12:                              #   in Loop: Header=BB92_1 Depth=1
	movabsq	$.L.str.627, %rdi
	movb	$0, %al
	callq	printf@PLT
	movabsq	$.L.str.628, %rdi
	movb	$0, %al
	callq	printf@PLT
# %bb.13:                               #   in Loop: Header=BB92_1 Depth=1
	movabsq	$.L.str.629, %rdi
	movb	$0, %al
	callq	printf@PLT
.LBB92_14:                              #   Parent Loop BB92_1 Depth=1
                                        # =>  This Loop Header: Depth=2
                                        #       Child Loop BB92_17 Depth 3
                                        #       Child Loop BB92_31 Depth 3
	movabsq	$.L.str.630, %rdi
	movb	$0, %al
	callq	printf@PLT
	xorl	%edi, %edi
	xorl	%esi, %esi
	callq	FF_function_118
	callq	getchar@PLT
	cmpl	$19, %eax
	jne	.LBB92_16
# %bb.15:                               #   in Loop: Header=BB92_1 Depth=1
	jmp	.LBB92_44
.LBB92_16:                              #   in Loop: Header=BB92_14 Depth=2
	movabsq	$.L.str.631, %rdi
	movb	$0, %al
	callq	printf@PLT
	movabsq	$.L.str.632, %rdi
	movb	$0, %al
	callq	printf@PLT
	movss	.LCPI92_2(%rip), %xmm0          # xmm0 = mem[0],zero,zero,zero
	movss	%xmm0, -16(%rbp)
.LBB92_17:                              #   Parent Loop BB92_1 Depth=1
                                        #     Parent Loop BB92_14 Depth=2
                                        # =>    This Inner Loop Header: Depth=3
	movss	-16(%rbp), %xmm0                # xmm0 = mem[0],zero,zero,zero
	cvtss2sd	%xmm0, %xmm0
	movabsq	$.L.str.633, %rdi
	movb	$1, %al
	callq	printf@PLT
	movabsq	$.L.str.634, %rdi
	movb	$0, %al
	callq	printf@PLT
	callq	getchar@PLT
	cmpl	$97, %eax
	jne	.LBB92_19
# %bb.18:
	movl	$1923, %edi                     # imm = 0x783
	callq	exit@PLT
.LBB92_19:                              #   in Loop: Header=BB92_17 Depth=3
	callq	getchar@PLT
	cmpl	$19, %eax
	jne	.LBB92_21
# %bb.20:                               #   in Loop: Header=BB92_14 Depth=2
	jmp	.LBB92_29
.LBB92_21:                              #   in Loop: Header=BB92_17 Depth=3
	callq	getchar@PLT
	cmpl	$73, %eax
	jne	.LBB92_23
# %bb.22:
	movabsq	$.L.str.635, %rdi
	movb	$0, %al
	callq	printf@PLT
	jmp	.LBB92_51
.LBB92_23:                              #   in Loop: Header=BB92_17 Depth=3
	xorps	%xmm0, %xmm0
	callq	FF_function_106
	callq	getchar@PLT
	cmpl	$17, %eax
	jne	.LBB92_25
# %bb.24:                               #   in Loop: Header=BB92_17 Depth=3
	jmp	.LBB92_26
.LBB92_25:                              #   in Loop: Header=BB92_17 Depth=3
	xorl	%edi, %edi
	xorl	%esi, %esi
	xorl	%edx, %edx
	xorl	%ecx, %ecx
	xorl	%r8d, %r8d
	xorl	%r9d, %r9d
	xorps	%xmm0, %xmm0
	xorps	%xmm1, %xmm1
	callq	FF_function_115
	xorl	%edi, %edi
	movswl	%ax, %esi
	xorl	%edx, %edx
	callq	FF_function_107
.LBB92_26:                              #   in Loop: Header=BB92_17 Depth=3
	movss	-16(%rbp), %xmm0                # xmm0 = mem[0],zero,zero,zero
	cvtss2sd	%xmm0, %xmm0
	movsd	.LCPI92_3(%rip), %xmm1          # xmm1 = mem[0],zero
	divsd	%xmm1, %xmm0
	cvtsd2ss	%xmm0, %xmm0
	movss	%xmm0, -16(%rbp)
# %bb.27:                               #   in Loop: Header=BB92_17 Depth=3
	movb	$1, %al
	testb	$1, %al
	jne	.LBB92_17
	jmp	.LBB92_28
.LBB92_28:                              #   in Loop: Header=BB92_14 Depth=2
	jmp	.LBB92_29
.LBB92_29:                              #   in Loop: Header=BB92_14 Depth=2
	movabsq	$.L.str.636, %rdi
	movb	$0, %al
	callq	printf@PLT
	callq	FF_function_151
	xorl	%edi, %edi
	xorps	%xmm0, %xmm0
	xorps	%xmm1, %xmm1
	movzbl	%al, %esi
	xorl	%edx, %edx
	callq	FF_function_121
# %bb.30:                               #   in Loop: Header=BB92_14 Depth=2
	movabsq	$.L.str.637, %rdi
	movb	$0, %al
	callq	printf@PLT
	movss	.LCPI92_4(%rip), %xmm0          # xmm0 = mem[0],zero,zero,zero
	movss	%xmm0, -12(%rbp)
.LBB92_31:                              #   Parent Loop BB92_1 Depth=1
                                        #     Parent Loop BB92_14 Depth=2
                                        # =>    This Inner Loop Header: Depth=3
	movss	-12(%rbp), %xmm0                # xmm0 = mem[0],zero,zero,zero
	cvtss2sd	%xmm0, %xmm0
	movsd	.LCPI92_5(%rip), %xmm1          # xmm1 = mem[0],zero
	ucomisd	%xmm0, %xmm1
	jb	.LBB92_35
# %bb.32:                               #   in Loop: Header=BB92_31 Depth=3
	movss	-12(%rbp), %xmm0                # xmm0 = mem[0],zero,zero,zero
	cvtss2sd	%xmm0, %xmm0
	movabsq	$.L.str.638, %rdi
	movb	$1, %al
	callq	printf@PLT
	callq	getchar@PLT
# %bb.33:                               #   in Loop: Header=BB92_31 Depth=3
	jmp	.LBB92_34
.LBB92_34:                              #   in Loop: Header=BB92_31 Depth=3
	movss	-12(%rbp), %xmm0                # xmm0 = mem[0],zero,zero,zero
	cvtss2sd	%xmm0, %xmm0
	movsd	.LCPI92_6(%rip), %xmm1          # xmm1 = mem[0],zero
	addsd	%xmm1, %xmm0
	cvtsd2ss	%xmm0, %xmm0
	movss	%xmm0, -12(%rbp)
	jmp	.LBB92_31
.LBB92_35:                              #   in Loop: Header=BB92_14 Depth=2
	jmp	.LBB92_36
.LBB92_36:                              #   in Loop: Header=BB92_14 Depth=2
	movabsq	$.L.str.639, %rdi
	movb	$0, %al
	callq	printf@PLT
	callq	FF_function_151
# %bb.37:                               #   in Loop: Header=BB92_14 Depth=2
	callq	getchar@PLT
	cmpl	$67, %eax
	jne	.LBB92_39
# %bb.38:                               #   in Loop: Header=BB92_14 Depth=2
	jmp	.LBB92_43
.LBB92_39:                              #   in Loop: Header=BB92_14 Depth=2
	callq	getchar@PLT
	cmpl	$17, %eax
	jne	.LBB92_41
# %bb.40:                               #   in Loop: Header=BB92_14 Depth=2
	jmp	.LBB92_42
.LBB92_41:                              #   in Loop: Header=BB92_14 Depth=2
	movabsq	$.L.str.640, %rdi
	movb	$0, %al
	callq	printf@PLT
.LBB92_42:                              #   in Loop: Header=BB92_14 Depth=2
	jmp	.LBB92_43
.LBB92_43:                              # %.backedge
                                        #   in Loop: Header=BB92_14 Depth=2
	jmp	.LBB92_14
.LBB92_44:                              #   in Loop: Header=BB92_1 Depth=1
	movabsq	$.L.str.641, %rdi
	movb	$0, %al
	callq	printf@PLT
	xorl	%edi, %edi
	movb	$0, %al
	callq	FF_function_123
# %bb.45:                               #   in Loop: Header=BB92_1 Depth=1
	callq	getchar@PLT
	cmpl	$17, %eax
	jne	.LBB92_47
# %bb.46:                               #   in Loop: Header=BB92_1 Depth=1
	jmp	.LBB92_48
.LBB92_47:                              #   in Loop: Header=BB92_1 Depth=1
	movl	$0, -40(%rbp)
	movss	.LCPI92_7(%rip), %xmm0          # xmm0 = mem[0],zero,zero,zero
	movss	%xmm0, -36(%rbp)
	movq	$0, -32(%rbp)
	movq	-40(%rbp), %rdi
	movq	-32(%rbp), %rsi
	movb	$0, %al
	callq	FF_function_171
.LBB92_48:                              #   in Loop: Header=BB92_1 Depth=1
	jmp	.LBB92_49
.LBB92_49:                              #   in Loop: Header=BB92_1 Depth=1
	movb	$1, %al
	testb	$1, %al
	jne	.LBB92_1
	jmp	.LBB92_50
.LBB92_50:
	jmp	.LBB92_51
.LBB92_51:
	movabsq	$.L.str.642, %rdi
	movb	$0, %al
	callq	printf@PLT
	movabsq	$.L.str.643, %rdi
	movb	$0, %al
	callq	printf@PLT
# %bb.52:
	movabsq	$.L.str.644, %rdi
	movb	$0, %al
	callq	printf@PLT
	movb	$0, -8(%rbp)
.LBB92_53:
	movb	-8(%rbp), %al
	addq	$48, %rsp
	popq	%rbp
	.cfi_def_cfa %rsp, 8
	retq
.Lfunc_end92:
	.size	CF_function_190, .Lfunc_end92-CF_function_190
	.cfi_endproc
                                        # -- End function
	.globl	CF_function_191                 # -- Begin function CF_function_191
	.p2align	4, 0x90
	.type	CF_function_191,@function
CF_function_191:                        # @CF_function_191
	.cfi_startproc
# %bb.0:
	pushq	%rbp
	.cfi_def_cfa_offset 16
	.cfi_offset %rbp, -16
	movq	%rsp, %rbp
	.cfi_def_cfa_register %rbp
	subq	$32, %rsp
	movb	%dil, -13(%rbp)
	movabsq	$.L.str.645, %rdi
	movb	$0, %al
	callq	printf@PLT
	movabsq	$.L.str.646, %rdi
	movb	$0, %al
	callq	printf@PLT
.LBB93_1:                               # =>This Loop Header: Depth=1
                                        #     Child Loop BB93_8 Depth 2
                                        #       Child Loop BB93_16 Depth 3
                                        #         Child Loop BB93_23 Depth 4
	movabsq	$.L.str.647, %rdi
	movb	$0, %al
	callq	printf@PLT
	movabsq	$.L.str.648, %rdi
	movb	$0, %al
	callq	printf@PLT
	callq	getchar@PLT
	cmpl	$97, %eax
	jne	.LBB93_3
# %bb.2:
	movl	$1923, %edi                     # imm = 0x783
	callq	exit@PLT
.LBB93_3:                               #   in Loop: Header=BB93_1 Depth=1
	callq	getchar@PLT
	cmpl	$31, %eax
	jne	.LBB93_5
# %bb.4:
	jmp	.LBB93_62
.LBB93_5:                               #   in Loop: Header=BB93_1 Depth=1
	callq	getchar@PLT
	cmpl	$19, %eax
	jne	.LBB93_7
# %bb.6:
	jmp	.LBB93_60
.LBB93_7:                               #   in Loop: Header=BB93_1 Depth=1
	movabsq	$.L.str.649, %rdi
	movb	$0, %al
	callq	printf@PLT
	movabsq	$.L.str.650, %rdi
	movb	$0, %al
	callq	printf@PLT
	movl	$5, -12(%rbp)
.LBB93_8:                               #   Parent Loop BB93_1 Depth=1
